ARM GAS  C:\Users\Doles\AppData\Local\Temp\ccw5cB6c.s 			page 1


   1              		.cpu cortex-m0
   2              		.fpu softvfp
   3              		.eabi_attribute 20, 1	@ Tag_ABI_FP_denormal
   4              		.eabi_attribute 21, 1	@ Tag_ABI_FP_exceptions
   5              		.eabi_attribute 23, 3	@ Tag_ABI_FP_number_model
   6              		.eabi_attribute 24, 1	@ Tag_ABI_align8_needed
   7              		.eabi_attribute 25, 1	@ Tag_ABI_align8_preserved
   8              		.eabi_attribute 26, 1	@ Tag_ABI_enum_size
   9              		.eabi_attribute 30, 4	@ Tag_ABI_optimization_goals
  10              		.eabi_attribute 34, 0	@ Tag_CPU_unaligned_access
  11              		.eabi_attribute 18, 4	@ Tag_ABI_PCS_wchar_t
  12              		.file	"stm32f0xx_rcc.c"
  13              	@ GNU C (GNU Tools for ARM Embedded Processors) version 4.9.3 20141119 (release) [ARM/embedded-4_9-
  14              	@	compiled by GNU C version 4.7.4, GMP version 4.3.2, MPFR version 2.4.2, MPC version 0.8.1
  15              	@ GGC heuristics: --param ggc-min-expand=100 --param ggc-min-heapsize=131072
  16              	@ options passed:  -I .
  17              	@ -I ..\..\STM32F0-Discovery_FW_V1.0.0\Libraries\CMSIS\ST\STM32F0xx\Include
  18              	@ -I ..\..\STM32F0-Discovery_FW_V1.0.0\Libraries\CMSIS\Include
  19              	@ -I ..\..\STM32F0-Discovery_FW_V1.0.0\Libraries\STM32F0xx_StdPeriph_Driver\inc
  20              	@ -I ..\..\STM32F0-Discovery_FW_V1.0.0\Utilities\STM32F0-Discovery -I .\inc
  21              	@ -imultilib armv6-m
  22              	@ -iprefix c:\program files (x86)\gnu tools arm embedded\4.9 2014q4\bin\../lib/gcc/arm-none-eabi/4.
  23              	@ -isysroot c:\program files (x86)\gnu tools arm embedded\4.9 2014q4\bin\../arm-none-eabi
  24              	@ -MD ..\..\STM32F0-Discovery_FW_V1.0.0\Libraries\STM32F0xx_StdPeriph_Driver\src\stm32f0xx_rcc.d
  25              	@ -MF .dep\stm32f0xx_rcc.o.d -MP
  26              	@ -MQ ..\..\STM32F0-Discovery_FW_V1.0.0\Libraries\STM32F0xx_StdPeriph_Driver\src\stm32f0xx_rcc.o
  27              	@ -D__USES_INITFINI__ -D STM32F0XX -D USE_STDPERIPH_DRIVER
  28              	@ -D RUN_FROM_FLASH=1
  29              	@ ..\..\STM32F0-Discovery_FW_V1.0.0\Libraries\STM32F0xx_StdPeriph_Driver\src\stm32f0xx_rcc.c
  30              	@ -mcpu=cortex-m0 -mthumb
  31              	@ -auxbase-strip ..\..\STM32F0-Discovery_FW_V1.0.0\Libraries\STM32F0xx_StdPeriph_Driver\src\stm32f0
  32              	@ -gdwarf-2 -Os -Wall -Wstrict-prototypes -fomit-frame-pointer
  33              	@ -fverbose-asm
  34              	@ options enabled:  -faggressive-loop-optimizations -fauto-inc-dec
  35              	@ -fbranch-count-reg -fcaller-saves -fcombine-stack-adjustments -fcommon
  36              	@ -fcompare-elim -fcprop-registers -fcrossjumping -fcse-follow-jumps
  37              	@ -fdefer-pop -fdelete-null-pointer-checks -fdevirtualize
  38              	@ -fdevirtualize-speculatively -fdwarf2-cfi-asm -fearly-inlining
  39              	@ -feliminate-unused-debug-types -fexpensive-optimizations
  40              	@ -fforward-propagate -ffunction-cse -fgcse -fgcse-lm -fgnu-runtime
  41              	@ -fgnu-unique -fguess-branch-probability -fhoist-adjacent-loads -fident
  42              	@ -fif-conversion -fif-conversion2 -findirect-inlining -finline
  43              	@ -finline-atomics -finline-functions -finline-functions-called-once
  44              	@ -finline-small-functions -fipa-cp -fipa-profile -fipa-pure-const
  45              	@ -fipa-reference -fipa-sra -fira-hoist-pressure -fira-share-save-slots
  46              	@ -fira-share-spill-slots -fisolate-erroneous-paths-dereference -fivopts
  47              	@ -fkeep-static-consts -fleading-underscore -fmath-errno -fmerge-constants
  48              	@ -fmerge-debug-strings -fomit-frame-pointer -foptimize-sibling-calls
  49              	@ -fpartial-inlining -fpeephole -fpeephole2 -fprefetch-loop-arrays
  50              	@ -freg-struct-return -freorder-blocks -freorder-functions
  51              	@ -frerun-cse-after-loop -fsched-critical-path-heuristic
  52              	@ -fsched-dep-count-heuristic -fsched-group-heuristic -fsched-interblock
  53              	@ -fsched-last-insn-heuristic -fsched-pressure -fsched-rank-heuristic
  54              	@ -fsched-spec -fsched-spec-insn-heuristic -fsched-stalled-insns-dep
  55              	@ -fschedule-insns2 -fsection-anchors -fshow-column -fshrink-wrap
  56              	@ -fsigned-zeros -fsplit-ivs-in-unroller -fsplit-wide-types
  57              	@ -fstrict-aliasing -fstrict-overflow -fstrict-volatile-bitfields
ARM GAS  C:\Users\Doles\AppData\Local\Temp\ccw5cB6c.s 			page 2


  58              	@ -fsync-libcalls -fthread-jumps -ftoplevel-reorder -ftrapping-math
  59              	@ -ftree-bit-ccp -ftree-builtin-call-dce -ftree-ccp -ftree-ch
  60              	@ -ftree-coalesce-vars -ftree-copy-prop -ftree-copyrename -ftree-cselim
  61              	@ -ftree-dce -ftree-dominator-opts -ftree-dse -ftree-forwprop -ftree-fre
  62              	@ -ftree-loop-if-convert -ftree-loop-im -ftree-loop-ivcanon
  63              	@ -ftree-loop-optimize -ftree-parallelize-loops= -ftree-phiprop -ftree-pre
  64              	@ -ftree-pta -ftree-reassoc -ftree-scev-cprop -ftree-sink -ftree-slsr
  65              	@ -ftree-sra -ftree-switch-conversion -ftree-tail-merge -ftree-ter
  66              	@ -ftree-vrp -funit-at-a-time -fvar-tracking -fvar-tracking-assignments
  67              	@ -fverbose-asm -fzero-initialized-in-bss -mlittle-endian -mlra
  68              	@ -mpic-data-is-text-relative -msched-prolog -mthumb
  69              	@ -mvectorize-with-neon-quad
  70              	
  71              		.text
  72              	.Ltext0:
  73              		.cfi_sections	.debug_frame
  74              		.align	1
  75              		.global	RCC_DeInit
  76              		.code	16
  77              		.thumb_func
  78              		.type	RCC_DeInit, %function
  79              	RCC_DeInit:
  80              	.LFB32:
  81              		.file 1 "..\\..\\STM32F0-Discovery_FW_V1.0.0\\Libraries\\STM32F0xx_StdPeriph_Driver\\src\\stm32f0x
   1:..\..\STM32F0-Discovery_FW_V1.0.0\Libraries\STM32F0xx_StdPeriph_Driver\src/stm32f0xx_rcc.c **** /**
   2:..\..\STM32F0-Discovery_FW_V1.0.0\Libraries\STM32F0xx_StdPeriph_Driver\src/stm32f0xx_rcc.c ****   ******************************************************************************
   3:..\..\STM32F0-Discovery_FW_V1.0.0\Libraries\STM32F0xx_StdPeriph_Driver\src/stm32f0xx_rcc.c ****   * @file    stm32f0xx_rcc.c
   4:..\..\STM32F0-Discovery_FW_V1.0.0\Libraries\STM32F0xx_StdPeriph_Driver\src/stm32f0xx_rcc.c ****   * @author  MCD Application Team
   5:..\..\STM32F0-Discovery_FW_V1.0.0\Libraries\STM32F0xx_StdPeriph_Driver\src/stm32f0xx_rcc.c ****   * @version V1.0.0
   6:..\..\STM32F0-Discovery_FW_V1.0.0\Libraries\STM32F0xx_StdPeriph_Driver\src/stm32f0xx_rcc.c ****   * @date    23-March-2012
   7:..\..\STM32F0-Discovery_FW_V1.0.0\Libraries\STM32F0xx_StdPeriph_Driver\src/stm32f0xx_rcc.c ****   * @brief   This file provides firmware functions to manage the following 
   8:..\..\STM32F0-Discovery_FW_V1.0.0\Libraries\STM32F0xx_StdPeriph_Driver\src/stm32f0xx_rcc.c ****   *          functionalities of the Reset and clock control (RCC) peripheral:
   9:..\..\STM32F0-Discovery_FW_V1.0.0\Libraries\STM32F0xx_StdPeriph_Driver\src/stm32f0xx_rcc.c ****   *           + Internal/external clocks, PLL, CSS and MCO configuration
  10:..\..\STM32F0-Discovery_FW_V1.0.0\Libraries\STM32F0xx_StdPeriph_Driver\src/stm32f0xx_rcc.c ****   *           + System, AHB and APB busses clocks configuration
  11:..\..\STM32F0-Discovery_FW_V1.0.0\Libraries\STM32F0xx_StdPeriph_Driver\src/stm32f0xx_rcc.c ****   *           + Peripheral clocks configuration
  12:..\..\STM32F0-Discovery_FW_V1.0.0\Libraries\STM32F0xx_StdPeriph_Driver\src/stm32f0xx_rcc.c ****   *           + Interrupts and flags management
  13:..\..\STM32F0-Discovery_FW_V1.0.0\Libraries\STM32F0xx_StdPeriph_Driver\src/stm32f0xx_rcc.c ****   *
  14:..\..\STM32F0-Discovery_FW_V1.0.0\Libraries\STM32F0xx_StdPeriph_Driver\src/stm32f0xx_rcc.c ****  @verbatim
  15:..\..\STM32F0-Discovery_FW_V1.0.0\Libraries\STM32F0xx_StdPeriph_Driver\src/stm32f0xx_rcc.c **** 
  16:..\..\STM32F0-Discovery_FW_V1.0.0\Libraries\STM32F0xx_StdPeriph_Driver\src/stm32f0xx_rcc.c ****  ===============================================================================
  17:..\..\STM32F0-Discovery_FW_V1.0.0\Libraries\STM32F0xx_StdPeriph_Driver\src/stm32f0xx_rcc.c ****                         ##### RCC specific features #####
  18:..\..\STM32F0-Discovery_FW_V1.0.0\Libraries\STM32F0xx_StdPeriph_Driver\src/stm32f0xx_rcc.c ****  ===============================================================================
  19:..\..\STM32F0-Discovery_FW_V1.0.0\Libraries\STM32F0xx_StdPeriph_Driver\src/stm32f0xx_rcc.c ****     [..] After reset the device is running from HSI (8 MHz) with Flash 0 WS, 
  20:..\..\STM32F0-Discovery_FW_V1.0.0\Libraries\STM32F0xx_StdPeriph_Driver\src/stm32f0xx_rcc.c ****          all peripherals are off except internal SRAM, Flash and SWD.
  21:..\..\STM32F0-Discovery_FW_V1.0.0\Libraries\STM32F0xx_StdPeriph_Driver\src/stm32f0xx_rcc.c ****          (#) There is no prescaler on High speed (AHB) and Low speed (APB) busses;
  22:..\..\STM32F0-Discovery_FW_V1.0.0\Libraries\STM32F0xx_StdPeriph_Driver\src/stm32f0xx_rcc.c ****              all peripherals mapped on these busses are running at HSI speed.
  23:..\..\STM32F0-Discovery_FW_V1.0.0\Libraries\STM32F0xx_StdPeriph_Driver\src/stm32f0xx_rcc.c ****          (#) The clock for all peripherals is switched off, except the SRAM and FLASH.
  24:..\..\STM32F0-Discovery_FW_V1.0.0\Libraries\STM32F0xx_StdPeriph_Driver\src/stm32f0xx_rcc.c ****          (#) All GPIOs are in input floating state, except the SWD pins which
  25:..\..\STM32F0-Discovery_FW_V1.0.0\Libraries\STM32F0xx_StdPeriph_Driver\src/stm32f0xx_rcc.c ****              are assigned to be used for debug purpose.
  26:..\..\STM32F0-Discovery_FW_V1.0.0\Libraries\STM32F0xx_StdPeriph_Driver\src/stm32f0xx_rcc.c ****     [..] Once the device started from reset, the user application has to:
  27:..\..\STM32F0-Discovery_FW_V1.0.0\Libraries\STM32F0xx_StdPeriph_Driver\src/stm32f0xx_rcc.c ****          (#) Configure the clock source to be used to drive the System clock
  28:..\..\STM32F0-Discovery_FW_V1.0.0\Libraries\STM32F0xx_StdPeriph_Driver\src/stm32f0xx_rcc.c ****              (if the application needs higher frequency/performance)
  29:..\..\STM32F0-Discovery_FW_V1.0.0\Libraries\STM32F0xx_StdPeriph_Driver\src/stm32f0xx_rcc.c ****          (#) Configure the System clock frequency and Flash settings
  30:..\..\STM32F0-Discovery_FW_V1.0.0\Libraries\STM32F0xx_StdPeriph_Driver\src/stm32f0xx_rcc.c ****          (#) Configure the AHB and APB busses prescalers
  31:..\..\STM32F0-Discovery_FW_V1.0.0\Libraries\STM32F0xx_StdPeriph_Driver\src/stm32f0xx_rcc.c ****          (#) Enable the clock for the peripheral(s) to be used
  32:..\..\STM32F0-Discovery_FW_V1.0.0\Libraries\STM32F0xx_StdPeriph_Driver\src/stm32f0xx_rcc.c ****          (#) Configure the clock source(s) for peripherals which clocks are not
  33:..\..\STM32F0-Discovery_FW_V1.0.0\Libraries\STM32F0xx_StdPeriph_Driver\src/stm32f0xx_rcc.c ****              derived from the System clock (ADC, CEC, I2C, USART, RTC and IWDG)
ARM GAS  C:\Users\Doles\AppData\Local\Temp\ccw5cB6c.s 			page 3


  34:..\..\STM32F0-Discovery_FW_V1.0.0\Libraries\STM32F0xx_StdPeriph_Driver\src/stm32f0xx_rcc.c **** 
  35:..\..\STM32F0-Discovery_FW_V1.0.0\Libraries\STM32F0xx_StdPeriph_Driver\src/stm32f0xx_rcc.c ****  @endverbatim
  36:..\..\STM32F0-Discovery_FW_V1.0.0\Libraries\STM32F0xx_StdPeriph_Driver\src/stm32f0xx_rcc.c ****   
  37:..\..\STM32F0-Discovery_FW_V1.0.0\Libraries\STM32F0xx_StdPeriph_Driver\src/stm32f0xx_rcc.c ****   ******************************************************************************
  38:..\..\STM32F0-Discovery_FW_V1.0.0\Libraries\STM32F0xx_StdPeriph_Driver\src/stm32f0xx_rcc.c ****   * @attention
  39:..\..\STM32F0-Discovery_FW_V1.0.0\Libraries\STM32F0xx_StdPeriph_Driver\src/stm32f0xx_rcc.c ****   *
  40:..\..\STM32F0-Discovery_FW_V1.0.0\Libraries\STM32F0xx_StdPeriph_Driver\src/stm32f0xx_rcc.c ****   * <h2><center>&copy; COPYRIGHT 2012 STMicroelectronics</center></h2>
  41:..\..\STM32F0-Discovery_FW_V1.0.0\Libraries\STM32F0xx_StdPeriph_Driver\src/stm32f0xx_rcc.c ****   *
  42:..\..\STM32F0-Discovery_FW_V1.0.0\Libraries\STM32F0xx_StdPeriph_Driver\src/stm32f0xx_rcc.c ****   * Licensed under MCD-ST Liberty SW License Agreement V2, (the "License");
  43:..\..\STM32F0-Discovery_FW_V1.0.0\Libraries\STM32F0xx_StdPeriph_Driver\src/stm32f0xx_rcc.c ****   * You may not use this file except in compliance with the License.
  44:..\..\STM32F0-Discovery_FW_V1.0.0\Libraries\STM32F0xx_StdPeriph_Driver\src/stm32f0xx_rcc.c ****   * You may obtain a copy of the License at:
  45:..\..\STM32F0-Discovery_FW_V1.0.0\Libraries\STM32F0xx_StdPeriph_Driver\src/stm32f0xx_rcc.c ****   *
  46:..\..\STM32F0-Discovery_FW_V1.0.0\Libraries\STM32F0xx_StdPeriph_Driver\src/stm32f0xx_rcc.c ****   *        http://www.st.com/software_license_agreement_liberty_v2
  47:..\..\STM32F0-Discovery_FW_V1.0.0\Libraries\STM32F0xx_StdPeriph_Driver\src/stm32f0xx_rcc.c ****   *
  48:..\..\STM32F0-Discovery_FW_V1.0.0\Libraries\STM32F0xx_StdPeriph_Driver\src/stm32f0xx_rcc.c ****   * Unless required by applicable law or agreed to in writing, software 
  49:..\..\STM32F0-Discovery_FW_V1.0.0\Libraries\STM32F0xx_StdPeriph_Driver\src/stm32f0xx_rcc.c ****   * distributed under the License is distributed on an "AS IS" BASIS, 
  50:..\..\STM32F0-Discovery_FW_V1.0.0\Libraries\STM32F0xx_StdPeriph_Driver\src/stm32f0xx_rcc.c ****   * WITHOUT WARRANTIES OR CONDITIONS OF ANY KIND, either express or implied.
  51:..\..\STM32F0-Discovery_FW_V1.0.0\Libraries\STM32F0xx_StdPeriph_Driver\src/stm32f0xx_rcc.c ****   * See the License for the specific language governing permissions and
  52:..\..\STM32F0-Discovery_FW_V1.0.0\Libraries\STM32F0xx_StdPeriph_Driver\src/stm32f0xx_rcc.c ****   * limitations under the License.
  53:..\..\STM32F0-Discovery_FW_V1.0.0\Libraries\STM32F0xx_StdPeriph_Driver\src/stm32f0xx_rcc.c ****   *
  54:..\..\STM32F0-Discovery_FW_V1.0.0\Libraries\STM32F0xx_StdPeriph_Driver\src/stm32f0xx_rcc.c ****   ******************************************************************************
  55:..\..\STM32F0-Discovery_FW_V1.0.0\Libraries\STM32F0xx_StdPeriph_Driver\src/stm32f0xx_rcc.c ****   */
  56:..\..\STM32F0-Discovery_FW_V1.0.0\Libraries\STM32F0xx_StdPeriph_Driver\src/stm32f0xx_rcc.c **** 
  57:..\..\STM32F0-Discovery_FW_V1.0.0\Libraries\STM32F0xx_StdPeriph_Driver\src/stm32f0xx_rcc.c **** /* Includes ------------------------------------------------------------------*/
  58:..\..\STM32F0-Discovery_FW_V1.0.0\Libraries\STM32F0xx_StdPeriph_Driver\src/stm32f0xx_rcc.c **** #include "stm32f0xx_rcc.h"
  59:..\..\STM32F0-Discovery_FW_V1.0.0\Libraries\STM32F0xx_StdPeriph_Driver\src/stm32f0xx_rcc.c **** 
  60:..\..\STM32F0-Discovery_FW_V1.0.0\Libraries\STM32F0xx_StdPeriph_Driver\src/stm32f0xx_rcc.c **** /** @addtogroup STM32F0xx_StdPeriph_Driver
  61:..\..\STM32F0-Discovery_FW_V1.0.0\Libraries\STM32F0xx_StdPeriph_Driver\src/stm32f0xx_rcc.c ****   * @{
  62:..\..\STM32F0-Discovery_FW_V1.0.0\Libraries\STM32F0xx_StdPeriph_Driver\src/stm32f0xx_rcc.c ****   */
  63:..\..\STM32F0-Discovery_FW_V1.0.0\Libraries\STM32F0xx_StdPeriph_Driver\src/stm32f0xx_rcc.c **** 
  64:..\..\STM32F0-Discovery_FW_V1.0.0\Libraries\STM32F0xx_StdPeriph_Driver\src/stm32f0xx_rcc.c **** /** @defgroup RCC 
  65:..\..\STM32F0-Discovery_FW_V1.0.0\Libraries\STM32F0xx_StdPeriph_Driver\src/stm32f0xx_rcc.c ****   * @brief RCC driver modules
  66:..\..\STM32F0-Discovery_FW_V1.0.0\Libraries\STM32F0xx_StdPeriph_Driver\src/stm32f0xx_rcc.c ****   * @{
  67:..\..\STM32F0-Discovery_FW_V1.0.0\Libraries\STM32F0xx_StdPeriph_Driver\src/stm32f0xx_rcc.c ****   */ 
  68:..\..\STM32F0-Discovery_FW_V1.0.0\Libraries\STM32F0xx_StdPeriph_Driver\src/stm32f0xx_rcc.c **** 
  69:..\..\STM32F0-Discovery_FW_V1.0.0\Libraries\STM32F0xx_StdPeriph_Driver\src/stm32f0xx_rcc.c **** /* Private typedef -----------------------------------------------------------*/
  70:..\..\STM32F0-Discovery_FW_V1.0.0\Libraries\STM32F0xx_StdPeriph_Driver\src/stm32f0xx_rcc.c **** /* Private define ------------------------------------------------------------*/
  71:..\..\STM32F0-Discovery_FW_V1.0.0\Libraries\STM32F0xx_StdPeriph_Driver\src/stm32f0xx_rcc.c **** 
  72:..\..\STM32F0-Discovery_FW_V1.0.0\Libraries\STM32F0xx_StdPeriph_Driver\src/stm32f0xx_rcc.c **** /* ---------------------- RCC registers mask -------------------------------- */
  73:..\..\STM32F0-Discovery_FW_V1.0.0\Libraries\STM32F0xx_StdPeriph_Driver\src/stm32f0xx_rcc.c **** /* RCC Flag Mask */
  74:..\..\STM32F0-Discovery_FW_V1.0.0\Libraries\STM32F0xx_StdPeriph_Driver\src/stm32f0xx_rcc.c **** #define FLAG_MASK                 ((uint8_t)0x1F)
  75:..\..\STM32F0-Discovery_FW_V1.0.0\Libraries\STM32F0xx_StdPeriph_Driver\src/stm32f0xx_rcc.c **** 
  76:..\..\STM32F0-Discovery_FW_V1.0.0\Libraries\STM32F0xx_StdPeriph_Driver\src/stm32f0xx_rcc.c **** /* CR register byte 2 (Bits[23:16]) base address */
  77:..\..\STM32F0-Discovery_FW_V1.0.0\Libraries\STM32F0xx_StdPeriph_Driver\src/stm32f0xx_rcc.c **** #define CR_BYTE2_ADDRESS          ((uint32_t)0x40021002)
  78:..\..\STM32F0-Discovery_FW_V1.0.0\Libraries\STM32F0xx_StdPeriph_Driver\src/stm32f0xx_rcc.c **** 
  79:..\..\STM32F0-Discovery_FW_V1.0.0\Libraries\STM32F0xx_StdPeriph_Driver\src/stm32f0xx_rcc.c **** /* CFGR register byte 3 (Bits[31:23]) base address */
  80:..\..\STM32F0-Discovery_FW_V1.0.0\Libraries\STM32F0xx_StdPeriph_Driver\src/stm32f0xx_rcc.c **** #define CFGR_BYTE3_ADDRESS        ((uint32_t)0x40021007)
  81:..\..\STM32F0-Discovery_FW_V1.0.0\Libraries\STM32F0xx_StdPeriph_Driver\src/stm32f0xx_rcc.c **** 
  82:..\..\STM32F0-Discovery_FW_V1.0.0\Libraries\STM32F0xx_StdPeriph_Driver\src/stm32f0xx_rcc.c **** /* CIR register byte 1 (Bits[15:8]) base address */
  83:..\..\STM32F0-Discovery_FW_V1.0.0\Libraries\STM32F0xx_StdPeriph_Driver\src/stm32f0xx_rcc.c **** #define CIR_BYTE1_ADDRESS         ((uint32_t)0x40021009)
  84:..\..\STM32F0-Discovery_FW_V1.0.0\Libraries\STM32F0xx_StdPeriph_Driver\src/stm32f0xx_rcc.c **** 
  85:..\..\STM32F0-Discovery_FW_V1.0.0\Libraries\STM32F0xx_StdPeriph_Driver\src/stm32f0xx_rcc.c **** /* CIR register byte 2 (Bits[23:16]) base address */
  86:..\..\STM32F0-Discovery_FW_V1.0.0\Libraries\STM32F0xx_StdPeriph_Driver\src/stm32f0xx_rcc.c **** #define CIR_BYTE2_ADDRESS         ((uint32_t)0x4002100A)
  87:..\..\STM32F0-Discovery_FW_V1.0.0\Libraries\STM32F0xx_StdPeriph_Driver\src/stm32f0xx_rcc.c **** 
  88:..\..\STM32F0-Discovery_FW_V1.0.0\Libraries\STM32F0xx_StdPeriph_Driver\src/stm32f0xx_rcc.c **** /* Private macro -------------------------------------------------------------*/
  89:..\..\STM32F0-Discovery_FW_V1.0.0\Libraries\STM32F0xx_StdPeriph_Driver\src/stm32f0xx_rcc.c **** /* Private variables ---------------------------------------------------------*/
  90:..\..\STM32F0-Discovery_FW_V1.0.0\Libraries\STM32F0xx_StdPeriph_Driver\src/stm32f0xx_rcc.c **** static __I uint8_t APBAHBPrescTable[16] = {0, 0, 0, 0, 1, 2, 3, 4, 1, 2, 3, 4, 6, 7, 8, 9};
ARM GAS  C:\Users\Doles\AppData\Local\Temp\ccw5cB6c.s 			page 4


  91:..\..\STM32F0-Discovery_FW_V1.0.0\Libraries\STM32F0xx_StdPeriph_Driver\src/stm32f0xx_rcc.c **** 
  92:..\..\STM32F0-Discovery_FW_V1.0.0\Libraries\STM32F0xx_StdPeriph_Driver\src/stm32f0xx_rcc.c **** /* Private function prototypes -----------------------------------------------*/
  93:..\..\STM32F0-Discovery_FW_V1.0.0\Libraries\STM32F0xx_StdPeriph_Driver\src/stm32f0xx_rcc.c **** /* Private functions ---------------------------------------------------------*/
  94:..\..\STM32F0-Discovery_FW_V1.0.0\Libraries\STM32F0xx_StdPeriph_Driver\src/stm32f0xx_rcc.c **** 
  95:..\..\STM32F0-Discovery_FW_V1.0.0\Libraries\STM32F0xx_StdPeriph_Driver\src/stm32f0xx_rcc.c **** /** @defgroup RCC_Private_Functions
  96:..\..\STM32F0-Discovery_FW_V1.0.0\Libraries\STM32F0xx_StdPeriph_Driver\src/stm32f0xx_rcc.c ****   * @{
  97:..\..\STM32F0-Discovery_FW_V1.0.0\Libraries\STM32F0xx_StdPeriph_Driver\src/stm32f0xx_rcc.c ****   */
  98:..\..\STM32F0-Discovery_FW_V1.0.0\Libraries\STM32F0xx_StdPeriph_Driver\src/stm32f0xx_rcc.c **** 
  99:..\..\STM32F0-Discovery_FW_V1.0.0\Libraries\STM32F0xx_StdPeriph_Driver\src/stm32f0xx_rcc.c **** /** @defgroup RCC_Group1 Internal and external clocks, PLL, CSS and MCO configuration functions
 100:..\..\STM32F0-Discovery_FW_V1.0.0\Libraries\STM32F0xx_StdPeriph_Driver\src/stm32f0xx_rcc.c ****  *  @brief   Internal and external clocks, PLL, CSS and MCO configuration functions 
 101:..\..\STM32F0-Discovery_FW_V1.0.0\Libraries\STM32F0xx_StdPeriph_Driver\src/stm32f0xx_rcc.c ****  *
 102:..\..\STM32F0-Discovery_FW_V1.0.0\Libraries\STM32F0xx_StdPeriph_Driver\src/stm32f0xx_rcc.c **** @verbatim
 103:..\..\STM32F0-Discovery_FW_V1.0.0\Libraries\STM32F0xx_StdPeriph_Driver\src/stm32f0xx_rcc.c ****  ===============================================================================
 104:..\..\STM32F0-Discovery_FW_V1.0.0\Libraries\STM32F0xx_StdPeriph_Driver\src/stm32f0xx_rcc.c ****  ##### Internal-external clocks, PLL, CSS and MCO configuration functions #####
 105:..\..\STM32F0-Discovery_FW_V1.0.0\Libraries\STM32F0xx_StdPeriph_Driver\src/stm32f0xx_rcc.c ****  ===============================================================================
 106:..\..\STM32F0-Discovery_FW_V1.0.0\Libraries\STM32F0xx_StdPeriph_Driver\src/stm32f0xx_rcc.c ****     [..] This section provides functions allowing to configure the internal/external clocks,
 107:..\..\STM32F0-Discovery_FW_V1.0.0\Libraries\STM32F0xx_StdPeriph_Driver\src/stm32f0xx_rcc.c ****          PLL, CSS and MCO.
 108:..\..\STM32F0-Discovery_FW_V1.0.0\Libraries\STM32F0xx_StdPeriph_Driver\src/stm32f0xx_rcc.c ****          (#) HSI (high-speed internal), 8 MHz factory-trimmed RC used directly 
 109:..\..\STM32F0-Discovery_FW_V1.0.0\Libraries\STM32F0xx_StdPeriph_Driver\src/stm32f0xx_rcc.c ****              or through the PLL as System clock source.
 110:..\..\STM32F0-Discovery_FW_V1.0.0\Libraries\STM32F0xx_StdPeriph_Driver\src/stm32f0xx_rcc.c ****              The HSI clock can be used also to clock the USART, I2C and CEC peripherals.
 111:..\..\STM32F0-Discovery_FW_V1.0.0\Libraries\STM32F0xx_StdPeriph_Driver\src/stm32f0xx_rcc.c ****          (#) HSI14 (high-speed internal for ADC), 14 MHz factory-trimmed RC used to clock
 112:..\..\STM32F0-Discovery_FW_V1.0.0\Libraries\STM32F0xx_StdPeriph_Driver\src/stm32f0xx_rcc.c ****              the ADC peripheral.
 113:..\..\STM32F0-Discovery_FW_V1.0.0\Libraries\STM32F0xx_StdPeriph_Driver\src/stm32f0xx_rcc.c ****          (#) LSI (low-speed internal), 40 KHz low consumption RC used as IWDG and/or RTC
 114:..\..\STM32F0-Discovery_FW_V1.0.0\Libraries\STM32F0xx_StdPeriph_Driver\src/stm32f0xx_rcc.c ****              clock source.
 115:..\..\STM32F0-Discovery_FW_V1.0.0\Libraries\STM32F0xx_StdPeriph_Driver\src/stm32f0xx_rcc.c ****          (#) HSE (high-speed external), 4 to 32 MHz crystal oscillator used directly or
 116:..\..\STM32F0-Discovery_FW_V1.0.0\Libraries\STM32F0xx_StdPeriph_Driver\src/stm32f0xx_rcc.c ****              through the PLL as System clock source. Can be used also as RTC clock source.
 117:..\..\STM32F0-Discovery_FW_V1.0.0\Libraries\STM32F0xx_StdPeriph_Driver\src/stm32f0xx_rcc.c ****          (#) LSE (low-speed external), 32 KHz oscillator used as RTC clock source. 
 118:..\..\STM32F0-Discovery_FW_V1.0.0\Libraries\STM32F0xx_StdPeriph_Driver\src/stm32f0xx_rcc.c ****              LSE can be used also to clock the USART and CEC peripherals.   
 119:..\..\STM32F0-Discovery_FW_V1.0.0\Libraries\STM32F0xx_StdPeriph_Driver\src/stm32f0xx_rcc.c ****          (#) PLL (clocked by HSI or HSE), for System clock.
 120:..\..\STM32F0-Discovery_FW_V1.0.0\Libraries\STM32F0xx_StdPeriph_Driver\src/stm32f0xx_rcc.c ****          (#) CSS (Clock security system), once enabled and if a HSE clock failure occurs 
 121:..\..\STM32F0-Discovery_FW_V1.0.0\Libraries\STM32F0xx_StdPeriph_Driver\src/stm32f0xx_rcc.c ****              (HSE used directly or through PLL as System clock source), the System clock
 122:..\..\STM32F0-Discovery_FW_V1.0.0\Libraries\STM32F0xx_StdPeriph_Driver\src/stm32f0xx_rcc.c ****              is automatically switched to HSI and an interrupt is generated if enabled. 
 123:..\..\STM32F0-Discovery_FW_V1.0.0\Libraries\STM32F0xx_StdPeriph_Driver\src/stm32f0xx_rcc.c ****              The interrupt is linked to the Cortex-M0 NMI (Non-Maskable Interrupt) 
 124:..\..\STM32F0-Discovery_FW_V1.0.0\Libraries\STM32F0xx_StdPeriph_Driver\src/stm32f0xx_rcc.c ****              exception vector.   
 125:..\..\STM32F0-Discovery_FW_V1.0.0\Libraries\STM32F0xx_StdPeriph_Driver\src/stm32f0xx_rcc.c ****          (#) MCO (microcontroller clock output), used to output SYSCLK, HSI, HSI14, LSI,
 126:..\..\STM32F0-Discovery_FW_V1.0.0\Libraries\STM32F0xx_StdPeriph_Driver\src/stm32f0xx_rcc.c ****              HSE, LSE or PLL (divided by 2) clock on PA8 pin.
 127:..\..\STM32F0-Discovery_FW_V1.0.0\Libraries\STM32F0xx_StdPeriph_Driver\src/stm32f0xx_rcc.c **** 
 128:..\..\STM32F0-Discovery_FW_V1.0.0\Libraries\STM32F0xx_StdPeriph_Driver\src/stm32f0xx_rcc.c **** @endverbatim
 129:..\..\STM32F0-Discovery_FW_V1.0.0\Libraries\STM32F0xx_StdPeriph_Driver\src/stm32f0xx_rcc.c ****   * @{
 130:..\..\STM32F0-Discovery_FW_V1.0.0\Libraries\STM32F0xx_StdPeriph_Driver\src/stm32f0xx_rcc.c ****   */
 131:..\..\STM32F0-Discovery_FW_V1.0.0\Libraries\STM32F0xx_StdPeriph_Driver\src/stm32f0xx_rcc.c **** 
 132:..\..\STM32F0-Discovery_FW_V1.0.0\Libraries\STM32F0xx_StdPeriph_Driver\src/stm32f0xx_rcc.c **** /**
 133:..\..\STM32F0-Discovery_FW_V1.0.0\Libraries\STM32F0xx_StdPeriph_Driver\src/stm32f0xx_rcc.c ****   * @brief  Resets the RCC clock configuration to the default reset state.
 134:..\..\STM32F0-Discovery_FW_V1.0.0\Libraries\STM32F0xx_StdPeriph_Driver\src/stm32f0xx_rcc.c ****   * @note   The default reset state of the clock configuration is given below:
 135:..\..\STM32F0-Discovery_FW_V1.0.0\Libraries\STM32F0xx_StdPeriph_Driver\src/stm32f0xx_rcc.c ****   * @note      HSI ON and used as system clock source 
 136:..\..\STM32F0-Discovery_FW_V1.0.0\Libraries\STM32F0xx_StdPeriph_Driver\src/stm32f0xx_rcc.c ****   * @note      HSI14, HSE and PLL OFF
 137:..\..\STM32F0-Discovery_FW_V1.0.0\Libraries\STM32F0xx_StdPeriph_Driver\src/stm32f0xx_rcc.c ****   * @note      AHB, APB prescaler set to 1.
 138:..\..\STM32F0-Discovery_FW_V1.0.0\Libraries\STM32F0xx_StdPeriph_Driver\src/stm32f0xx_rcc.c ****   * @note      CSS and MCO OFF
 139:..\..\STM32F0-Discovery_FW_V1.0.0\Libraries\STM32F0xx_StdPeriph_Driver\src/stm32f0xx_rcc.c ****   * @note      All interrupts disabled
 140:..\..\STM32F0-Discovery_FW_V1.0.0\Libraries\STM32F0xx_StdPeriph_Driver\src/stm32f0xx_rcc.c ****   * @note   However, this function doesn't modify the configuration of the
 141:..\..\STM32F0-Discovery_FW_V1.0.0\Libraries\STM32F0xx_StdPeriph_Driver\src/stm32f0xx_rcc.c ****   * @note      Peripheral clocks
 142:..\..\STM32F0-Discovery_FW_V1.0.0\Libraries\STM32F0xx_StdPeriph_Driver\src/stm32f0xx_rcc.c ****   * @note      LSI, LSE and RTC clocks
 143:..\..\STM32F0-Discovery_FW_V1.0.0\Libraries\STM32F0xx_StdPeriph_Driver\src/stm32f0xx_rcc.c ****   * @param  None
 144:..\..\STM32F0-Discovery_FW_V1.0.0\Libraries\STM32F0xx_StdPeriph_Driver\src/stm32f0xx_rcc.c ****   * @retval None
 145:..\..\STM32F0-Discovery_FW_V1.0.0\Libraries\STM32F0xx_StdPeriph_Driver\src/stm32f0xx_rcc.c ****   */
 146:..\..\STM32F0-Discovery_FW_V1.0.0\Libraries\STM32F0xx_StdPeriph_Driver\src/stm32f0xx_rcc.c **** void RCC_DeInit(void)
 147:..\..\STM32F0-Discovery_FW_V1.0.0\Libraries\STM32F0xx_StdPeriph_Driver\src/stm32f0xx_rcc.c **** {
ARM GAS  C:\Users\Doles\AppData\Local\Temp\ccw5cB6c.s 			page 5


  82              		.loc 1 147 0
  83              		.cfi_startproc
 148:..\..\STM32F0-Discovery_FW_V1.0.0\Libraries\STM32F0xx_StdPeriph_Driver\src/stm32f0xx_rcc.c ****   /* Set HSION bit */
 149:..\..\STM32F0-Discovery_FW_V1.0.0\Libraries\STM32F0xx_StdPeriph_Driver\src/stm32f0xx_rcc.c ****   RCC->CR |= (uint32_t)0x00000001;
  84              		.loc 1 149 0
  85 0000 0121     		mov	r1, #1	@ tmp127,
  86 0002 114B     		ldr	r3, .L2	@ tmp126,
 150:..\..\STM32F0-Discovery_FW_V1.0.0\Libraries\STM32F0xx_StdPeriph_Driver\src/stm32f0xx_rcc.c **** 
 151:..\..\STM32F0-Discovery_FW_V1.0.0\Libraries\STM32F0xx_StdPeriph_Driver\src/stm32f0xx_rcc.c ****   /* Reset SW[1:0], HPRE[3:0], PPRE[2:0], ADCPRE and MCOSEL[2:0] bits */
 152:..\..\STM32F0-Discovery_FW_V1.0.0\Libraries\STM32F0xx_StdPeriph_Driver\src/stm32f0xx_rcc.c ****   RCC->CFGR &= (uint32_t)0xF8FFB80C;
 153:..\..\STM32F0-Discovery_FW_V1.0.0\Libraries\STM32F0xx_StdPeriph_Driver\src/stm32f0xx_rcc.c ****   
 154:..\..\STM32F0-Discovery_FW_V1.0.0\Libraries\STM32F0xx_StdPeriph_Driver\src/stm32f0xx_rcc.c ****   /* Reset HSEON, CSSON and PLLON bits */
 155:..\..\STM32F0-Discovery_FW_V1.0.0\Libraries\STM32F0xx_StdPeriph_Driver\src/stm32f0xx_rcc.c ****   RCC->CR &= (uint32_t)0xFEF6FFFF;
 156:..\..\STM32F0-Discovery_FW_V1.0.0\Libraries\STM32F0xx_StdPeriph_Driver\src/stm32f0xx_rcc.c **** 
 157:..\..\STM32F0-Discovery_FW_V1.0.0\Libraries\STM32F0xx_StdPeriph_Driver\src/stm32f0xx_rcc.c ****   /* Reset HSEBYP bit */
 158:..\..\STM32F0-Discovery_FW_V1.0.0\Libraries\STM32F0xx_StdPeriph_Driver\src/stm32f0xx_rcc.c ****   RCC->CR &= (uint32_t)0xFFFBFFFF;
 159:..\..\STM32F0-Discovery_FW_V1.0.0\Libraries\STM32F0xx_StdPeriph_Driver\src/stm32f0xx_rcc.c **** 
 160:..\..\STM32F0-Discovery_FW_V1.0.0\Libraries\STM32F0xx_StdPeriph_Driver\src/stm32f0xx_rcc.c ****   /* Reset PLLSRC, PLLXTPRE and PLLMUL[3:0] bits */
 161:..\..\STM32F0-Discovery_FW_V1.0.0\Libraries\STM32F0xx_StdPeriph_Driver\src/stm32f0xx_rcc.c ****   RCC->CFGR &= (uint32_t)0xFFC0FFFF;
 162:..\..\STM32F0-Discovery_FW_V1.0.0\Libraries\STM32F0xx_StdPeriph_Driver\src/stm32f0xx_rcc.c **** 
 163:..\..\STM32F0-Discovery_FW_V1.0.0\Libraries\STM32F0xx_StdPeriph_Driver\src/stm32f0xx_rcc.c ****   /* Reset PREDIV1[3:0] bits */
 164:..\..\STM32F0-Discovery_FW_V1.0.0\Libraries\STM32F0xx_StdPeriph_Driver\src/stm32f0xx_rcc.c ****   RCC->CFGR2 &= (uint32_t)0xFFFFFFF0;
 165:..\..\STM32F0-Discovery_FW_V1.0.0\Libraries\STM32F0xx_StdPeriph_Driver\src/stm32f0xx_rcc.c **** 
 166:..\..\STM32F0-Discovery_FW_V1.0.0\Libraries\STM32F0xx_StdPeriph_Driver\src/stm32f0xx_rcc.c ****   /* Reset USARTSW[1:0], I2CSW, CECSW and ADCSW bits */
 167:..\..\STM32F0-Discovery_FW_V1.0.0\Libraries\STM32F0xx_StdPeriph_Driver\src/stm32f0xx_rcc.c ****   RCC->CFGR3 &= (uint32_t)0xFFFFFEAC;
 168:..\..\STM32F0-Discovery_FW_V1.0.0\Libraries\STM32F0xx_StdPeriph_Driver\src/stm32f0xx_rcc.c ****   
 169:..\..\STM32F0-Discovery_FW_V1.0.0\Libraries\STM32F0xx_StdPeriph_Driver\src/stm32f0xx_rcc.c ****   /* Reset HSI14 bit */
 170:..\..\STM32F0-Discovery_FW_V1.0.0\Libraries\STM32F0xx_StdPeriph_Driver\src/stm32f0xx_rcc.c ****   RCC->CR2 &= (uint32_t)0xFFFFFFFE;
 171:..\..\STM32F0-Discovery_FW_V1.0.0\Libraries\STM32F0xx_StdPeriph_Driver\src/stm32f0xx_rcc.c **** 
 172:..\..\STM32F0-Discovery_FW_V1.0.0\Libraries\STM32F0xx_StdPeriph_Driver\src/stm32f0xx_rcc.c ****   /* Disable all interrupts */
 173:..\..\STM32F0-Discovery_FW_V1.0.0\Libraries\STM32F0xx_StdPeriph_Driver\src/stm32f0xx_rcc.c ****   RCC->CIR = 0x00000000;
 174:..\..\STM32F0-Discovery_FW_V1.0.0\Libraries\STM32F0xx_StdPeriph_Driver\src/stm32f0xx_rcc.c **** }
  87              		.loc 1 174 0
  88              		@ sp needed	@
 149:..\..\STM32F0-Discovery_FW_V1.0.0\Libraries\STM32F0xx_StdPeriph_Driver\src/stm32f0xx_rcc.c **** 
  89              		.loc 1 149 0
  90 0004 1A68     		ldr	r2, [r3]	@ D.5347, MEM[(struct RCC_TypeDef *)1073876992B].CR
  91 0006 0A43     		orr	r2, r1	@ D.5347, tmp127
  92 0008 1A60     		str	r2, [r3]	@ D.5347, MEM[(struct RCC_TypeDef *)1073876992B].CR
 152:..\..\STM32F0-Discovery_FW_V1.0.0\Libraries\STM32F0xx_StdPeriph_Driver\src/stm32f0xx_rcc.c ****   
  93              		.loc 1 152 0
  94 000a 5868     		ldr	r0, [r3, #4]	@ D.5347, MEM[(struct RCC_TypeDef *)1073876992B].CFGR
  95 000c 0F4A     		ldr	r2, .L2+4	@ tmp130,
  96 000e 0240     		and	r2, r0	@ D.5347, D.5347
  97 0010 5A60     		str	r2, [r3, #4]	@ D.5347, MEM[(struct RCC_TypeDef *)1073876992B].CFGR
 155:..\..\STM32F0-Discovery_FW_V1.0.0\Libraries\STM32F0xx_StdPeriph_Driver\src/stm32f0xx_rcc.c **** 
  98              		.loc 1 155 0
  99 0012 1868     		ldr	r0, [r3]	@ D.5347, MEM[(struct RCC_TypeDef *)1073876992B].CR
 100 0014 0E4A     		ldr	r2, .L2+8	@ tmp133,
 101 0016 0240     		and	r2, r0	@ D.5347, D.5347
 102 0018 1A60     		str	r2, [r3]	@ D.5347, MEM[(struct RCC_TypeDef *)1073876992B].CR
 158:..\..\STM32F0-Discovery_FW_V1.0.0\Libraries\STM32F0xx_StdPeriph_Driver\src/stm32f0xx_rcc.c **** 
 103              		.loc 1 158 0
 104 001a 1868     		ldr	r0, [r3]	@ D.5347, MEM[(struct RCC_TypeDef *)1073876992B].CR
 105 001c 0D4A     		ldr	r2, .L2+12	@ tmp136,
 106 001e 0240     		and	r2, r0	@ D.5347, D.5347
 107 0020 1A60     		str	r2, [r3]	@ D.5347, MEM[(struct RCC_TypeDef *)1073876992B].CR
ARM GAS  C:\Users\Doles\AppData\Local\Temp\ccw5cB6c.s 			page 6


 161:..\..\STM32F0-Discovery_FW_V1.0.0\Libraries\STM32F0xx_StdPeriph_Driver\src/stm32f0xx_rcc.c **** 
 108              		.loc 1 161 0
 109 0022 5868     		ldr	r0, [r3, #4]	@ D.5347, MEM[(struct RCC_TypeDef *)1073876992B].CFGR
 110 0024 0C4A     		ldr	r2, .L2+16	@ tmp139,
 111 0026 0240     		and	r2, r0	@ D.5347, D.5347
 164:..\..\STM32F0-Discovery_FW_V1.0.0\Libraries\STM32F0xx_StdPeriph_Driver\src/stm32f0xx_rcc.c **** 
 112              		.loc 1 164 0
 113 0028 0F20     		mov	r0, #15	@ tmp142,
 161:..\..\STM32F0-Discovery_FW_V1.0.0\Libraries\STM32F0xx_StdPeriph_Driver\src/stm32f0xx_rcc.c **** 
 114              		.loc 1 161 0
 115 002a 5A60     		str	r2, [r3, #4]	@ D.5347, MEM[(struct RCC_TypeDef *)1073876992B].CFGR
 164:..\..\STM32F0-Discovery_FW_V1.0.0\Libraries\STM32F0xx_StdPeriph_Driver\src/stm32f0xx_rcc.c **** 
 116              		.loc 1 164 0
 117 002c DA6A     		ldr	r2, [r3, #44]	@ D.5347, MEM[(struct RCC_TypeDef *)1073876992B].CFGR2
 118 002e 8243     		bic	r2, r0	@ D.5347, tmp142
 119 0030 DA62     		str	r2, [r3, #44]	@ D.5347, MEM[(struct RCC_TypeDef *)1073876992B].CFGR2
 167:..\..\STM32F0-Discovery_FW_V1.0.0\Libraries\STM32F0xx_StdPeriph_Driver\src/stm32f0xx_rcc.c ****   
 120              		.loc 1 167 0
 121 0032 186B     		ldr	r0, [r3, #48]	@ D.5347, MEM[(struct RCC_TypeDef *)1073876992B].CFGR3
 122 0034 094A     		ldr	r2, .L2+20	@ tmp145,
 123 0036 0240     		and	r2, r0	@ D.5347, D.5347
 124 0038 1A63     		str	r2, [r3, #48]	@ D.5347, MEM[(struct RCC_TypeDef *)1073876992B].CFGR3
 170:..\..\STM32F0-Discovery_FW_V1.0.0\Libraries\STM32F0xx_StdPeriph_Driver\src/stm32f0xx_rcc.c **** 
 125              		.loc 1 170 0
 126 003a 5A6B     		ldr	r2, [r3, #52]	@ D.5347, MEM[(struct RCC_TypeDef *)1073876992B].CR2
 127 003c 8A43     		bic	r2, r1	@ D.5347, tmp127
 128 003e 5A63     		str	r2, [r3, #52]	@ D.5347, MEM[(struct RCC_TypeDef *)1073876992B].CR2
 173:..\..\STM32F0-Discovery_FW_V1.0.0\Libraries\STM32F0xx_StdPeriph_Driver\src/stm32f0xx_rcc.c **** }
 129              		.loc 1 173 0
 130 0040 0022     		mov	r2, #0	@ tmp151,
 131 0042 9A60     		str	r2, [r3, #8]	@ tmp151, MEM[(struct RCC_TypeDef *)1073876992B].CIR
 132              		.loc 1 174 0
 133 0044 7047     		bx	lr
 134              	.L3:
 135 0046 C046     		.align	2
 136              	.L2:
 137 0048 00100240 		.word	1073876992
 138 004c 0CB8FFF8 		.word	-117458932
 139 0050 FFFFF6FE 		.word	-17367041
 140 0054 FFFFFBFF 		.word	-262145
 141 0058 FFFFC0FF 		.word	-4128769
 142 005c ACFEFFFF 		.word	-340
 143              		.cfi_endproc
 144              	.LFE32:
 145              		.size	RCC_DeInit, .-RCC_DeInit
 146              		.align	1
 147              		.global	RCC_HSEConfig
 148              		.code	16
 149              		.thumb_func
 150              		.type	RCC_HSEConfig, %function
 151              	RCC_HSEConfig:
 152              	.LFB33:
 175:..\..\STM32F0-Discovery_FW_V1.0.0\Libraries\STM32F0xx_StdPeriph_Driver\src/stm32f0xx_rcc.c **** 
 176:..\..\STM32F0-Discovery_FW_V1.0.0\Libraries\STM32F0xx_StdPeriph_Driver\src/stm32f0xx_rcc.c **** /**
 177:..\..\STM32F0-Discovery_FW_V1.0.0\Libraries\STM32F0xx_StdPeriph_Driver\src/stm32f0xx_rcc.c ****   * @brief  Configures the External High Speed oscillator (HSE).
 178:..\..\STM32F0-Discovery_FW_V1.0.0\Libraries\STM32F0xx_StdPeriph_Driver\src/stm32f0xx_rcc.c ****   * @note   After enabling the HSE (RCC_HSE_ON or RCC_HSE_Bypass), the application
 179:..\..\STM32F0-Discovery_FW_V1.0.0\Libraries\STM32F0xx_StdPeriph_Driver\src/stm32f0xx_rcc.c ****   *           software should wait on HSERDY flag to be set indicating that HSE clock
ARM GAS  C:\Users\Doles\AppData\Local\Temp\ccw5cB6c.s 			page 7


 180:..\..\STM32F0-Discovery_FW_V1.0.0\Libraries\STM32F0xx_StdPeriph_Driver\src/stm32f0xx_rcc.c ****   *           is stable and can be used to clock the PLL and/or system clock.
 181:..\..\STM32F0-Discovery_FW_V1.0.0\Libraries\STM32F0xx_StdPeriph_Driver\src/stm32f0xx_rcc.c ****   *  @note    HSE state can not be changed if it is used directly or through the
 182:..\..\STM32F0-Discovery_FW_V1.0.0\Libraries\STM32F0xx_StdPeriph_Driver\src/stm32f0xx_rcc.c ****   *           PLL as system clock. In this case, you have to select another source
 183:..\..\STM32F0-Discovery_FW_V1.0.0\Libraries\STM32F0xx_StdPeriph_Driver\src/stm32f0xx_rcc.c ****   *           of the system clock then change the HSE state (ex. disable it).
 184:..\..\STM32F0-Discovery_FW_V1.0.0\Libraries\STM32F0xx_StdPeriph_Driver\src/stm32f0xx_rcc.c ****   *  @note    The HSE is stopped by hardware when entering STOP and STANDBY modes.
 185:..\..\STM32F0-Discovery_FW_V1.0.0\Libraries\STM32F0xx_StdPeriph_Driver\src/stm32f0xx_rcc.c ****   * @note   This function resets the CSSON bit, so if the Clock security system(CSS)
 186:..\..\STM32F0-Discovery_FW_V1.0.0\Libraries\STM32F0xx_StdPeriph_Driver\src/stm32f0xx_rcc.c ****   *         was previously enabled you have to enable it again after calling this
 187:..\..\STM32F0-Discovery_FW_V1.0.0\Libraries\STM32F0xx_StdPeriph_Driver\src/stm32f0xx_rcc.c ****   *         function.
 188:..\..\STM32F0-Discovery_FW_V1.0.0\Libraries\STM32F0xx_StdPeriph_Driver\src/stm32f0xx_rcc.c ****   * @param RCC_HSE: specifies the new state of the HSE.
 189:..\..\STM32F0-Discovery_FW_V1.0.0\Libraries\STM32F0xx_StdPeriph_Driver\src/stm32f0xx_rcc.c ****   *   This parameter can be one of the following values:
 190:..\..\STM32F0-Discovery_FW_V1.0.0\Libraries\STM32F0xx_StdPeriph_Driver\src/stm32f0xx_rcc.c ****   *     @arg RCC_HSE_OFF: turn OFF the HSE oscillator, HSERDY flag goes low after
 191:..\..\STM32F0-Discovery_FW_V1.0.0\Libraries\STM32F0xx_StdPeriph_Driver\src/stm32f0xx_rcc.c ****   *                       6 HSE oscillator clock cycles.
 192:..\..\STM32F0-Discovery_FW_V1.0.0\Libraries\STM32F0xx_StdPeriph_Driver\src/stm32f0xx_rcc.c ****   *     @arg RCC_HSE_ON: turn ON the HSE oscillator
 193:..\..\STM32F0-Discovery_FW_V1.0.0\Libraries\STM32F0xx_StdPeriph_Driver\src/stm32f0xx_rcc.c ****   *     @arg RCC_HSE_Bypass: HSE oscillator bypassed with external clock
 194:..\..\STM32F0-Discovery_FW_V1.0.0\Libraries\STM32F0xx_StdPeriph_Driver\src/stm32f0xx_rcc.c ****   * @retval None
 195:..\..\STM32F0-Discovery_FW_V1.0.0\Libraries\STM32F0xx_StdPeriph_Driver\src/stm32f0xx_rcc.c ****   */
 196:..\..\STM32F0-Discovery_FW_V1.0.0\Libraries\STM32F0xx_StdPeriph_Driver\src/stm32f0xx_rcc.c **** void RCC_HSEConfig(uint8_t RCC_HSE)
 197:..\..\STM32F0-Discovery_FW_V1.0.0\Libraries\STM32F0xx_StdPeriph_Driver\src/stm32f0xx_rcc.c **** {
 153              		.loc 1 197 0
 154              		.cfi_startproc
 155              	.LVL0:
 198:..\..\STM32F0-Discovery_FW_V1.0.0\Libraries\STM32F0xx_StdPeriph_Driver\src/stm32f0xx_rcc.c ****   /* Check the parameters */
 199:..\..\STM32F0-Discovery_FW_V1.0.0\Libraries\STM32F0xx_StdPeriph_Driver\src/stm32f0xx_rcc.c ****   assert_param(IS_RCC_HSE(RCC_HSE));
 200:..\..\STM32F0-Discovery_FW_V1.0.0\Libraries\STM32F0xx_StdPeriph_Driver\src/stm32f0xx_rcc.c **** 
 201:..\..\STM32F0-Discovery_FW_V1.0.0\Libraries\STM32F0xx_StdPeriph_Driver\src/stm32f0xx_rcc.c ****   /* Reset HSEON and HSEBYP bits before configuring the HSE ------------------*/
 202:..\..\STM32F0-Discovery_FW_V1.0.0\Libraries\STM32F0xx_StdPeriph_Driver\src/stm32f0xx_rcc.c ****   *(__IO uint8_t *) CR_BYTE2_ADDRESS = RCC_HSE_OFF;
 156              		.loc 1 202 0
 157 0060 0022     		mov	r2, #0	@ tmp112,
 158 0062 024B     		ldr	r3, .L5	@ tmp111,
 203:..\..\STM32F0-Discovery_FW_V1.0.0\Libraries\STM32F0xx_StdPeriph_Driver\src/stm32f0xx_rcc.c **** 
 204:..\..\STM32F0-Discovery_FW_V1.0.0\Libraries\STM32F0xx_StdPeriph_Driver\src/stm32f0xx_rcc.c ****   /* Set the new HSE configuration -------------------------------------------*/
 205:..\..\STM32F0-Discovery_FW_V1.0.0\Libraries\STM32F0xx_StdPeriph_Driver\src/stm32f0xx_rcc.c ****   *(__IO uint8_t *) CR_BYTE2_ADDRESS = RCC_HSE;
 206:..\..\STM32F0-Discovery_FW_V1.0.0\Libraries\STM32F0xx_StdPeriph_Driver\src/stm32f0xx_rcc.c **** 
 207:..\..\STM32F0-Discovery_FW_V1.0.0\Libraries\STM32F0xx_StdPeriph_Driver\src/stm32f0xx_rcc.c **** }
 159              		.loc 1 207 0
 160              		@ sp needed	@
 202:..\..\STM32F0-Discovery_FW_V1.0.0\Libraries\STM32F0xx_StdPeriph_Driver\src/stm32f0xx_rcc.c **** 
 161              		.loc 1 202 0
 162 0064 1A70     		strb	r2, [r3]	@ tmp112, MEM[(volatile uint8_t *)1073876994B]
 205:..\..\STM32F0-Discovery_FW_V1.0.0\Libraries\STM32F0xx_StdPeriph_Driver\src/stm32f0xx_rcc.c **** 
 163              		.loc 1 205 0
 164 0066 1870     		strb	r0, [r3]	@ RCC_HSE, MEM[(volatile uint8_t *)1073876994B]
 165              		.loc 1 207 0
 166 0068 7047     		bx	lr
 167              	.L6:
 168 006a C046     		.align	2
 169              	.L5:
 170 006c 02100240 		.word	1073876994
 171              		.cfi_endproc
 172              	.LFE33:
 173              		.size	RCC_HSEConfig, .-RCC_HSEConfig
 174              		.align	1
 175              		.global	RCC_AdjustHSICalibrationValue
 176              		.code	16
 177              		.thumb_func
 178              		.type	RCC_AdjustHSICalibrationValue, %function
 179              	RCC_AdjustHSICalibrationValue:
ARM GAS  C:\Users\Doles\AppData\Local\Temp\ccw5cB6c.s 			page 8


 180              	.LFB35:
 208:..\..\STM32F0-Discovery_FW_V1.0.0\Libraries\STM32F0xx_StdPeriph_Driver\src/stm32f0xx_rcc.c **** 
 209:..\..\STM32F0-Discovery_FW_V1.0.0\Libraries\STM32F0xx_StdPeriph_Driver\src/stm32f0xx_rcc.c **** /**
 210:..\..\STM32F0-Discovery_FW_V1.0.0\Libraries\STM32F0xx_StdPeriph_Driver\src/stm32f0xx_rcc.c ****   * @brief  Waits for HSE start-up.
 211:..\..\STM32F0-Discovery_FW_V1.0.0\Libraries\STM32F0xx_StdPeriph_Driver\src/stm32f0xx_rcc.c ****   * @note   This function waits on HSERDY flag to be set and return SUCCESS if 
 212:..\..\STM32F0-Discovery_FW_V1.0.0\Libraries\STM32F0xx_StdPeriph_Driver\src/stm32f0xx_rcc.c ****   *         this flag is set, otherwise returns ERROR if the timeout is reached 
 213:..\..\STM32F0-Discovery_FW_V1.0.0\Libraries\STM32F0xx_StdPeriph_Driver\src/stm32f0xx_rcc.c ****   *         and this flag is not set. The timeout value is defined by the constant
 214:..\..\STM32F0-Discovery_FW_V1.0.0\Libraries\STM32F0xx_StdPeriph_Driver\src/stm32f0xx_rcc.c ****   *         HSE_STARTUP_TIMEOUT in stm32f0xx.h file. You can tailor it depending
 215:..\..\STM32F0-Discovery_FW_V1.0.0\Libraries\STM32F0xx_StdPeriph_Driver\src/stm32f0xx_rcc.c ****   *         on the HSE crystal used in your application.
 216:..\..\STM32F0-Discovery_FW_V1.0.0\Libraries\STM32F0xx_StdPeriph_Driver\src/stm32f0xx_rcc.c ****   *         - The HSE is stopped by hardware when entering STOP and STANDBY modes.
 217:..\..\STM32F0-Discovery_FW_V1.0.0\Libraries\STM32F0xx_StdPeriph_Driver\src/stm32f0xx_rcc.c ****   * @param  None
 218:..\..\STM32F0-Discovery_FW_V1.0.0\Libraries\STM32F0xx_StdPeriph_Driver\src/stm32f0xx_rcc.c ****   * @retval An ErrorStatus enumeration value:
 219:..\..\STM32F0-Discovery_FW_V1.0.0\Libraries\STM32F0xx_StdPeriph_Driver\src/stm32f0xx_rcc.c ****   *          - SUCCESS: HSE oscillator is stable and ready to use
 220:..\..\STM32F0-Discovery_FW_V1.0.0\Libraries\STM32F0xx_StdPeriph_Driver\src/stm32f0xx_rcc.c ****   *          - ERROR: HSE oscillator not yet ready
 221:..\..\STM32F0-Discovery_FW_V1.0.0\Libraries\STM32F0xx_StdPeriph_Driver\src/stm32f0xx_rcc.c ****   */
 222:..\..\STM32F0-Discovery_FW_V1.0.0\Libraries\STM32F0xx_StdPeriph_Driver\src/stm32f0xx_rcc.c **** ErrorStatus RCC_WaitForHSEStartUp(void)
 223:..\..\STM32F0-Discovery_FW_V1.0.0\Libraries\STM32F0xx_StdPeriph_Driver\src/stm32f0xx_rcc.c **** {
 224:..\..\STM32F0-Discovery_FW_V1.0.0\Libraries\STM32F0xx_StdPeriph_Driver\src/stm32f0xx_rcc.c ****   __IO uint32_t StartUpCounter = 0;
 225:..\..\STM32F0-Discovery_FW_V1.0.0\Libraries\STM32F0xx_StdPeriph_Driver\src/stm32f0xx_rcc.c ****   ErrorStatus status = ERROR;
 226:..\..\STM32F0-Discovery_FW_V1.0.0\Libraries\STM32F0xx_StdPeriph_Driver\src/stm32f0xx_rcc.c ****   FlagStatus HSEStatus = RESET;
 227:..\..\STM32F0-Discovery_FW_V1.0.0\Libraries\STM32F0xx_StdPeriph_Driver\src/stm32f0xx_rcc.c ****   
 228:..\..\STM32F0-Discovery_FW_V1.0.0\Libraries\STM32F0xx_StdPeriph_Driver\src/stm32f0xx_rcc.c ****   /* Wait till HSE is ready and if timeout is reached exit */
 229:..\..\STM32F0-Discovery_FW_V1.0.0\Libraries\STM32F0xx_StdPeriph_Driver\src/stm32f0xx_rcc.c ****   do
 230:..\..\STM32F0-Discovery_FW_V1.0.0\Libraries\STM32F0xx_StdPeriph_Driver\src/stm32f0xx_rcc.c ****   {
 231:..\..\STM32F0-Discovery_FW_V1.0.0\Libraries\STM32F0xx_StdPeriph_Driver\src/stm32f0xx_rcc.c ****     HSEStatus = RCC_GetFlagStatus(RCC_FLAG_HSERDY);
 232:..\..\STM32F0-Discovery_FW_V1.0.0\Libraries\STM32F0xx_StdPeriph_Driver\src/stm32f0xx_rcc.c ****     StartUpCounter++;  
 233:..\..\STM32F0-Discovery_FW_V1.0.0\Libraries\STM32F0xx_StdPeriph_Driver\src/stm32f0xx_rcc.c ****   } while((StartUpCounter != HSE_STARTUP_TIMEOUT) && (HSEStatus == RESET));
 234:..\..\STM32F0-Discovery_FW_V1.0.0\Libraries\STM32F0xx_StdPeriph_Driver\src/stm32f0xx_rcc.c ****   
 235:..\..\STM32F0-Discovery_FW_V1.0.0\Libraries\STM32F0xx_StdPeriph_Driver\src/stm32f0xx_rcc.c ****   if (RCC_GetFlagStatus(RCC_FLAG_HSERDY) != RESET)
 236:..\..\STM32F0-Discovery_FW_V1.0.0\Libraries\STM32F0xx_StdPeriph_Driver\src/stm32f0xx_rcc.c ****   {
 237:..\..\STM32F0-Discovery_FW_V1.0.0\Libraries\STM32F0xx_StdPeriph_Driver\src/stm32f0xx_rcc.c ****     status = SUCCESS;
 238:..\..\STM32F0-Discovery_FW_V1.0.0\Libraries\STM32F0xx_StdPeriph_Driver\src/stm32f0xx_rcc.c ****   }
 239:..\..\STM32F0-Discovery_FW_V1.0.0\Libraries\STM32F0xx_StdPeriph_Driver\src/stm32f0xx_rcc.c ****   else
 240:..\..\STM32F0-Discovery_FW_V1.0.0\Libraries\STM32F0xx_StdPeriph_Driver\src/stm32f0xx_rcc.c ****   {
 241:..\..\STM32F0-Discovery_FW_V1.0.0\Libraries\STM32F0xx_StdPeriph_Driver\src/stm32f0xx_rcc.c ****     status = ERROR;
 242:..\..\STM32F0-Discovery_FW_V1.0.0\Libraries\STM32F0xx_StdPeriph_Driver\src/stm32f0xx_rcc.c ****   }  
 243:..\..\STM32F0-Discovery_FW_V1.0.0\Libraries\STM32F0xx_StdPeriph_Driver\src/stm32f0xx_rcc.c ****   return (status);
 244:..\..\STM32F0-Discovery_FW_V1.0.0\Libraries\STM32F0xx_StdPeriph_Driver\src/stm32f0xx_rcc.c **** }
 245:..\..\STM32F0-Discovery_FW_V1.0.0\Libraries\STM32F0xx_StdPeriph_Driver\src/stm32f0xx_rcc.c **** 
 246:..\..\STM32F0-Discovery_FW_V1.0.0\Libraries\STM32F0xx_StdPeriph_Driver\src/stm32f0xx_rcc.c **** /**
 247:..\..\STM32F0-Discovery_FW_V1.0.0\Libraries\STM32F0xx_StdPeriph_Driver\src/stm32f0xx_rcc.c ****   * @brief  Adjusts the Internal High Speed oscillator (HSI) calibration value.
 248:..\..\STM32F0-Discovery_FW_V1.0.0\Libraries\STM32F0xx_StdPeriph_Driver\src/stm32f0xx_rcc.c ****   * @note   The calibration is used to compensate for the variations in voltage
 249:..\..\STM32F0-Discovery_FW_V1.0.0\Libraries\STM32F0xx_StdPeriph_Driver\src/stm32f0xx_rcc.c ****   *         and temperature that influence the frequency of the internal HSI RC.
 250:..\..\STM32F0-Discovery_FW_V1.0.0\Libraries\STM32F0xx_StdPeriph_Driver\src/stm32f0xx_rcc.c ****   *         Refer to the Application Note AN3300 for more details on how to  
 251:..\..\STM32F0-Discovery_FW_V1.0.0\Libraries\STM32F0xx_StdPeriph_Driver\src/stm32f0xx_rcc.c ****   *         calibrate the HSI.
 252:..\..\STM32F0-Discovery_FW_V1.0.0\Libraries\STM32F0xx_StdPeriph_Driver\src/stm32f0xx_rcc.c ****   * @param  HSICalibrationValue: specifies the HSI calibration trimming value.
 253:..\..\STM32F0-Discovery_FW_V1.0.0\Libraries\STM32F0xx_StdPeriph_Driver\src/stm32f0xx_rcc.c ****   *         This parameter must be a number between 0 and 0x1F.
 254:..\..\STM32F0-Discovery_FW_V1.0.0\Libraries\STM32F0xx_StdPeriph_Driver\src/stm32f0xx_rcc.c ****   * @retval None
 255:..\..\STM32F0-Discovery_FW_V1.0.0\Libraries\STM32F0xx_StdPeriph_Driver\src/stm32f0xx_rcc.c ****   */
 256:..\..\STM32F0-Discovery_FW_V1.0.0\Libraries\STM32F0xx_StdPeriph_Driver\src/stm32f0xx_rcc.c **** void RCC_AdjustHSICalibrationValue(uint8_t HSICalibrationValue)
 257:..\..\STM32F0-Discovery_FW_V1.0.0\Libraries\STM32F0xx_StdPeriph_Driver\src/stm32f0xx_rcc.c **** {
 181              		.loc 1 257 0
 182              		.cfi_startproc
 183              	.LVL1:
 258:..\..\STM32F0-Discovery_FW_V1.0.0\Libraries\STM32F0xx_StdPeriph_Driver\src/stm32f0xx_rcc.c ****   uint32_t tmpreg = 0;
 259:..\..\STM32F0-Discovery_FW_V1.0.0\Libraries\STM32F0xx_StdPeriph_Driver\src/stm32f0xx_rcc.c ****   
 260:..\..\STM32F0-Discovery_FW_V1.0.0\Libraries\STM32F0xx_StdPeriph_Driver\src/stm32f0xx_rcc.c ****   /* Check the parameters */
ARM GAS  C:\Users\Doles\AppData\Local\Temp\ccw5cB6c.s 			page 9


 261:..\..\STM32F0-Discovery_FW_V1.0.0\Libraries\STM32F0xx_StdPeriph_Driver\src/stm32f0xx_rcc.c ****   assert_param(IS_RCC_HSI_CALIBRATION_VALUE(HSICalibrationValue));
 262:..\..\STM32F0-Discovery_FW_V1.0.0\Libraries\STM32F0xx_StdPeriph_Driver\src/stm32f0xx_rcc.c ****   
 263:..\..\STM32F0-Discovery_FW_V1.0.0\Libraries\STM32F0xx_StdPeriph_Driver\src/stm32f0xx_rcc.c ****   tmpreg = RCC->CR;
 264:..\..\STM32F0-Discovery_FW_V1.0.0\Libraries\STM32F0xx_StdPeriph_Driver\src/stm32f0xx_rcc.c ****   
 265:..\..\STM32F0-Discovery_FW_V1.0.0\Libraries\STM32F0xx_StdPeriph_Driver\src/stm32f0xx_rcc.c ****   /* Clear HSITRIM[4:0] bits */
 266:..\..\STM32F0-Discovery_FW_V1.0.0\Libraries\STM32F0xx_StdPeriph_Driver\src/stm32f0xx_rcc.c ****   tmpreg &= ~RCC_CR_HSITRIM;
 184              		.loc 1 266 0
 185 0070 F821     		mov	r1, #248	@ tmp117,
 263:..\..\STM32F0-Discovery_FW_V1.0.0\Libraries\STM32F0xx_StdPeriph_Driver\src/stm32f0xx_rcc.c ****   
 186              		.loc 1 263 0
 187 0072 034A     		ldr	r2, .L8	@ tmp116,
 267:..\..\STM32F0-Discovery_FW_V1.0.0\Libraries\STM32F0xx_StdPeriph_Driver\src/stm32f0xx_rcc.c ****   
 268:..\..\STM32F0-Discovery_FW_V1.0.0\Libraries\STM32F0xx_StdPeriph_Driver\src/stm32f0xx_rcc.c ****   /* Set the HSITRIM[4:0] bits according to HSICalibrationValue value */
 269:..\..\STM32F0-Discovery_FW_V1.0.0\Libraries\STM32F0xx_StdPeriph_Driver\src/stm32f0xx_rcc.c ****   tmpreg |= (uint32_t)HSICalibrationValue << 3;
 188              		.loc 1 269 0
 189 0074 C000     		lsl	r0, r0, #3	@ D.5352, HSICalibrationValue,
 190              	.LVL2:
 263:..\..\STM32F0-Discovery_FW_V1.0.0\Libraries\STM32F0xx_StdPeriph_Driver\src/stm32f0xx_rcc.c ****   
 191              		.loc 1 263 0
 192 0076 1368     		ldr	r3, [r2]	@ tmpreg, MEM[(struct RCC_TypeDef *)1073876992B].CR
 193              	.LVL3:
 270:..\..\STM32F0-Discovery_FW_V1.0.0\Libraries\STM32F0xx_StdPeriph_Driver\src/stm32f0xx_rcc.c **** 
 271:..\..\STM32F0-Discovery_FW_V1.0.0\Libraries\STM32F0xx_StdPeriph_Driver\src/stm32f0xx_rcc.c ****   /* Store the new value */
 272:..\..\STM32F0-Discovery_FW_V1.0.0\Libraries\STM32F0xx_StdPeriph_Driver\src/stm32f0xx_rcc.c ****   RCC->CR = tmpreg;
 273:..\..\STM32F0-Discovery_FW_V1.0.0\Libraries\STM32F0xx_StdPeriph_Driver\src/stm32f0xx_rcc.c **** }
 194              		.loc 1 273 0
 195              		@ sp needed	@
 266:..\..\STM32F0-Discovery_FW_V1.0.0\Libraries\STM32F0xx_StdPeriph_Driver\src/stm32f0xx_rcc.c ****   
 196              		.loc 1 266 0
 197 0078 8B43     		bic	r3, r1	@ tmpreg, tmp117
 198              	.LVL4:
 269:..\..\STM32F0-Discovery_FW_V1.0.0\Libraries\STM32F0xx_StdPeriph_Driver\src/stm32f0xx_rcc.c **** 
 199              		.loc 1 269 0
 200 007a 1843     		orr	r0, r3	@ tmpreg, tmpreg
 201              	.LVL5:
 272:..\..\STM32F0-Discovery_FW_V1.0.0\Libraries\STM32F0xx_StdPeriph_Driver\src/stm32f0xx_rcc.c **** }
 202              		.loc 1 272 0
 203 007c 1060     		str	r0, [r2]	@ tmpreg, MEM[(struct RCC_TypeDef *)1073876992B].CR
 204              		.loc 1 273 0
 205 007e 7047     		bx	lr
 206              	.L9:
 207              		.align	2
 208              	.L8:
 209 0080 00100240 		.word	1073876992
 210              		.cfi_endproc
 211              	.LFE35:
 212              		.size	RCC_AdjustHSICalibrationValue, .-RCC_AdjustHSICalibrationValue
 213              		.align	1
 214              		.global	RCC_HSICmd
 215              		.code	16
 216              		.thumb_func
 217              		.type	RCC_HSICmd, %function
 218              	RCC_HSICmd:
 219              	.LFB36:
 274:..\..\STM32F0-Discovery_FW_V1.0.0\Libraries\STM32F0xx_StdPeriph_Driver\src/stm32f0xx_rcc.c **** 
 275:..\..\STM32F0-Discovery_FW_V1.0.0\Libraries\STM32F0xx_StdPeriph_Driver\src/stm32f0xx_rcc.c **** /**
 276:..\..\STM32F0-Discovery_FW_V1.0.0\Libraries\STM32F0xx_StdPeriph_Driver\src/stm32f0xx_rcc.c ****   * @brief  Enables or disables the Internal High Speed oscillator (HSI).
ARM GAS  C:\Users\Doles\AppData\Local\Temp\ccw5cB6c.s 			page 10


 277:..\..\STM32F0-Discovery_FW_V1.0.0\Libraries\STM32F0xx_StdPeriph_Driver\src/stm32f0xx_rcc.c ****   * @note     After enabling the HSI, the application software should wait on 
 278:..\..\STM32F0-Discovery_FW_V1.0.0\Libraries\STM32F0xx_StdPeriph_Driver\src/stm32f0xx_rcc.c ****   *           HSIRDY flag to be set indicating that HSI clock is stable and can
 279:..\..\STM32F0-Discovery_FW_V1.0.0\Libraries\STM32F0xx_StdPeriph_Driver\src/stm32f0xx_rcc.c ****   *           be used to clock the PLL and/or system clock.
 280:..\..\STM32F0-Discovery_FW_V1.0.0\Libraries\STM32F0xx_StdPeriph_Driver\src/stm32f0xx_rcc.c ****   * @note     HSI can not be stopped if it is used directly or through the PLL
 281:..\..\STM32F0-Discovery_FW_V1.0.0\Libraries\STM32F0xx_StdPeriph_Driver\src/stm32f0xx_rcc.c ****   *           as system clock. In this case, you have to select another source 
 282:..\..\STM32F0-Discovery_FW_V1.0.0\Libraries\STM32F0xx_StdPeriph_Driver\src/stm32f0xx_rcc.c ****   *           of the system clock then stop the HSI.
 283:..\..\STM32F0-Discovery_FW_V1.0.0\Libraries\STM32F0xx_StdPeriph_Driver\src/stm32f0xx_rcc.c ****   * @note     The HSI is stopped by hardware when entering STOP and STANDBY modes.
 284:..\..\STM32F0-Discovery_FW_V1.0.0\Libraries\STM32F0xx_StdPeriph_Driver\src/stm32f0xx_rcc.c ****   * @param  NewState: new state of the HSI.
 285:..\..\STM32F0-Discovery_FW_V1.0.0\Libraries\STM32F0xx_StdPeriph_Driver\src/stm32f0xx_rcc.c ****   *         This parameter can be: ENABLE or DISABLE.
 286:..\..\STM32F0-Discovery_FW_V1.0.0\Libraries\STM32F0xx_StdPeriph_Driver\src/stm32f0xx_rcc.c ****   * @note   When the HSI is stopped, HSIRDY flag goes low after 6 HSI oscillator
 287:..\..\STM32F0-Discovery_FW_V1.0.0\Libraries\STM32F0xx_StdPeriph_Driver\src/stm32f0xx_rcc.c ****   *         clock cycles.
 288:..\..\STM32F0-Discovery_FW_V1.0.0\Libraries\STM32F0xx_StdPeriph_Driver\src/stm32f0xx_rcc.c ****   * @retval None
 289:..\..\STM32F0-Discovery_FW_V1.0.0\Libraries\STM32F0xx_StdPeriph_Driver\src/stm32f0xx_rcc.c ****   */
 290:..\..\STM32F0-Discovery_FW_V1.0.0\Libraries\STM32F0xx_StdPeriph_Driver\src/stm32f0xx_rcc.c **** void RCC_HSICmd(FunctionalState NewState)
 291:..\..\STM32F0-Discovery_FW_V1.0.0\Libraries\STM32F0xx_StdPeriph_Driver\src/stm32f0xx_rcc.c **** {
 220              		.loc 1 291 0
 221              		.cfi_startproc
 222              	.LVL6:
 223 0084 044B     		ldr	r3, .L15	@ tmp121,
 224 0086 0121     		mov	r1, #1	@ tmp122,
 292:..\..\STM32F0-Discovery_FW_V1.0.0\Libraries\STM32F0xx_StdPeriph_Driver\src/stm32f0xx_rcc.c ****   /* Check the parameters */
 293:..\..\STM32F0-Discovery_FW_V1.0.0\Libraries\STM32F0xx_StdPeriph_Driver\src/stm32f0xx_rcc.c ****   assert_param(IS_FUNCTIONAL_STATE(NewState));
 294:..\..\STM32F0-Discovery_FW_V1.0.0\Libraries\STM32F0xx_StdPeriph_Driver\src/stm32f0xx_rcc.c ****   
 295:..\..\STM32F0-Discovery_FW_V1.0.0\Libraries\STM32F0xx_StdPeriph_Driver\src/stm32f0xx_rcc.c ****   if (NewState != DISABLE)
 296:..\..\STM32F0-Discovery_FW_V1.0.0\Libraries\STM32F0xx_StdPeriph_Driver\src/stm32f0xx_rcc.c ****   {
 297:..\..\STM32F0-Discovery_FW_V1.0.0\Libraries\STM32F0xx_StdPeriph_Driver\src/stm32f0xx_rcc.c ****     RCC->CR |= RCC_CR_HSION;
 225              		.loc 1 297 0
 226 0088 1A68     		ldr	r2, [r3]	@ D.5355,
 295:..\..\STM32F0-Discovery_FW_V1.0.0\Libraries\STM32F0xx_StdPeriph_Driver\src/stm32f0xx_rcc.c ****   {
 227              		.loc 1 295 0
 228 008a 0028     		cmp	r0, #0	@ NewState,
 229 008c 01D0     		beq	.L11	@,
 230              		.loc 1 297 0
 231 008e 0A43     		orr	r2, r1	@ D.5355, tmp122
 232 0090 00E0     		b	.L13	@
 233              	.L11:
 298:..\..\STM32F0-Discovery_FW_V1.0.0\Libraries\STM32F0xx_StdPeriph_Driver\src/stm32f0xx_rcc.c ****   }
 299:..\..\STM32F0-Discovery_FW_V1.0.0\Libraries\STM32F0xx_StdPeriph_Driver\src/stm32f0xx_rcc.c ****   else
 300:..\..\STM32F0-Discovery_FW_V1.0.0\Libraries\STM32F0xx_StdPeriph_Driver\src/stm32f0xx_rcc.c ****   {
 301:..\..\STM32F0-Discovery_FW_V1.0.0\Libraries\STM32F0xx_StdPeriph_Driver\src/stm32f0xx_rcc.c ****     RCC->CR &= ~RCC_CR_HSION;
 234              		.loc 1 301 0
 235 0092 8A43     		bic	r2, r1	@ D.5355, tmp122
 236              	.L13:
 237 0094 1A60     		str	r2, [r3]	@ D.5355,
 302:..\..\STM32F0-Discovery_FW_V1.0.0\Libraries\STM32F0xx_StdPeriph_Driver\src/stm32f0xx_rcc.c ****   }
 303:..\..\STM32F0-Discovery_FW_V1.0.0\Libraries\STM32F0xx_StdPeriph_Driver\src/stm32f0xx_rcc.c **** }
 238              		.loc 1 303 0
 239              		@ sp needed	@
 240 0096 7047     		bx	lr
 241              	.L16:
 242              		.align	2
 243              	.L15:
 244 0098 00100240 		.word	1073876992
 245              		.cfi_endproc
 246              	.LFE36:
 247              		.size	RCC_HSICmd, .-RCC_HSICmd
 248              		.align	1
ARM GAS  C:\Users\Doles\AppData\Local\Temp\ccw5cB6c.s 			page 11


 249              		.global	RCC_AdjustHSI14CalibrationValue
 250              		.code	16
 251              		.thumb_func
 252              		.type	RCC_AdjustHSI14CalibrationValue, %function
 253              	RCC_AdjustHSI14CalibrationValue:
 254              	.LFB37:
 304:..\..\STM32F0-Discovery_FW_V1.0.0\Libraries\STM32F0xx_StdPeriph_Driver\src/stm32f0xx_rcc.c **** 
 305:..\..\STM32F0-Discovery_FW_V1.0.0\Libraries\STM32F0xx_StdPeriph_Driver\src/stm32f0xx_rcc.c **** /**
 306:..\..\STM32F0-Discovery_FW_V1.0.0\Libraries\STM32F0xx_StdPeriph_Driver\src/stm32f0xx_rcc.c ****   * @brief  Adjusts the Internal High Speed oscillator for ADC (HSI14) 
 307:..\..\STM32F0-Discovery_FW_V1.0.0\Libraries\STM32F0xx_StdPeriph_Driver\src/stm32f0xx_rcc.c ****   *         calibration value.
 308:..\..\STM32F0-Discovery_FW_V1.0.0\Libraries\STM32F0xx_StdPeriph_Driver\src/stm32f0xx_rcc.c ****   * @note   The calibration is used to compensate for the variations in voltage
 309:..\..\STM32F0-Discovery_FW_V1.0.0\Libraries\STM32F0xx_StdPeriph_Driver\src/stm32f0xx_rcc.c ****   *         and temperature that influence the frequency of the internal HSI RC.
 310:..\..\STM32F0-Discovery_FW_V1.0.0\Libraries\STM32F0xx_StdPeriph_Driver\src/stm32f0xx_rcc.c ****   *         Refer to the Application Note AN3300 for more details on how to  
 311:..\..\STM32F0-Discovery_FW_V1.0.0\Libraries\STM32F0xx_StdPeriph_Driver\src/stm32f0xx_rcc.c ****   *         calibrate the HSI14.
 312:..\..\STM32F0-Discovery_FW_V1.0.0\Libraries\STM32F0xx_StdPeriph_Driver\src/stm32f0xx_rcc.c ****   * @param  HSI14CalibrationValue: specifies the HSI14 calibration trimming value.
 313:..\..\STM32F0-Discovery_FW_V1.0.0\Libraries\STM32F0xx_StdPeriph_Driver\src/stm32f0xx_rcc.c ****   *         This parameter must be a number between 0 and 0x1F.
 314:..\..\STM32F0-Discovery_FW_V1.0.0\Libraries\STM32F0xx_StdPeriph_Driver\src/stm32f0xx_rcc.c ****   * @retval None
 315:..\..\STM32F0-Discovery_FW_V1.0.0\Libraries\STM32F0xx_StdPeriph_Driver\src/stm32f0xx_rcc.c ****   */
 316:..\..\STM32F0-Discovery_FW_V1.0.0\Libraries\STM32F0xx_StdPeriph_Driver\src/stm32f0xx_rcc.c **** void RCC_AdjustHSI14CalibrationValue(uint8_t HSI14CalibrationValue)
 317:..\..\STM32F0-Discovery_FW_V1.0.0\Libraries\STM32F0xx_StdPeriph_Driver\src/stm32f0xx_rcc.c **** {
 255              		.loc 1 317 0
 256              		.cfi_startproc
 257              	.LVL7:
 318:..\..\STM32F0-Discovery_FW_V1.0.0\Libraries\STM32F0xx_StdPeriph_Driver\src/stm32f0xx_rcc.c ****   uint32_t tmpreg = 0;
 319:..\..\STM32F0-Discovery_FW_V1.0.0\Libraries\STM32F0xx_StdPeriph_Driver\src/stm32f0xx_rcc.c ****   
 320:..\..\STM32F0-Discovery_FW_V1.0.0\Libraries\STM32F0xx_StdPeriph_Driver\src/stm32f0xx_rcc.c ****   /* Check the parameters */
 321:..\..\STM32F0-Discovery_FW_V1.0.0\Libraries\STM32F0xx_StdPeriph_Driver\src/stm32f0xx_rcc.c ****   assert_param(IS_RCC_HSI14_CALIBRATION_VALUE(HSI14CalibrationValue));
 322:..\..\STM32F0-Discovery_FW_V1.0.0\Libraries\STM32F0xx_StdPeriph_Driver\src/stm32f0xx_rcc.c ****   
 323:..\..\STM32F0-Discovery_FW_V1.0.0\Libraries\STM32F0xx_StdPeriph_Driver\src/stm32f0xx_rcc.c ****   tmpreg = RCC->CR2;
 324:..\..\STM32F0-Discovery_FW_V1.0.0\Libraries\STM32F0xx_StdPeriph_Driver\src/stm32f0xx_rcc.c ****   
 325:..\..\STM32F0-Discovery_FW_V1.0.0\Libraries\STM32F0xx_StdPeriph_Driver\src/stm32f0xx_rcc.c ****   /* Clear HSI14TRIM[4:0] bits */
 326:..\..\STM32F0-Discovery_FW_V1.0.0\Libraries\STM32F0xx_StdPeriph_Driver\src/stm32f0xx_rcc.c ****   tmpreg &= ~RCC_CR2_HSI14TRIM;
 258              		.loc 1 326 0
 259 009c F821     		mov	r1, #248	@ tmp117,
 323:..\..\STM32F0-Discovery_FW_V1.0.0\Libraries\STM32F0xx_StdPeriph_Driver\src/stm32f0xx_rcc.c ****   
 260              		.loc 1 323 0
 261 009e 034A     		ldr	r2, .L18	@ tmp116,
 327:..\..\STM32F0-Discovery_FW_V1.0.0\Libraries\STM32F0xx_StdPeriph_Driver\src/stm32f0xx_rcc.c ****   
 328:..\..\STM32F0-Discovery_FW_V1.0.0\Libraries\STM32F0xx_StdPeriph_Driver\src/stm32f0xx_rcc.c ****   /* Set the HSITRIM14[4:0] bits according to HSI14CalibrationValue value */
 329:..\..\STM32F0-Discovery_FW_V1.0.0\Libraries\STM32F0xx_StdPeriph_Driver\src/stm32f0xx_rcc.c ****   tmpreg |= (uint32_t)HSI14CalibrationValue << 3;
 262              		.loc 1 329 0
 263 00a0 C000     		lsl	r0, r0, #3	@ D.5358, HSI14CalibrationValue,
 264              	.LVL8:
 323:..\..\STM32F0-Discovery_FW_V1.0.0\Libraries\STM32F0xx_StdPeriph_Driver\src/stm32f0xx_rcc.c ****   
 265              		.loc 1 323 0
 266 00a2 536B     		ldr	r3, [r2, #52]	@ tmpreg, MEM[(struct RCC_TypeDef *)1073876992B].CR2
 267              	.LVL9:
 330:..\..\STM32F0-Discovery_FW_V1.0.0\Libraries\STM32F0xx_StdPeriph_Driver\src/stm32f0xx_rcc.c **** 
 331:..\..\STM32F0-Discovery_FW_V1.0.0\Libraries\STM32F0xx_StdPeriph_Driver\src/stm32f0xx_rcc.c ****   /* Store the new value */
 332:..\..\STM32F0-Discovery_FW_V1.0.0\Libraries\STM32F0xx_StdPeriph_Driver\src/stm32f0xx_rcc.c ****   RCC->CR2 = tmpreg;
 333:..\..\STM32F0-Discovery_FW_V1.0.0\Libraries\STM32F0xx_StdPeriph_Driver\src/stm32f0xx_rcc.c **** }
 268              		.loc 1 333 0
 269              		@ sp needed	@
 326:..\..\STM32F0-Discovery_FW_V1.0.0\Libraries\STM32F0xx_StdPeriph_Driver\src/stm32f0xx_rcc.c ****   
 270              		.loc 1 326 0
 271 00a4 8B43     		bic	r3, r1	@ tmpreg, tmp117
 272              	.LVL10:
ARM GAS  C:\Users\Doles\AppData\Local\Temp\ccw5cB6c.s 			page 12


 329:..\..\STM32F0-Discovery_FW_V1.0.0\Libraries\STM32F0xx_StdPeriph_Driver\src/stm32f0xx_rcc.c **** 
 273              		.loc 1 329 0
 274 00a6 1843     		orr	r0, r3	@ tmpreg, tmpreg
 275              	.LVL11:
 332:..\..\STM32F0-Discovery_FW_V1.0.0\Libraries\STM32F0xx_StdPeriph_Driver\src/stm32f0xx_rcc.c **** }
 276              		.loc 1 332 0
 277 00a8 5063     		str	r0, [r2, #52]	@ tmpreg, MEM[(struct RCC_TypeDef *)1073876992B].CR2
 278              		.loc 1 333 0
 279 00aa 7047     		bx	lr
 280              	.L19:
 281              		.align	2
 282              	.L18:
 283 00ac 00100240 		.word	1073876992
 284              		.cfi_endproc
 285              	.LFE37:
 286              		.size	RCC_AdjustHSI14CalibrationValue, .-RCC_AdjustHSI14CalibrationValue
 287              		.align	1
 288              		.global	RCC_HSI14Cmd
 289              		.code	16
 290              		.thumb_func
 291              		.type	RCC_HSI14Cmd, %function
 292              	RCC_HSI14Cmd:
 293              	.LFB38:
 334:..\..\STM32F0-Discovery_FW_V1.0.0\Libraries\STM32F0xx_StdPeriph_Driver\src/stm32f0xx_rcc.c **** 
 335:..\..\STM32F0-Discovery_FW_V1.0.0\Libraries\STM32F0xx_StdPeriph_Driver\src/stm32f0xx_rcc.c **** /**
 336:..\..\STM32F0-Discovery_FW_V1.0.0\Libraries\STM32F0xx_StdPeriph_Driver\src/stm32f0xx_rcc.c ****   * @brief  Enables or disables the Internal High Speed oscillator for ADC (HSI14).
 337:..\..\STM32F0-Discovery_FW_V1.0.0\Libraries\STM32F0xx_StdPeriph_Driver\src/stm32f0xx_rcc.c ****   * @note     After enabling the HSI14, the application software should wait on 
 338:..\..\STM32F0-Discovery_FW_V1.0.0\Libraries\STM32F0xx_StdPeriph_Driver\src/stm32f0xx_rcc.c ****   *           HSIRDY flag to be set indicating that HSI clock is stable and can
 339:..\..\STM32F0-Discovery_FW_V1.0.0\Libraries\STM32F0xx_StdPeriph_Driver\src/stm32f0xx_rcc.c ****   *           be used to clock the ADC.
 340:..\..\STM32F0-Discovery_FW_V1.0.0\Libraries\STM32F0xx_StdPeriph_Driver\src/stm32f0xx_rcc.c ****   * @note     The HSI14 is stopped by hardware when entering STOP and STANDBY modes.
 341:..\..\STM32F0-Discovery_FW_V1.0.0\Libraries\STM32F0xx_StdPeriph_Driver\src/stm32f0xx_rcc.c ****   * @param  NewState: new state of the HSI14.
 342:..\..\STM32F0-Discovery_FW_V1.0.0\Libraries\STM32F0xx_StdPeriph_Driver\src/stm32f0xx_rcc.c ****   *         This parameter can be: ENABLE or DISABLE.
 343:..\..\STM32F0-Discovery_FW_V1.0.0\Libraries\STM32F0xx_StdPeriph_Driver\src/stm32f0xx_rcc.c ****   * @note   When the HSI14 is stopped, HSI14RDY flag goes low after 6 HSI14 oscillator
 344:..\..\STM32F0-Discovery_FW_V1.0.0\Libraries\STM32F0xx_StdPeriph_Driver\src/stm32f0xx_rcc.c ****   *         clock cycles.
 345:..\..\STM32F0-Discovery_FW_V1.0.0\Libraries\STM32F0xx_StdPeriph_Driver\src/stm32f0xx_rcc.c ****   * @retval None
 346:..\..\STM32F0-Discovery_FW_V1.0.0\Libraries\STM32F0xx_StdPeriph_Driver\src/stm32f0xx_rcc.c ****   */
 347:..\..\STM32F0-Discovery_FW_V1.0.0\Libraries\STM32F0xx_StdPeriph_Driver\src/stm32f0xx_rcc.c **** void RCC_HSI14Cmd(FunctionalState NewState)
 348:..\..\STM32F0-Discovery_FW_V1.0.0\Libraries\STM32F0xx_StdPeriph_Driver\src/stm32f0xx_rcc.c **** {
 294              		.loc 1 348 0
 295              		.cfi_startproc
 296              	.LVL12:
 297 00b0 044B     		ldr	r3, .L24	@ tmp121,
 298 00b2 0121     		mov	r1, #1	@ tmp122,
 349:..\..\STM32F0-Discovery_FW_V1.0.0\Libraries\STM32F0xx_StdPeriph_Driver\src/stm32f0xx_rcc.c ****   /* Check the parameters */
 350:..\..\STM32F0-Discovery_FW_V1.0.0\Libraries\STM32F0xx_StdPeriph_Driver\src/stm32f0xx_rcc.c ****   assert_param(IS_FUNCTIONAL_STATE(NewState));
 351:..\..\STM32F0-Discovery_FW_V1.0.0\Libraries\STM32F0xx_StdPeriph_Driver\src/stm32f0xx_rcc.c ****   
 352:..\..\STM32F0-Discovery_FW_V1.0.0\Libraries\STM32F0xx_StdPeriph_Driver\src/stm32f0xx_rcc.c ****   if (NewState != DISABLE)
 353:..\..\STM32F0-Discovery_FW_V1.0.0\Libraries\STM32F0xx_StdPeriph_Driver\src/stm32f0xx_rcc.c ****   {
 354:..\..\STM32F0-Discovery_FW_V1.0.0\Libraries\STM32F0xx_StdPeriph_Driver\src/stm32f0xx_rcc.c ****     RCC->CR2 |= RCC_CR2_HSI14ON;
 299              		.loc 1 354 0
 300 00b4 5A6B     		ldr	r2, [r3, #52]	@ D.5361,
 352:..\..\STM32F0-Discovery_FW_V1.0.0\Libraries\STM32F0xx_StdPeriph_Driver\src/stm32f0xx_rcc.c ****   {
 301              		.loc 1 352 0
 302 00b6 0028     		cmp	r0, #0	@ NewState,
 303 00b8 01D0     		beq	.L21	@,
 304              		.loc 1 354 0
 305 00ba 0A43     		orr	r2, r1	@ D.5361, tmp122
ARM GAS  C:\Users\Doles\AppData\Local\Temp\ccw5cB6c.s 			page 13


 306 00bc 00E0     		b	.L23	@
 307              	.L21:
 355:..\..\STM32F0-Discovery_FW_V1.0.0\Libraries\STM32F0xx_StdPeriph_Driver\src/stm32f0xx_rcc.c ****   }
 356:..\..\STM32F0-Discovery_FW_V1.0.0\Libraries\STM32F0xx_StdPeriph_Driver\src/stm32f0xx_rcc.c ****   else
 357:..\..\STM32F0-Discovery_FW_V1.0.0\Libraries\STM32F0xx_StdPeriph_Driver\src/stm32f0xx_rcc.c ****   {
 358:..\..\STM32F0-Discovery_FW_V1.0.0\Libraries\STM32F0xx_StdPeriph_Driver\src/stm32f0xx_rcc.c ****     RCC->CR2 &= ~RCC_CR2_HSI14ON;
 308              		.loc 1 358 0
 309 00be 8A43     		bic	r2, r1	@ D.5361, tmp122
 310              	.L23:
 311 00c0 5A63     		str	r2, [r3, #52]	@ D.5361,
 359:..\..\STM32F0-Discovery_FW_V1.0.0\Libraries\STM32F0xx_StdPeriph_Driver\src/stm32f0xx_rcc.c ****   }
 360:..\..\STM32F0-Discovery_FW_V1.0.0\Libraries\STM32F0xx_StdPeriph_Driver\src/stm32f0xx_rcc.c **** }
 312              		.loc 1 360 0
 313              		@ sp needed	@
 314 00c2 7047     		bx	lr
 315              	.L25:
 316              		.align	2
 317              	.L24:
 318 00c4 00100240 		.word	1073876992
 319              		.cfi_endproc
 320              	.LFE38:
 321              		.size	RCC_HSI14Cmd, .-RCC_HSI14Cmd
 322              		.align	1
 323              		.global	RCC_HSI14ADCRequestCmd
 324              		.code	16
 325              		.thumb_func
 326              		.type	RCC_HSI14ADCRequestCmd, %function
 327              	RCC_HSI14ADCRequestCmd:
 328              	.LFB39:
 361:..\..\STM32F0-Discovery_FW_V1.0.0\Libraries\STM32F0xx_StdPeriph_Driver\src/stm32f0xx_rcc.c **** 
 362:..\..\STM32F0-Discovery_FW_V1.0.0\Libraries\STM32F0xx_StdPeriph_Driver\src/stm32f0xx_rcc.c **** /**
 363:..\..\STM32F0-Discovery_FW_V1.0.0\Libraries\STM32F0xx_StdPeriph_Driver\src/stm32f0xx_rcc.c ****   * @brief  Enables or disables the Internal High Speed oscillator request from ADC.
 364:..\..\STM32F0-Discovery_FW_V1.0.0\Libraries\STM32F0xx_StdPeriph_Driver\src/stm32f0xx_rcc.c ****   * @param  NewState: new state of the HSI14 ADC request.
 365:..\..\STM32F0-Discovery_FW_V1.0.0\Libraries\STM32F0xx_StdPeriph_Driver\src/stm32f0xx_rcc.c ****   *         This parameter can be: ENABLE or DISABLE.
 366:..\..\STM32F0-Discovery_FW_V1.0.0\Libraries\STM32F0xx_StdPeriph_Driver\src/stm32f0xx_rcc.c ****   * @retval None
 367:..\..\STM32F0-Discovery_FW_V1.0.0\Libraries\STM32F0xx_StdPeriph_Driver\src/stm32f0xx_rcc.c ****   */
 368:..\..\STM32F0-Discovery_FW_V1.0.0\Libraries\STM32F0xx_StdPeriph_Driver\src/stm32f0xx_rcc.c **** void RCC_HSI14ADCRequestCmd(FunctionalState NewState)
 369:..\..\STM32F0-Discovery_FW_V1.0.0\Libraries\STM32F0xx_StdPeriph_Driver\src/stm32f0xx_rcc.c **** {
 329              		.loc 1 369 0
 330              		.cfi_startproc
 331              	.LVL13:
 332 00c8 044B     		ldr	r3, .L30	@ tmp121,
 333 00ca 0421     		mov	r1, #4	@ tmp122,
 370:..\..\STM32F0-Discovery_FW_V1.0.0\Libraries\STM32F0xx_StdPeriph_Driver\src/stm32f0xx_rcc.c ****   /* Check the parameters */
 371:..\..\STM32F0-Discovery_FW_V1.0.0\Libraries\STM32F0xx_StdPeriph_Driver\src/stm32f0xx_rcc.c ****   assert_param(IS_FUNCTIONAL_STATE(NewState));
 372:..\..\STM32F0-Discovery_FW_V1.0.0\Libraries\STM32F0xx_StdPeriph_Driver\src/stm32f0xx_rcc.c ****   
 373:..\..\STM32F0-Discovery_FW_V1.0.0\Libraries\STM32F0xx_StdPeriph_Driver\src/stm32f0xx_rcc.c ****   if (NewState != DISABLE)
 374:..\..\STM32F0-Discovery_FW_V1.0.0\Libraries\STM32F0xx_StdPeriph_Driver\src/stm32f0xx_rcc.c ****   {
 375:..\..\STM32F0-Discovery_FW_V1.0.0\Libraries\STM32F0xx_StdPeriph_Driver\src/stm32f0xx_rcc.c ****     RCC->CR2 &= ~RCC_CR2_HSI14DIS;
 334              		.loc 1 375 0
 335 00cc 5A6B     		ldr	r2, [r3, #52]	@ D.5364,
 373:..\..\STM32F0-Discovery_FW_V1.0.0\Libraries\STM32F0xx_StdPeriph_Driver\src/stm32f0xx_rcc.c ****   {
 336              		.loc 1 373 0
 337 00ce 0028     		cmp	r0, #0	@ NewState,
 338 00d0 01D0     		beq	.L27	@,
 339              		.loc 1 375 0
 340 00d2 8A43     		bic	r2, r1	@ D.5364, tmp122
ARM GAS  C:\Users\Doles\AppData\Local\Temp\ccw5cB6c.s 			page 14


 341 00d4 00E0     		b	.L29	@
 342              	.L27:
 376:..\..\STM32F0-Discovery_FW_V1.0.0\Libraries\STM32F0xx_StdPeriph_Driver\src/stm32f0xx_rcc.c ****   }
 377:..\..\STM32F0-Discovery_FW_V1.0.0\Libraries\STM32F0xx_StdPeriph_Driver\src/stm32f0xx_rcc.c ****   else
 378:..\..\STM32F0-Discovery_FW_V1.0.0\Libraries\STM32F0xx_StdPeriph_Driver\src/stm32f0xx_rcc.c ****   {
 379:..\..\STM32F0-Discovery_FW_V1.0.0\Libraries\STM32F0xx_StdPeriph_Driver\src/stm32f0xx_rcc.c ****     RCC->CR2 |= RCC_CR2_HSI14DIS;
 343              		.loc 1 379 0
 344 00d6 0A43     		orr	r2, r1	@ D.5364, tmp122
 345              	.L29:
 346 00d8 5A63     		str	r2, [r3, #52]	@ D.5364,
 380:..\..\STM32F0-Discovery_FW_V1.0.0\Libraries\STM32F0xx_StdPeriph_Driver\src/stm32f0xx_rcc.c ****   }
 381:..\..\STM32F0-Discovery_FW_V1.0.0\Libraries\STM32F0xx_StdPeriph_Driver\src/stm32f0xx_rcc.c **** }
 347              		.loc 1 381 0
 348              		@ sp needed	@
 349 00da 7047     		bx	lr
 350              	.L31:
 351              		.align	2
 352              	.L30:
 353 00dc 00100240 		.word	1073876992
 354              		.cfi_endproc
 355              	.LFE39:
 356              		.size	RCC_HSI14ADCRequestCmd, .-RCC_HSI14ADCRequestCmd
 357              		.align	1
 358              		.global	RCC_LSEConfig
 359              		.code	16
 360              		.thumb_func
 361              		.type	RCC_LSEConfig, %function
 362              	RCC_LSEConfig:
 363              	.LFB40:
 382:..\..\STM32F0-Discovery_FW_V1.0.0\Libraries\STM32F0xx_StdPeriph_Driver\src/stm32f0xx_rcc.c **** 
 383:..\..\STM32F0-Discovery_FW_V1.0.0\Libraries\STM32F0xx_StdPeriph_Driver\src/stm32f0xx_rcc.c **** /**
 384:..\..\STM32F0-Discovery_FW_V1.0.0\Libraries\STM32F0xx_StdPeriph_Driver\src/stm32f0xx_rcc.c ****   * @brief  Configures the External Low Speed oscillator (LSE).
 385:..\..\STM32F0-Discovery_FW_V1.0.0\Libraries\STM32F0xx_StdPeriph_Driver\src/stm32f0xx_rcc.c ****   * @note     As the LSE is in the Backup domain and write access is denied to this
 386:..\..\STM32F0-Discovery_FW_V1.0.0\Libraries\STM32F0xx_StdPeriph_Driver\src/stm32f0xx_rcc.c ****   *           domain after reset, you have to enable write access using 
 387:..\..\STM32F0-Discovery_FW_V1.0.0\Libraries\STM32F0xx_StdPeriph_Driver\src/stm32f0xx_rcc.c ****   *           PWR_BackupAccessCmd(ENABLE) function before to configure the LSE
 388:..\..\STM32F0-Discovery_FW_V1.0.0\Libraries\STM32F0xx_StdPeriph_Driver\src/stm32f0xx_rcc.c ****   *           (to be done once after reset).
 389:..\..\STM32F0-Discovery_FW_V1.0.0\Libraries\STM32F0xx_StdPeriph_Driver\src/stm32f0xx_rcc.c ****   * @note     After enabling the LSE (RCC_LSE_ON or RCC_LSE_Bypass), the application
 390:..\..\STM32F0-Discovery_FW_V1.0.0\Libraries\STM32F0xx_StdPeriph_Driver\src/stm32f0xx_rcc.c ****   *           software should wait on LSERDY flag to be set indicating that LSE clock
 391:..\..\STM32F0-Discovery_FW_V1.0.0\Libraries\STM32F0xx_StdPeriph_Driver\src/stm32f0xx_rcc.c ****   *           is stable and can be used to clock the RTC.
 392:..\..\STM32F0-Discovery_FW_V1.0.0\Libraries\STM32F0xx_StdPeriph_Driver\src/stm32f0xx_rcc.c ****   * @param  RCC_LSE: specifies the new state of the LSE.
 393:..\..\STM32F0-Discovery_FW_V1.0.0\Libraries\STM32F0xx_StdPeriph_Driver\src/stm32f0xx_rcc.c ****   *   This parameter can be one of the following values:
 394:..\..\STM32F0-Discovery_FW_V1.0.0\Libraries\STM32F0xx_StdPeriph_Driver\src/stm32f0xx_rcc.c ****   *     @arg RCC_LSE_OFF: turn OFF the LSE oscillator, LSERDY flag goes low after
 395:..\..\STM32F0-Discovery_FW_V1.0.0\Libraries\STM32F0xx_StdPeriph_Driver\src/stm32f0xx_rcc.c ****   *                       6 LSE oscillator clock cycles.
 396:..\..\STM32F0-Discovery_FW_V1.0.0\Libraries\STM32F0xx_StdPeriph_Driver\src/stm32f0xx_rcc.c ****   *     @arg RCC_LSE_ON: turn ON the LSE oscillator
 397:..\..\STM32F0-Discovery_FW_V1.0.0\Libraries\STM32F0xx_StdPeriph_Driver\src/stm32f0xx_rcc.c ****   *     @arg RCC_LSE_Bypass: LSE oscillator bypassed with external clock
 398:..\..\STM32F0-Discovery_FW_V1.0.0\Libraries\STM32F0xx_StdPeriph_Driver\src/stm32f0xx_rcc.c ****   * @retval None
 399:..\..\STM32F0-Discovery_FW_V1.0.0\Libraries\STM32F0xx_StdPeriph_Driver\src/stm32f0xx_rcc.c ****   */
 400:..\..\STM32F0-Discovery_FW_V1.0.0\Libraries\STM32F0xx_StdPeriph_Driver\src/stm32f0xx_rcc.c **** void RCC_LSEConfig(uint32_t RCC_LSE)
 401:..\..\STM32F0-Discovery_FW_V1.0.0\Libraries\STM32F0xx_StdPeriph_Driver\src/stm32f0xx_rcc.c **** {
 364              		.loc 1 401 0
 365              		.cfi_startproc
 366              	.LVL14:
 402:..\..\STM32F0-Discovery_FW_V1.0.0\Libraries\STM32F0xx_StdPeriph_Driver\src/stm32f0xx_rcc.c ****   /* Check the parameters */
 403:..\..\STM32F0-Discovery_FW_V1.0.0\Libraries\STM32F0xx_StdPeriph_Driver\src/stm32f0xx_rcc.c ****   assert_param(IS_RCC_LSE(RCC_LSE));
 404:..\..\STM32F0-Discovery_FW_V1.0.0\Libraries\STM32F0xx_StdPeriph_Driver\src/stm32f0xx_rcc.c **** 
 405:..\..\STM32F0-Discovery_FW_V1.0.0\Libraries\STM32F0xx_StdPeriph_Driver\src/stm32f0xx_rcc.c ****   /* Reset LSEON and LSEBYP bits before configuring the LSE ------------------*/
 406:..\..\STM32F0-Discovery_FW_V1.0.0\Libraries\STM32F0xx_StdPeriph_Driver\src/stm32f0xx_rcc.c ****   /* Reset LSEON bit */
ARM GAS  C:\Users\Doles\AppData\Local\Temp\ccw5cB6c.s 			page 15


 407:..\..\STM32F0-Discovery_FW_V1.0.0\Libraries\STM32F0xx_StdPeriph_Driver\src/stm32f0xx_rcc.c ****   RCC->BDCR &= ~(RCC_BDCR_LSEON);
 367              		.loc 1 407 0
 368 00e0 0121     		mov	r1, #1	@ tmp118,
 369 00e2 064B     		ldr	r3, .L33	@ tmp117,
 408:..\..\STM32F0-Discovery_FW_V1.0.0\Libraries\STM32F0xx_StdPeriph_Driver\src/stm32f0xx_rcc.c **** 
 409:..\..\STM32F0-Discovery_FW_V1.0.0\Libraries\STM32F0xx_StdPeriph_Driver\src/stm32f0xx_rcc.c ****   /* Reset LSEBYP bit */
 410:..\..\STM32F0-Discovery_FW_V1.0.0\Libraries\STM32F0xx_StdPeriph_Driver\src/stm32f0xx_rcc.c ****   RCC->BDCR &= ~(RCC_BDCR_LSEBYP);
 411:..\..\STM32F0-Discovery_FW_V1.0.0\Libraries\STM32F0xx_StdPeriph_Driver\src/stm32f0xx_rcc.c **** 
 412:..\..\STM32F0-Discovery_FW_V1.0.0\Libraries\STM32F0xx_StdPeriph_Driver\src/stm32f0xx_rcc.c ****   /* Configure LSE */
 413:..\..\STM32F0-Discovery_FW_V1.0.0\Libraries\STM32F0xx_StdPeriph_Driver\src/stm32f0xx_rcc.c ****   RCC->BDCR |= RCC_LSE;
 414:..\..\STM32F0-Discovery_FW_V1.0.0\Libraries\STM32F0xx_StdPeriph_Driver\src/stm32f0xx_rcc.c **** }
 370              		.loc 1 414 0
 371              		@ sp needed	@
 407:..\..\STM32F0-Discovery_FW_V1.0.0\Libraries\STM32F0xx_StdPeriph_Driver\src/stm32f0xx_rcc.c **** 
 372              		.loc 1 407 0
 373 00e4 1A6A     		ldr	r2, [r3, #32]	@ D.5367, MEM[(struct RCC_TypeDef *)1073876992B].BDCR
 374 00e6 8A43     		bic	r2, r1	@ D.5367, tmp118
 375 00e8 1A62     		str	r2, [r3, #32]	@ D.5367, MEM[(struct RCC_TypeDef *)1073876992B].BDCR
 410:..\..\STM32F0-Discovery_FW_V1.0.0\Libraries\STM32F0xx_StdPeriph_Driver\src/stm32f0xx_rcc.c **** 
 376              		.loc 1 410 0
 377 00ea 1A6A     		ldr	r2, [r3, #32]	@ D.5367, MEM[(struct RCC_TypeDef *)1073876992B].BDCR
 378 00ec 0331     		add	r1, r1, #3	@ tmp121,
 379 00ee 8A43     		bic	r2, r1	@ D.5367, tmp121
 380 00f0 1A62     		str	r2, [r3, #32]	@ D.5367, MEM[(struct RCC_TypeDef *)1073876992B].BDCR
 413:..\..\STM32F0-Discovery_FW_V1.0.0\Libraries\STM32F0xx_StdPeriph_Driver\src/stm32f0xx_rcc.c **** }
 381              		.loc 1 413 0
 382 00f2 1A6A     		ldr	r2, [r3, #32]	@ D.5367, MEM[(struct RCC_TypeDef *)1073876992B].BDCR
 383 00f4 1043     		orr	r0, r2	@ D.5367, D.5367
 384              	.LVL15:
 385 00f6 1862     		str	r0, [r3, #32]	@ D.5367, MEM[(struct RCC_TypeDef *)1073876992B].BDCR
 386              		.loc 1 414 0
 387 00f8 7047     		bx	lr
 388              	.L34:
 389 00fa C046     		.align	2
 390              	.L33:
 391 00fc 00100240 		.word	1073876992
 392              		.cfi_endproc
 393              	.LFE40:
 394              		.size	RCC_LSEConfig, .-RCC_LSEConfig
 395              		.align	1
 396              		.global	RCC_LSEDriveConfig
 397              		.code	16
 398              		.thumb_func
 399              		.type	RCC_LSEDriveConfig, %function
 400              	RCC_LSEDriveConfig:
 401              	.LFB41:
 415:..\..\STM32F0-Discovery_FW_V1.0.0\Libraries\STM32F0xx_StdPeriph_Driver\src/stm32f0xx_rcc.c **** 
 416:..\..\STM32F0-Discovery_FW_V1.0.0\Libraries\STM32F0xx_StdPeriph_Driver\src/stm32f0xx_rcc.c **** /**
 417:..\..\STM32F0-Discovery_FW_V1.0.0\Libraries\STM32F0xx_StdPeriph_Driver\src/stm32f0xx_rcc.c ****   * @brief  Configures the External Low Speed oscillator (LSE) drive capability.
 418:..\..\STM32F0-Discovery_FW_V1.0.0\Libraries\STM32F0xx_StdPeriph_Driver\src/stm32f0xx_rcc.c ****   * @param  RCC_LSEDrive: specifies the new state of the LSE drive capability.
 419:..\..\STM32F0-Discovery_FW_V1.0.0\Libraries\STM32F0xx_StdPeriph_Driver\src/stm32f0xx_rcc.c ****   *   This parameter can be one of the following values:
 420:..\..\STM32F0-Discovery_FW_V1.0.0\Libraries\STM32F0xx_StdPeriph_Driver\src/stm32f0xx_rcc.c ****   *     @arg RCC_LSEDrive_Low: LSE oscillator low drive capability.
 421:..\..\STM32F0-Discovery_FW_V1.0.0\Libraries\STM32F0xx_StdPeriph_Driver\src/stm32f0xx_rcc.c ****   *     @arg RCC_LSEDrive_MediumLow: LSE oscillator medium low drive capability.
 422:..\..\STM32F0-Discovery_FW_V1.0.0\Libraries\STM32F0xx_StdPeriph_Driver\src/stm32f0xx_rcc.c ****   *     @arg RCC_LSEDrive_MediumHigh: LSE oscillator medium high drive capability.
 423:..\..\STM32F0-Discovery_FW_V1.0.0\Libraries\STM32F0xx_StdPeriph_Driver\src/stm32f0xx_rcc.c ****   *     @arg RCC_LSEDrive_High: LSE oscillator high drive capability.
 424:..\..\STM32F0-Discovery_FW_V1.0.0\Libraries\STM32F0xx_StdPeriph_Driver\src/stm32f0xx_rcc.c ****   * @retval None
 425:..\..\STM32F0-Discovery_FW_V1.0.0\Libraries\STM32F0xx_StdPeriph_Driver\src/stm32f0xx_rcc.c ****   */
ARM GAS  C:\Users\Doles\AppData\Local\Temp\ccw5cB6c.s 			page 16


 426:..\..\STM32F0-Discovery_FW_V1.0.0\Libraries\STM32F0xx_StdPeriph_Driver\src/stm32f0xx_rcc.c **** void RCC_LSEDriveConfig(uint32_t RCC_LSEDrive)
 427:..\..\STM32F0-Discovery_FW_V1.0.0\Libraries\STM32F0xx_StdPeriph_Driver\src/stm32f0xx_rcc.c **** {
 402              		.loc 1 427 0
 403              		.cfi_startproc
 404              	.LVL16:
 428:..\..\STM32F0-Discovery_FW_V1.0.0\Libraries\STM32F0xx_StdPeriph_Driver\src/stm32f0xx_rcc.c ****   /* Check the parameters */
 429:..\..\STM32F0-Discovery_FW_V1.0.0\Libraries\STM32F0xx_StdPeriph_Driver\src/stm32f0xx_rcc.c ****   assert_param(IS_RCC_LSE_DRIVE(RCC_LSEDrive));
 430:..\..\STM32F0-Discovery_FW_V1.0.0\Libraries\STM32F0xx_StdPeriph_Driver\src/stm32f0xx_rcc.c ****   
 431:..\..\STM32F0-Discovery_FW_V1.0.0\Libraries\STM32F0xx_StdPeriph_Driver\src/stm32f0xx_rcc.c ****   /* Clear LSEDRV[1:0] bits */
 432:..\..\STM32F0-Discovery_FW_V1.0.0\Libraries\STM32F0xx_StdPeriph_Driver\src/stm32f0xx_rcc.c ****   RCC->BDCR &= ~(RCC_BDCR_LSEDRV);
 405              		.loc 1 432 0
 406 0100 1821     		mov	r1, #24	@ tmp116,
 407 0102 044B     		ldr	r3, .L36	@ tmp115,
 433:..\..\STM32F0-Discovery_FW_V1.0.0\Libraries\STM32F0xx_StdPeriph_Driver\src/stm32f0xx_rcc.c **** 
 434:..\..\STM32F0-Discovery_FW_V1.0.0\Libraries\STM32F0xx_StdPeriph_Driver\src/stm32f0xx_rcc.c ****   /* Set the LSE Drive */
 435:..\..\STM32F0-Discovery_FW_V1.0.0\Libraries\STM32F0xx_StdPeriph_Driver\src/stm32f0xx_rcc.c ****   RCC->BDCR |= RCC_LSEDrive;
 436:..\..\STM32F0-Discovery_FW_V1.0.0\Libraries\STM32F0xx_StdPeriph_Driver\src/stm32f0xx_rcc.c **** }
 408              		.loc 1 436 0
 409              		@ sp needed	@
 432:..\..\STM32F0-Discovery_FW_V1.0.0\Libraries\STM32F0xx_StdPeriph_Driver\src/stm32f0xx_rcc.c **** 
 410              		.loc 1 432 0
 411 0104 1A6A     		ldr	r2, [r3, #32]	@ D.5370, MEM[(struct RCC_TypeDef *)1073876992B].BDCR
 412 0106 8A43     		bic	r2, r1	@ D.5370, tmp116
 413 0108 1A62     		str	r2, [r3, #32]	@ D.5370, MEM[(struct RCC_TypeDef *)1073876992B].BDCR
 435:..\..\STM32F0-Discovery_FW_V1.0.0\Libraries\STM32F0xx_StdPeriph_Driver\src/stm32f0xx_rcc.c **** }
 414              		.loc 1 435 0
 415 010a 1A6A     		ldr	r2, [r3, #32]	@ D.5370, MEM[(struct RCC_TypeDef *)1073876992B].BDCR
 416 010c 1043     		orr	r0, r2	@ D.5370, D.5370
 417              	.LVL17:
 418 010e 1862     		str	r0, [r3, #32]	@ D.5370, MEM[(struct RCC_TypeDef *)1073876992B].BDCR
 419              		.loc 1 436 0
 420 0110 7047     		bx	lr
 421              	.L37:
 422 0112 C046     		.align	2
 423              	.L36:
 424 0114 00100240 		.word	1073876992
 425              		.cfi_endproc
 426              	.LFE41:
 427              		.size	RCC_LSEDriveConfig, .-RCC_LSEDriveConfig
 428              		.align	1
 429              		.global	RCC_LSICmd
 430              		.code	16
 431              		.thumb_func
 432              		.type	RCC_LSICmd, %function
 433              	RCC_LSICmd:
 434              	.LFB42:
 437:..\..\STM32F0-Discovery_FW_V1.0.0\Libraries\STM32F0xx_StdPeriph_Driver\src/stm32f0xx_rcc.c **** 
 438:..\..\STM32F0-Discovery_FW_V1.0.0\Libraries\STM32F0xx_StdPeriph_Driver\src/stm32f0xx_rcc.c **** /**
 439:..\..\STM32F0-Discovery_FW_V1.0.0\Libraries\STM32F0xx_StdPeriph_Driver\src/stm32f0xx_rcc.c ****   * @brief  Enables or disables the Internal Low Speed oscillator (LSI).
 440:..\..\STM32F0-Discovery_FW_V1.0.0\Libraries\STM32F0xx_StdPeriph_Driver\src/stm32f0xx_rcc.c ****   * @note     After enabling the LSI, the application software should wait on 
 441:..\..\STM32F0-Discovery_FW_V1.0.0\Libraries\STM32F0xx_StdPeriph_Driver\src/stm32f0xx_rcc.c ****   *           LSIRDY flag to be set indicating that LSI clock is stable and can
 442:..\..\STM32F0-Discovery_FW_V1.0.0\Libraries\STM32F0xx_StdPeriph_Driver\src/stm32f0xx_rcc.c ****   *           be used to clock the IWDG and/or the RTC.
 443:..\..\STM32F0-Discovery_FW_V1.0.0\Libraries\STM32F0xx_StdPeriph_Driver\src/stm32f0xx_rcc.c ****   * @note     LSI can not be disabled if the IWDG is running.
 444:..\..\STM32F0-Discovery_FW_V1.0.0\Libraries\STM32F0xx_StdPeriph_Driver\src/stm32f0xx_rcc.c ****   * @param  NewState: new state of the LSI.
 445:..\..\STM32F0-Discovery_FW_V1.0.0\Libraries\STM32F0xx_StdPeriph_Driver\src/stm32f0xx_rcc.c ****   *         This parameter can be: ENABLE or DISABLE.
 446:..\..\STM32F0-Discovery_FW_V1.0.0\Libraries\STM32F0xx_StdPeriph_Driver\src/stm32f0xx_rcc.c ****   * @note   When the LSI is stopped, LSIRDY flag goes low after 6 LSI oscillator
 447:..\..\STM32F0-Discovery_FW_V1.0.0\Libraries\STM32F0xx_StdPeriph_Driver\src/stm32f0xx_rcc.c ****   *         clock cycles.
ARM GAS  C:\Users\Doles\AppData\Local\Temp\ccw5cB6c.s 			page 17


 448:..\..\STM32F0-Discovery_FW_V1.0.0\Libraries\STM32F0xx_StdPeriph_Driver\src/stm32f0xx_rcc.c ****   * @retval None
 449:..\..\STM32F0-Discovery_FW_V1.0.0\Libraries\STM32F0xx_StdPeriph_Driver\src/stm32f0xx_rcc.c ****   */
 450:..\..\STM32F0-Discovery_FW_V1.0.0\Libraries\STM32F0xx_StdPeriph_Driver\src/stm32f0xx_rcc.c **** void RCC_LSICmd(FunctionalState NewState)
 451:..\..\STM32F0-Discovery_FW_V1.0.0\Libraries\STM32F0xx_StdPeriph_Driver\src/stm32f0xx_rcc.c **** {
 435              		.loc 1 451 0
 436              		.cfi_startproc
 437              	.LVL18:
 438 0118 044B     		ldr	r3, .L42	@ tmp121,
 439 011a 0121     		mov	r1, #1	@ tmp122,
 452:..\..\STM32F0-Discovery_FW_V1.0.0\Libraries\STM32F0xx_StdPeriph_Driver\src/stm32f0xx_rcc.c ****   /* Check the parameters */
 453:..\..\STM32F0-Discovery_FW_V1.0.0\Libraries\STM32F0xx_StdPeriph_Driver\src/stm32f0xx_rcc.c ****   assert_param(IS_FUNCTIONAL_STATE(NewState));
 454:..\..\STM32F0-Discovery_FW_V1.0.0\Libraries\STM32F0xx_StdPeriph_Driver\src/stm32f0xx_rcc.c ****   
 455:..\..\STM32F0-Discovery_FW_V1.0.0\Libraries\STM32F0xx_StdPeriph_Driver\src/stm32f0xx_rcc.c ****   if (NewState != DISABLE)
 456:..\..\STM32F0-Discovery_FW_V1.0.0\Libraries\STM32F0xx_StdPeriph_Driver\src/stm32f0xx_rcc.c ****   {
 457:..\..\STM32F0-Discovery_FW_V1.0.0\Libraries\STM32F0xx_StdPeriph_Driver\src/stm32f0xx_rcc.c ****     RCC->CSR |= RCC_CSR_LSION;
 440              		.loc 1 457 0
 441 011c 5A6A     		ldr	r2, [r3, #36]	@ D.5373,
 455:..\..\STM32F0-Discovery_FW_V1.0.0\Libraries\STM32F0xx_StdPeriph_Driver\src/stm32f0xx_rcc.c ****   {
 442              		.loc 1 455 0
 443 011e 0028     		cmp	r0, #0	@ NewState,
 444 0120 01D0     		beq	.L39	@,
 445              		.loc 1 457 0
 446 0122 0A43     		orr	r2, r1	@ D.5373, tmp122
 447 0124 00E0     		b	.L41	@
 448              	.L39:
 458:..\..\STM32F0-Discovery_FW_V1.0.0\Libraries\STM32F0xx_StdPeriph_Driver\src/stm32f0xx_rcc.c ****   }
 459:..\..\STM32F0-Discovery_FW_V1.0.0\Libraries\STM32F0xx_StdPeriph_Driver\src/stm32f0xx_rcc.c ****   else
 460:..\..\STM32F0-Discovery_FW_V1.0.0\Libraries\STM32F0xx_StdPeriph_Driver\src/stm32f0xx_rcc.c ****   {
 461:..\..\STM32F0-Discovery_FW_V1.0.0\Libraries\STM32F0xx_StdPeriph_Driver\src/stm32f0xx_rcc.c ****     RCC->CSR &= ~RCC_CSR_LSION;
 449              		.loc 1 461 0
 450 0126 8A43     		bic	r2, r1	@ D.5373, tmp122
 451              	.L41:
 452 0128 5A62     		str	r2, [r3, #36]	@ D.5373,
 462:..\..\STM32F0-Discovery_FW_V1.0.0\Libraries\STM32F0xx_StdPeriph_Driver\src/stm32f0xx_rcc.c ****   }
 463:..\..\STM32F0-Discovery_FW_V1.0.0\Libraries\STM32F0xx_StdPeriph_Driver\src/stm32f0xx_rcc.c **** }
 453              		.loc 1 463 0
 454              		@ sp needed	@
 455 012a 7047     		bx	lr
 456              	.L43:
 457              		.align	2
 458              	.L42:
 459 012c 00100240 		.word	1073876992
 460              		.cfi_endproc
 461              	.LFE42:
 462              		.size	RCC_LSICmd, .-RCC_LSICmd
 463              		.align	1
 464              		.global	RCC_PLLConfig
 465              		.code	16
 466              		.thumb_func
 467              		.type	RCC_PLLConfig, %function
 468              	RCC_PLLConfig:
 469              	.LFB43:
 464:..\..\STM32F0-Discovery_FW_V1.0.0\Libraries\STM32F0xx_StdPeriph_Driver\src/stm32f0xx_rcc.c **** 
 465:..\..\STM32F0-Discovery_FW_V1.0.0\Libraries\STM32F0xx_StdPeriph_Driver\src/stm32f0xx_rcc.c **** /**
 466:..\..\STM32F0-Discovery_FW_V1.0.0\Libraries\STM32F0xx_StdPeriph_Driver\src/stm32f0xx_rcc.c ****   * @brief  Configures the PLL clock source and multiplication factor.
 467:..\..\STM32F0-Discovery_FW_V1.0.0\Libraries\STM32F0xx_StdPeriph_Driver\src/stm32f0xx_rcc.c ****   * @note   This function must be used only when the PLL is disabled.
 468:..\..\STM32F0-Discovery_FW_V1.0.0\Libraries\STM32F0xx_StdPeriph_Driver\src/stm32f0xx_rcc.c ****   *
ARM GAS  C:\Users\Doles\AppData\Local\Temp\ccw5cB6c.s 			page 18


 469:..\..\STM32F0-Discovery_FW_V1.0.0\Libraries\STM32F0xx_StdPeriph_Driver\src/stm32f0xx_rcc.c ****   * @param  RCC_PLLSource: specifies the PLL entry clock source.
 470:..\..\STM32F0-Discovery_FW_V1.0.0\Libraries\STM32F0xx_StdPeriph_Driver\src/stm32f0xx_rcc.c ****   *   This parameter can be one of the following values:
 471:..\..\STM32F0-Discovery_FW_V1.0.0\Libraries\STM32F0xx_StdPeriph_Driver\src/stm32f0xx_rcc.c ****   *     @arg RCC_PLLSource_HSI_Div2: HSI oscillator clock selected as PLL clock source
 472:..\..\STM32F0-Discovery_FW_V1.0.0\Libraries\STM32F0xx_StdPeriph_Driver\src/stm32f0xx_rcc.c ****   *     @arg RCC_PLLSource_PREDIV1: PREDIV1 clock selected as PLL clock entry
 473:..\..\STM32F0-Discovery_FW_V1.0.0\Libraries\STM32F0xx_StdPeriph_Driver\src/stm32f0xx_rcc.c ****   * @note   The minimum input clock frequency for PLL is 2 MHz (when using HSE as
 474:..\..\STM32F0-Discovery_FW_V1.0.0\Libraries\STM32F0xx_StdPeriph_Driver\src/stm32f0xx_rcc.c ****   *         PLL source).
 475:..\..\STM32F0-Discovery_FW_V1.0.0\Libraries\STM32F0xx_StdPeriph_Driver\src/stm32f0xx_rcc.c ****   *
 476:..\..\STM32F0-Discovery_FW_V1.0.0\Libraries\STM32F0xx_StdPeriph_Driver\src/stm32f0xx_rcc.c ****   * @param  RCC_PLLMul: specifies the PLL multiplication factor, which drive the PLLVCO clock
 477:..\..\STM32F0-Discovery_FW_V1.0.0\Libraries\STM32F0xx_StdPeriph_Driver\src/stm32f0xx_rcc.c ****   *         This parameter can be RCC_PLLMul_x where x:[2,16] 
 478:..\..\STM32F0-Discovery_FW_V1.0.0\Libraries\STM32F0xx_StdPeriph_Driver\src/stm32f0xx_rcc.c ****   *
 479:..\..\STM32F0-Discovery_FW_V1.0.0\Libraries\STM32F0xx_StdPeriph_Driver\src/stm32f0xx_rcc.c ****   * @retval None
 480:..\..\STM32F0-Discovery_FW_V1.0.0\Libraries\STM32F0xx_StdPeriph_Driver\src/stm32f0xx_rcc.c ****   */
 481:..\..\STM32F0-Discovery_FW_V1.0.0\Libraries\STM32F0xx_StdPeriph_Driver\src/stm32f0xx_rcc.c **** void RCC_PLLConfig(uint32_t RCC_PLLSource, uint32_t RCC_PLLMul)
 482:..\..\STM32F0-Discovery_FW_V1.0.0\Libraries\STM32F0xx_StdPeriph_Driver\src/stm32f0xx_rcc.c **** {
 470              		.loc 1 482 0
 471              		.cfi_startproc
 472              	.LVL19:
 483:..\..\STM32F0-Discovery_FW_V1.0.0\Libraries\STM32F0xx_StdPeriph_Driver\src/stm32f0xx_rcc.c ****   /* Check the parameters */
 484:..\..\STM32F0-Discovery_FW_V1.0.0\Libraries\STM32F0xx_StdPeriph_Driver\src/stm32f0xx_rcc.c ****   assert_param(IS_RCC_PLL_SOURCE(RCC_PLLSource));
 485:..\..\STM32F0-Discovery_FW_V1.0.0\Libraries\STM32F0xx_StdPeriph_Driver\src/stm32f0xx_rcc.c ****   assert_param(IS_RCC_PLL_MUL(RCC_PLLMul));
 486:..\..\STM32F0-Discovery_FW_V1.0.0\Libraries\STM32F0xx_StdPeriph_Driver\src/stm32f0xx_rcc.c **** 
 487:..\..\STM32F0-Discovery_FW_V1.0.0\Libraries\STM32F0xx_StdPeriph_Driver\src/stm32f0xx_rcc.c ****   /* Clear PLL Source [16] and Multiplier [21:18] bits */
 488:..\..\STM32F0-Discovery_FW_V1.0.0\Libraries\STM32F0xx_StdPeriph_Driver\src/stm32f0xx_rcc.c ****   RCC->CFGR &= ~(RCC_CFGR_PLLMULL | RCC_CFGR_PLLSRC);
 473              		.loc 1 488 0
 474 0130 054B     		ldr	r3, .L45	@ tmp117,
 482:..\..\STM32F0-Discovery_FW_V1.0.0\Libraries\STM32F0xx_StdPeriph_Driver\src/stm32f0xx_rcc.c ****   /* Check the parameters */
 475              		.loc 1 482 0
 476 0132 10B5     		push	{r4, lr}	@
 477              	.LCFI0:
 478              		.cfi_def_cfa_offset 8
 479              		.cfi_offset 4, -8
 480              		.cfi_offset 14, -4
 481              		.loc 1 488 0
 482 0134 054A     		ldr	r2, .L45+4	@ tmp118,
 483 0136 5C68     		ldr	r4, [r3, #4]	@ D.5376, MEM[(struct RCC_TypeDef *)1073876992B].CFGR
 489:..\..\STM32F0-Discovery_FW_V1.0.0\Libraries\STM32F0xx_StdPeriph_Driver\src/stm32f0xx_rcc.c **** 
 490:..\..\STM32F0-Discovery_FW_V1.0.0\Libraries\STM32F0xx_StdPeriph_Driver\src/stm32f0xx_rcc.c ****   /* Set the PLL Source and Multiplier */
 491:..\..\STM32F0-Discovery_FW_V1.0.0\Libraries\STM32F0xx_StdPeriph_Driver\src/stm32f0xx_rcc.c ****   RCC->CFGR |= (uint32_t)(RCC_PLLSource | RCC_PLLMul);
 492:..\..\STM32F0-Discovery_FW_V1.0.0\Libraries\STM32F0xx_StdPeriph_Driver\src/stm32f0xx_rcc.c **** }
 484              		.loc 1 492 0
 485              		@ sp needed	@
 488:..\..\STM32F0-Discovery_FW_V1.0.0\Libraries\STM32F0xx_StdPeriph_Driver\src/stm32f0xx_rcc.c **** 
 486              		.loc 1 488 0
 487 0138 2240     		and	r2, r4	@ D.5376, D.5376
 488 013a 5A60     		str	r2, [r3, #4]	@ D.5376, MEM[(struct RCC_TypeDef *)1073876992B].CFGR
 491:..\..\STM32F0-Discovery_FW_V1.0.0\Libraries\STM32F0xx_StdPeriph_Driver\src/stm32f0xx_rcc.c **** }
 489              		.loc 1 491 0
 490 013c 5A68     		ldr	r2, [r3, #4]	@ D.5376, MEM[(struct RCC_TypeDef *)1073876992B].CFGR
 491 013e 1143     		orr	r1, r2	@ D.5376, D.5376
 492              	.LVL20:
 493 0140 0843     		orr	r0, r1	@ D.5376, D.5376
 494              	.LVL21:
 495 0142 5860     		str	r0, [r3, #4]	@ D.5376, MEM[(struct RCC_TypeDef *)1073876992B].CFGR
 496              		.loc 1 492 0
 497 0144 10BD     		pop	{r4, pc}
 498              	.L46:
 499 0146 C046     		.align	2
ARM GAS  C:\Users\Doles\AppData\Local\Temp\ccw5cB6c.s 			page 19


 500              	.L45:
 501 0148 00100240 		.word	1073876992
 502 014c FFFFC2FF 		.word	-3997697
 503              		.cfi_endproc
 504              	.LFE43:
 505              		.size	RCC_PLLConfig, .-RCC_PLLConfig
 506              		.align	1
 507              		.global	RCC_PLLCmd
 508              		.code	16
 509              		.thumb_func
 510              		.type	RCC_PLLCmd, %function
 511              	RCC_PLLCmd:
 512              	.LFB44:
 493:..\..\STM32F0-Discovery_FW_V1.0.0\Libraries\STM32F0xx_StdPeriph_Driver\src/stm32f0xx_rcc.c **** 
 494:..\..\STM32F0-Discovery_FW_V1.0.0\Libraries\STM32F0xx_StdPeriph_Driver\src/stm32f0xx_rcc.c **** /**
 495:..\..\STM32F0-Discovery_FW_V1.0.0\Libraries\STM32F0xx_StdPeriph_Driver\src/stm32f0xx_rcc.c ****   * @brief  Enables or disables the PLL.
 496:..\..\STM32F0-Discovery_FW_V1.0.0\Libraries\STM32F0xx_StdPeriph_Driver\src/stm32f0xx_rcc.c ****   * @note   - After enabling the PLL, the application software should wait on 
 497:..\..\STM32F0-Discovery_FW_V1.0.0\Libraries\STM32F0xx_StdPeriph_Driver\src/stm32f0xx_rcc.c ****   *           PLLRDY flag to be set indicating that PLL clock is stable and can
 498:..\..\STM32F0-Discovery_FW_V1.0.0\Libraries\STM32F0xx_StdPeriph_Driver\src/stm32f0xx_rcc.c ****   *           be used as system clock source.
 499:..\..\STM32F0-Discovery_FW_V1.0.0\Libraries\STM32F0xx_StdPeriph_Driver\src/stm32f0xx_rcc.c ****   *         - The PLL can not be disabled if it is used as system clock source
 500:..\..\STM32F0-Discovery_FW_V1.0.0\Libraries\STM32F0xx_StdPeriph_Driver\src/stm32f0xx_rcc.c ****   *         - The PLL is disabled by hardware when entering STOP and STANDBY modes.
 501:..\..\STM32F0-Discovery_FW_V1.0.0\Libraries\STM32F0xx_StdPeriph_Driver\src/stm32f0xx_rcc.c ****   * @param  NewState: new state of the PLL.
 502:..\..\STM32F0-Discovery_FW_V1.0.0\Libraries\STM32F0xx_StdPeriph_Driver\src/stm32f0xx_rcc.c ****   *         This parameter can be: ENABLE or DISABLE.
 503:..\..\STM32F0-Discovery_FW_V1.0.0\Libraries\STM32F0xx_StdPeriph_Driver\src/stm32f0xx_rcc.c ****   * @retval None
 504:..\..\STM32F0-Discovery_FW_V1.0.0\Libraries\STM32F0xx_StdPeriph_Driver\src/stm32f0xx_rcc.c ****   */
 505:..\..\STM32F0-Discovery_FW_V1.0.0\Libraries\STM32F0xx_StdPeriph_Driver\src/stm32f0xx_rcc.c **** void RCC_PLLCmd(FunctionalState NewState)
 506:..\..\STM32F0-Discovery_FW_V1.0.0\Libraries\STM32F0xx_StdPeriph_Driver\src/stm32f0xx_rcc.c **** {
 513              		.loc 1 506 0
 514              		.cfi_startproc
 515              	.LVL22:
 516 0150 064B     		ldr	r3, .L51	@ tmp121,
 507:..\..\STM32F0-Discovery_FW_V1.0.0\Libraries\STM32F0xx_StdPeriph_Driver\src/stm32f0xx_rcc.c ****   /* Check the parameters */
 508:..\..\STM32F0-Discovery_FW_V1.0.0\Libraries\STM32F0xx_StdPeriph_Driver\src/stm32f0xx_rcc.c ****   assert_param(IS_FUNCTIONAL_STATE(NewState));
 509:..\..\STM32F0-Discovery_FW_V1.0.0\Libraries\STM32F0xx_StdPeriph_Driver\src/stm32f0xx_rcc.c ****   
 510:..\..\STM32F0-Discovery_FW_V1.0.0\Libraries\STM32F0xx_StdPeriph_Driver\src/stm32f0xx_rcc.c ****   if (NewState != DISABLE)
 517              		.loc 1 510 0
 518 0152 0028     		cmp	r0, #0	@ NewState,
 519 0154 04D0     		beq	.L48	@,
 511:..\..\STM32F0-Discovery_FW_V1.0.0\Libraries\STM32F0xx_StdPeriph_Driver\src/stm32f0xx_rcc.c ****   {
 512:..\..\STM32F0-Discovery_FW_V1.0.0\Libraries\STM32F0xx_StdPeriph_Driver\src/stm32f0xx_rcc.c ****     RCC->CR |= RCC_CR_PLLON;
 520              		.loc 1 512 0
 521 0156 8021     		mov	r1, #128	@ tmp116,
 522 0158 1A68     		ldr	r2, [r3]	@ D.5379, MEM[(struct RCC_TypeDef *)1073876992B].CR
 523 015a 4904     		lsl	r1, r1, #17	@ tmp116, tmp116,
 524 015c 0A43     		orr	r2, r1	@ D.5379, tmp116
 525 015e 02E0     		b	.L50	@
 526              	.L48:
 513:..\..\STM32F0-Discovery_FW_V1.0.0\Libraries\STM32F0xx_StdPeriph_Driver\src/stm32f0xx_rcc.c ****   }
 514:..\..\STM32F0-Discovery_FW_V1.0.0\Libraries\STM32F0xx_StdPeriph_Driver\src/stm32f0xx_rcc.c ****   else
 515:..\..\STM32F0-Discovery_FW_V1.0.0\Libraries\STM32F0xx_StdPeriph_Driver\src/stm32f0xx_rcc.c ****   {
 516:..\..\STM32F0-Discovery_FW_V1.0.0\Libraries\STM32F0xx_StdPeriph_Driver\src/stm32f0xx_rcc.c ****     RCC->CR &= ~RCC_CR_PLLON;
 527              		.loc 1 516 0
 528 0160 1968     		ldr	r1, [r3]	@ D.5379, MEM[(struct RCC_TypeDef *)1073876992B].CR
 529 0162 034A     		ldr	r2, .L51+4	@ tmp119,
 530 0164 0A40     		and	r2, r1	@ D.5379, D.5379
 531              	.L50:
 532 0166 1A60     		str	r2, [r3]	@ D.5379,
ARM GAS  C:\Users\Doles\AppData\Local\Temp\ccw5cB6c.s 			page 20


 517:..\..\STM32F0-Discovery_FW_V1.0.0\Libraries\STM32F0xx_StdPeriph_Driver\src/stm32f0xx_rcc.c ****   }
 518:..\..\STM32F0-Discovery_FW_V1.0.0\Libraries\STM32F0xx_StdPeriph_Driver\src/stm32f0xx_rcc.c **** }
 533              		.loc 1 518 0
 534              		@ sp needed	@
 535 0168 7047     		bx	lr
 536              	.L52:
 537 016a C046     		.align	2
 538              	.L51:
 539 016c 00100240 		.word	1073876992
 540 0170 FFFFFFFE 		.word	-16777217
 541              		.cfi_endproc
 542              	.LFE44:
 543              		.size	RCC_PLLCmd, .-RCC_PLLCmd
 544              		.align	1
 545              		.global	RCC_PREDIV1Config
 546              		.code	16
 547              		.thumb_func
 548              		.type	RCC_PREDIV1Config, %function
 549              	RCC_PREDIV1Config:
 550              	.LFB45:
 519:..\..\STM32F0-Discovery_FW_V1.0.0\Libraries\STM32F0xx_StdPeriph_Driver\src/stm32f0xx_rcc.c **** 
 520:..\..\STM32F0-Discovery_FW_V1.0.0\Libraries\STM32F0xx_StdPeriph_Driver\src/stm32f0xx_rcc.c **** /**
 521:..\..\STM32F0-Discovery_FW_V1.0.0\Libraries\STM32F0xx_StdPeriph_Driver\src/stm32f0xx_rcc.c ****   * @brief  Configures the PREDIV1 division factor.
 522:..\..\STM32F0-Discovery_FW_V1.0.0\Libraries\STM32F0xx_StdPeriph_Driver\src/stm32f0xx_rcc.c ****   * @note   This function must be used only when the PLL is disabled.
 523:..\..\STM32F0-Discovery_FW_V1.0.0\Libraries\STM32F0xx_StdPeriph_Driver\src/stm32f0xx_rcc.c ****   * @param  RCC_PREDIV1_Div: specifies the PREDIV1 clock division factor.
 524:..\..\STM32F0-Discovery_FW_V1.0.0\Libraries\STM32F0xx_StdPeriph_Driver\src/stm32f0xx_rcc.c ****   *         This parameter can be RCC_PREDIV1_Divx where x:[1,16]
 525:..\..\STM32F0-Discovery_FW_V1.0.0\Libraries\STM32F0xx_StdPeriph_Driver\src/stm32f0xx_rcc.c ****   * @retval None
 526:..\..\STM32F0-Discovery_FW_V1.0.0\Libraries\STM32F0xx_StdPeriph_Driver\src/stm32f0xx_rcc.c ****   */
 527:..\..\STM32F0-Discovery_FW_V1.0.0\Libraries\STM32F0xx_StdPeriph_Driver\src/stm32f0xx_rcc.c **** void RCC_PREDIV1Config(uint32_t RCC_PREDIV1_Div)
 528:..\..\STM32F0-Discovery_FW_V1.0.0\Libraries\STM32F0xx_StdPeriph_Driver\src/stm32f0xx_rcc.c **** {
 551              		.loc 1 528 0
 552              		.cfi_startproc
 553              	.LVL23:
 529:..\..\STM32F0-Discovery_FW_V1.0.0\Libraries\STM32F0xx_StdPeriph_Driver\src/stm32f0xx_rcc.c ****   uint32_t tmpreg = 0;
 530:..\..\STM32F0-Discovery_FW_V1.0.0\Libraries\STM32F0xx_StdPeriph_Driver\src/stm32f0xx_rcc.c ****   
 531:..\..\STM32F0-Discovery_FW_V1.0.0\Libraries\STM32F0xx_StdPeriph_Driver\src/stm32f0xx_rcc.c ****   /* Check the parameters */
 532:..\..\STM32F0-Discovery_FW_V1.0.0\Libraries\STM32F0xx_StdPeriph_Driver\src/stm32f0xx_rcc.c ****   assert_param(IS_RCC_PREDIV1(RCC_PREDIV1_Div));
 533:..\..\STM32F0-Discovery_FW_V1.0.0\Libraries\STM32F0xx_StdPeriph_Driver\src/stm32f0xx_rcc.c **** 
 534:..\..\STM32F0-Discovery_FW_V1.0.0\Libraries\STM32F0xx_StdPeriph_Driver\src/stm32f0xx_rcc.c ****   tmpreg = RCC->CFGR2;
 535:..\..\STM32F0-Discovery_FW_V1.0.0\Libraries\STM32F0xx_StdPeriph_Driver\src/stm32f0xx_rcc.c ****   /* Clear PREDIV1[3:0] bits */
 536:..\..\STM32F0-Discovery_FW_V1.0.0\Libraries\STM32F0xx_StdPeriph_Driver\src/stm32f0xx_rcc.c ****   tmpreg &= ~(RCC_CFGR2_PREDIV1);
 554              		.loc 1 536 0
 555 0174 0F21     		mov	r1, #15	@ tmp115,
 534:..\..\STM32F0-Discovery_FW_V1.0.0\Libraries\STM32F0xx_StdPeriph_Driver\src/stm32f0xx_rcc.c ****   /* Clear PREDIV1[3:0] bits */
 556              		.loc 1 534 0
 557 0176 034A     		ldr	r2, .L54	@ tmp114,
 537:..\..\STM32F0-Discovery_FW_V1.0.0\Libraries\STM32F0xx_StdPeriph_Driver\src/stm32f0xx_rcc.c ****   /* Set the PREDIV1 division factor */
 538:..\..\STM32F0-Discovery_FW_V1.0.0\Libraries\STM32F0xx_StdPeriph_Driver\src/stm32f0xx_rcc.c ****   tmpreg |= RCC_PREDIV1_Div;
 539:..\..\STM32F0-Discovery_FW_V1.0.0\Libraries\STM32F0xx_StdPeriph_Driver\src/stm32f0xx_rcc.c ****   /* Store the new value */
 540:..\..\STM32F0-Discovery_FW_V1.0.0\Libraries\STM32F0xx_StdPeriph_Driver\src/stm32f0xx_rcc.c ****   RCC->CFGR2 = tmpreg;
 541:..\..\STM32F0-Discovery_FW_V1.0.0\Libraries\STM32F0xx_StdPeriph_Driver\src/stm32f0xx_rcc.c **** }
 558              		.loc 1 541 0
 559              		@ sp needed	@
 534:..\..\STM32F0-Discovery_FW_V1.0.0\Libraries\STM32F0xx_StdPeriph_Driver\src/stm32f0xx_rcc.c ****   /* Clear PREDIV1[3:0] bits */
 560              		.loc 1 534 0
 561 0178 D36A     		ldr	r3, [r2, #44]	@ tmpreg, MEM[(struct RCC_TypeDef *)1073876992B].CFGR2
 562              	.LVL24:
ARM GAS  C:\Users\Doles\AppData\Local\Temp\ccw5cB6c.s 			page 21


 536:..\..\STM32F0-Discovery_FW_V1.0.0\Libraries\STM32F0xx_StdPeriph_Driver\src/stm32f0xx_rcc.c ****   /* Set the PREDIV1 division factor */
 563              		.loc 1 536 0
 564 017a 8B43     		bic	r3, r1	@ tmpreg, tmp115
 565              	.LVL25:
 538:..\..\STM32F0-Discovery_FW_V1.0.0\Libraries\STM32F0xx_StdPeriph_Driver\src/stm32f0xx_rcc.c ****   /* Store the new value */
 566              		.loc 1 538 0
 567 017c 1843     		orr	r0, r3	@ tmpreg, tmpreg
 568              	.LVL26:
 540:..\..\STM32F0-Discovery_FW_V1.0.0\Libraries\STM32F0xx_StdPeriph_Driver\src/stm32f0xx_rcc.c **** }
 569              		.loc 1 540 0
 570 017e D062     		str	r0, [r2, #44]	@ tmpreg, MEM[(struct RCC_TypeDef *)1073876992B].CFGR2
 571              		.loc 1 541 0
 572 0180 7047     		bx	lr
 573              	.L55:
 574 0182 C046     		.align	2
 575              	.L54:
 576 0184 00100240 		.word	1073876992
 577              		.cfi_endproc
 578              	.LFE45:
 579              		.size	RCC_PREDIV1Config, .-RCC_PREDIV1Config
 580              		.align	1
 581              		.global	RCC_ClockSecuritySystemCmd
 582              		.code	16
 583              		.thumb_func
 584              		.type	RCC_ClockSecuritySystemCmd, %function
 585              	RCC_ClockSecuritySystemCmd:
 586              	.LFB46:
 542:..\..\STM32F0-Discovery_FW_V1.0.0\Libraries\STM32F0xx_StdPeriph_Driver\src/stm32f0xx_rcc.c **** 
 543:..\..\STM32F0-Discovery_FW_V1.0.0\Libraries\STM32F0xx_StdPeriph_Driver\src/stm32f0xx_rcc.c **** /**
 544:..\..\STM32F0-Discovery_FW_V1.0.0\Libraries\STM32F0xx_StdPeriph_Driver\src/stm32f0xx_rcc.c ****   * @brief  Enables or disables the Clock Security System.
 545:..\..\STM32F0-Discovery_FW_V1.0.0\Libraries\STM32F0xx_StdPeriph_Driver\src/stm32f0xx_rcc.c ****   * @note   If a failure is detected on the HSE oscillator clock, this oscillator
 546:..\..\STM32F0-Discovery_FW_V1.0.0\Libraries\STM32F0xx_StdPeriph_Driver\src/stm32f0xx_rcc.c ****   *         is automatically disabled and an interrupt is generated to inform the
 547:..\..\STM32F0-Discovery_FW_V1.0.0\Libraries\STM32F0xx_StdPeriph_Driver\src/stm32f0xx_rcc.c ****   *         software about the failure (Clock Security System Interrupt, CSSI),
 548:..\..\STM32F0-Discovery_FW_V1.0.0\Libraries\STM32F0xx_StdPeriph_Driver\src/stm32f0xx_rcc.c ****   *         allowing the MCU to perform rescue operations. The CSSI is linked to 
 549:..\..\STM32F0-Discovery_FW_V1.0.0\Libraries\STM32F0xx_StdPeriph_Driver\src/stm32f0xx_rcc.c ****   *         the Cortex-M0 NMI (Non-Maskable Interrupt) exception vector.
 550:..\..\STM32F0-Discovery_FW_V1.0.0\Libraries\STM32F0xx_StdPeriph_Driver\src/stm32f0xx_rcc.c ****   * @param  NewState: new state of the Clock Security System.
 551:..\..\STM32F0-Discovery_FW_V1.0.0\Libraries\STM32F0xx_StdPeriph_Driver\src/stm32f0xx_rcc.c ****   *         This parameter can be: ENABLE or DISABLE.
 552:..\..\STM32F0-Discovery_FW_V1.0.0\Libraries\STM32F0xx_StdPeriph_Driver\src/stm32f0xx_rcc.c ****   * @retval None
 553:..\..\STM32F0-Discovery_FW_V1.0.0\Libraries\STM32F0xx_StdPeriph_Driver\src/stm32f0xx_rcc.c ****   */
 554:..\..\STM32F0-Discovery_FW_V1.0.0\Libraries\STM32F0xx_StdPeriph_Driver\src/stm32f0xx_rcc.c **** void RCC_ClockSecuritySystemCmd(FunctionalState NewState)
 555:..\..\STM32F0-Discovery_FW_V1.0.0\Libraries\STM32F0xx_StdPeriph_Driver\src/stm32f0xx_rcc.c **** {
 587              		.loc 1 555 0
 588              		.cfi_startproc
 589              	.LVL27:
 590 0188 064B     		ldr	r3, .L60	@ tmp121,
 556:..\..\STM32F0-Discovery_FW_V1.0.0\Libraries\STM32F0xx_StdPeriph_Driver\src/stm32f0xx_rcc.c ****   /* Check the parameters */
 557:..\..\STM32F0-Discovery_FW_V1.0.0\Libraries\STM32F0xx_StdPeriph_Driver\src/stm32f0xx_rcc.c ****   assert_param(IS_FUNCTIONAL_STATE(NewState));
 558:..\..\STM32F0-Discovery_FW_V1.0.0\Libraries\STM32F0xx_StdPeriph_Driver\src/stm32f0xx_rcc.c ****   
 559:..\..\STM32F0-Discovery_FW_V1.0.0\Libraries\STM32F0xx_StdPeriph_Driver\src/stm32f0xx_rcc.c ****   if (NewState != DISABLE)
 591              		.loc 1 559 0
 592 018a 0028     		cmp	r0, #0	@ NewState,
 593 018c 04D0     		beq	.L57	@,
 560:..\..\STM32F0-Discovery_FW_V1.0.0\Libraries\STM32F0xx_StdPeriph_Driver\src/stm32f0xx_rcc.c ****   {
 561:..\..\STM32F0-Discovery_FW_V1.0.0\Libraries\STM32F0xx_StdPeriph_Driver\src/stm32f0xx_rcc.c ****     RCC->CR |= RCC_CR_CSSON;
 594              		.loc 1 561 0
 595 018e 8021     		mov	r1, #128	@ tmp116,
 596 0190 1A68     		ldr	r2, [r3]	@ D.5384, MEM[(struct RCC_TypeDef *)1073876992B].CR
ARM GAS  C:\Users\Doles\AppData\Local\Temp\ccw5cB6c.s 			page 22


 597 0192 0903     		lsl	r1, r1, #12	@ tmp116, tmp116,
 598 0194 0A43     		orr	r2, r1	@ D.5384, tmp116
 599 0196 02E0     		b	.L59	@
 600              	.L57:
 562:..\..\STM32F0-Discovery_FW_V1.0.0\Libraries\STM32F0xx_StdPeriph_Driver\src/stm32f0xx_rcc.c ****   }
 563:..\..\STM32F0-Discovery_FW_V1.0.0\Libraries\STM32F0xx_StdPeriph_Driver\src/stm32f0xx_rcc.c ****   else
 564:..\..\STM32F0-Discovery_FW_V1.0.0\Libraries\STM32F0xx_StdPeriph_Driver\src/stm32f0xx_rcc.c ****   {
 565:..\..\STM32F0-Discovery_FW_V1.0.0\Libraries\STM32F0xx_StdPeriph_Driver\src/stm32f0xx_rcc.c ****     RCC->CR &= ~RCC_CR_CSSON;
 601              		.loc 1 565 0
 602 0198 1968     		ldr	r1, [r3]	@ D.5384, MEM[(struct RCC_TypeDef *)1073876992B].CR
 603 019a 034A     		ldr	r2, .L60+4	@ tmp119,
 604 019c 0A40     		and	r2, r1	@ D.5384, D.5384
 605              	.L59:
 606 019e 1A60     		str	r2, [r3]	@ D.5384,
 566:..\..\STM32F0-Discovery_FW_V1.0.0\Libraries\STM32F0xx_StdPeriph_Driver\src/stm32f0xx_rcc.c ****   }
 567:..\..\STM32F0-Discovery_FW_V1.0.0\Libraries\STM32F0xx_StdPeriph_Driver\src/stm32f0xx_rcc.c **** }
 607              		.loc 1 567 0
 608              		@ sp needed	@
 609 01a0 7047     		bx	lr
 610              	.L61:
 611 01a2 C046     		.align	2
 612              	.L60:
 613 01a4 00100240 		.word	1073876992
 614 01a8 FFFFF7FF 		.word	-524289
 615              		.cfi_endproc
 616              	.LFE46:
 617              		.size	RCC_ClockSecuritySystemCmd, .-RCC_ClockSecuritySystemCmd
 618              		.align	1
 619              		.global	RCC_MCOConfig
 620              		.code	16
 621              		.thumb_func
 622              		.type	RCC_MCOConfig, %function
 623              	RCC_MCOConfig:
 624              	.LFB47:
 568:..\..\STM32F0-Discovery_FW_V1.0.0\Libraries\STM32F0xx_StdPeriph_Driver\src/stm32f0xx_rcc.c **** 
 569:..\..\STM32F0-Discovery_FW_V1.0.0\Libraries\STM32F0xx_StdPeriph_Driver\src/stm32f0xx_rcc.c **** /**
 570:..\..\STM32F0-Discovery_FW_V1.0.0\Libraries\STM32F0xx_StdPeriph_Driver\src/stm32f0xx_rcc.c ****   * @brief  Selects the clock source to output on MCO pin (PA8).
 571:..\..\STM32F0-Discovery_FW_V1.0.0\Libraries\STM32F0xx_StdPeriph_Driver\src/stm32f0xx_rcc.c ****   * @note   PA8 should be configured in alternate function mode.
 572:..\..\STM32F0-Discovery_FW_V1.0.0\Libraries\STM32F0xx_StdPeriph_Driver\src/stm32f0xx_rcc.c ****   * @param  RCC_MCOSource: specifies the clock source to output.
 573:..\..\STM32F0-Discovery_FW_V1.0.0\Libraries\STM32F0xx_StdPeriph_Driver\src/stm32f0xx_rcc.c ****   *   This parameter can be one of the following values:
 574:..\..\STM32F0-Discovery_FW_V1.0.0\Libraries\STM32F0xx_StdPeriph_Driver\src/stm32f0xx_rcc.c ****   *     @arg RCC_MCOSource_NoClock: No clock selected.
 575:..\..\STM32F0-Discovery_FW_V1.0.0\Libraries\STM32F0xx_StdPeriph_Driver\src/stm32f0xx_rcc.c ****   *     @arg RCC_MCOSource_HSI14: HSI14 oscillator clock selected.
 576:..\..\STM32F0-Discovery_FW_V1.0.0\Libraries\STM32F0xx_StdPeriph_Driver\src/stm32f0xx_rcc.c ****   *     @arg RCC_MCOSource_LSI: LSI oscillator clock selected.
 577:..\..\STM32F0-Discovery_FW_V1.0.0\Libraries\STM32F0xx_StdPeriph_Driver\src/stm32f0xx_rcc.c ****   *     @arg RCC_MCOSource_LSE: LSE oscillator clock selected.
 578:..\..\STM32F0-Discovery_FW_V1.0.0\Libraries\STM32F0xx_StdPeriph_Driver\src/stm32f0xx_rcc.c ****   *     @arg RCC_MCOSource_SYSCLK: System clock selected.
 579:..\..\STM32F0-Discovery_FW_V1.0.0\Libraries\STM32F0xx_StdPeriph_Driver\src/stm32f0xx_rcc.c ****   *     @arg RCC_MCOSource_HSI: HSI oscillator clock selected.
 580:..\..\STM32F0-Discovery_FW_V1.0.0\Libraries\STM32F0xx_StdPeriph_Driver\src/stm32f0xx_rcc.c ****   *     @arg RCC_MCOSource_HSE: HSE oscillator clock selected.
 581:..\..\STM32F0-Discovery_FW_V1.0.0\Libraries\STM32F0xx_StdPeriph_Driver\src/stm32f0xx_rcc.c ****   *     @arg RCC_MCOSource_PLLCLK_Div2: PLL clock divided by 2 selected.
 582:..\..\STM32F0-Discovery_FW_V1.0.0\Libraries\STM32F0xx_StdPeriph_Driver\src/stm32f0xx_rcc.c ****   * @retval None
 583:..\..\STM32F0-Discovery_FW_V1.0.0\Libraries\STM32F0xx_StdPeriph_Driver\src/stm32f0xx_rcc.c ****   */
 584:..\..\STM32F0-Discovery_FW_V1.0.0\Libraries\STM32F0xx_StdPeriph_Driver\src/stm32f0xx_rcc.c **** void RCC_MCOConfig(uint8_t RCC_MCOSource)
 585:..\..\STM32F0-Discovery_FW_V1.0.0\Libraries\STM32F0xx_StdPeriph_Driver\src/stm32f0xx_rcc.c **** {
 625              		.loc 1 585 0
 626              		.cfi_startproc
 627              	.LVL28:
 586:..\..\STM32F0-Discovery_FW_V1.0.0\Libraries\STM32F0xx_StdPeriph_Driver\src/stm32f0xx_rcc.c ****   /* Check the parameters */
 587:..\..\STM32F0-Discovery_FW_V1.0.0\Libraries\STM32F0xx_StdPeriph_Driver\src/stm32f0xx_rcc.c ****   assert_param(IS_RCC_MCO_SOURCE(RCC_MCOSource));
ARM GAS  C:\Users\Doles\AppData\Local\Temp\ccw5cB6c.s 			page 23


 588:..\..\STM32F0-Discovery_FW_V1.0.0\Libraries\STM32F0xx_StdPeriph_Driver\src/stm32f0xx_rcc.c ****     
 589:..\..\STM32F0-Discovery_FW_V1.0.0\Libraries\STM32F0xx_StdPeriph_Driver\src/stm32f0xx_rcc.c ****   /* Select MCO clock source and prescaler */
 590:..\..\STM32F0-Discovery_FW_V1.0.0\Libraries\STM32F0xx_StdPeriph_Driver\src/stm32f0xx_rcc.c ****   *(__IO uint8_t *) CFGR_BYTE3_ADDRESS =  RCC_MCOSource;
 628              		.loc 1 590 0
 629 01ac 014B     		ldr	r3, .L63	@ tmp111,
 591:..\..\STM32F0-Discovery_FW_V1.0.0\Libraries\STM32F0xx_StdPeriph_Driver\src/stm32f0xx_rcc.c **** }
 630              		.loc 1 591 0
 631              		@ sp needed	@
 590:..\..\STM32F0-Discovery_FW_V1.0.0\Libraries\STM32F0xx_StdPeriph_Driver\src/stm32f0xx_rcc.c **** }
 632              		.loc 1 590 0
 633 01ae 1870     		strb	r0, [r3]	@ RCC_MCOSource, MEM[(volatile uint8_t *)1073876999B]
 634              		.loc 1 591 0
 635 01b0 7047     		bx	lr
 636              	.L64:
 637 01b2 C046     		.align	2
 638              	.L63:
 639 01b4 07100240 		.word	1073876999
 640              		.cfi_endproc
 641              	.LFE47:
 642              		.size	RCC_MCOConfig, .-RCC_MCOConfig
 643              		.align	1
 644              		.global	RCC_SYSCLKConfig
 645              		.code	16
 646              		.thumb_func
 647              		.type	RCC_SYSCLKConfig, %function
 648              	RCC_SYSCLKConfig:
 649              	.LFB48:
 592:..\..\STM32F0-Discovery_FW_V1.0.0\Libraries\STM32F0xx_StdPeriph_Driver\src/stm32f0xx_rcc.c **** 
 593:..\..\STM32F0-Discovery_FW_V1.0.0\Libraries\STM32F0xx_StdPeriph_Driver\src/stm32f0xx_rcc.c **** /**
 594:..\..\STM32F0-Discovery_FW_V1.0.0\Libraries\STM32F0xx_StdPeriph_Driver\src/stm32f0xx_rcc.c ****   * @}
 595:..\..\STM32F0-Discovery_FW_V1.0.0\Libraries\STM32F0xx_StdPeriph_Driver\src/stm32f0xx_rcc.c ****   */
 596:..\..\STM32F0-Discovery_FW_V1.0.0\Libraries\STM32F0xx_StdPeriph_Driver\src/stm32f0xx_rcc.c **** 
 597:..\..\STM32F0-Discovery_FW_V1.0.0\Libraries\STM32F0xx_StdPeriph_Driver\src/stm32f0xx_rcc.c **** /** @defgroup RCC_Group2 System AHB and APB busses clocks configuration functions
 598:..\..\STM32F0-Discovery_FW_V1.0.0\Libraries\STM32F0xx_StdPeriph_Driver\src/stm32f0xx_rcc.c ****  *  @brief   System, AHB and APB busses clocks configuration functions
 599:..\..\STM32F0-Discovery_FW_V1.0.0\Libraries\STM32F0xx_StdPeriph_Driver\src/stm32f0xx_rcc.c ****  *
 600:..\..\STM32F0-Discovery_FW_V1.0.0\Libraries\STM32F0xx_StdPeriph_Driver\src/stm32f0xx_rcc.c **** @verbatim
 601:..\..\STM32F0-Discovery_FW_V1.0.0\Libraries\STM32F0xx_StdPeriph_Driver\src/stm32f0xx_rcc.c ****  ===============================================================================
 602:..\..\STM32F0-Discovery_FW_V1.0.0\Libraries\STM32F0xx_StdPeriph_Driver\src/stm32f0xx_rcc.c ****      ##### System, AHB and APB busses clocks configuration functions #####
 603:..\..\STM32F0-Discovery_FW_V1.0.0\Libraries\STM32F0xx_StdPeriph_Driver\src/stm32f0xx_rcc.c ****  ===============================================================================
 604:..\..\STM32F0-Discovery_FW_V1.0.0\Libraries\STM32F0xx_StdPeriph_Driver\src/stm32f0xx_rcc.c **** 
 605:..\..\STM32F0-Discovery_FW_V1.0.0\Libraries\STM32F0xx_StdPeriph_Driver\src/stm32f0xx_rcc.c ****     [..] This section provide functions allowing to configure the System, AHB and 
 606:..\..\STM32F0-Discovery_FW_V1.0.0\Libraries\STM32F0xx_StdPeriph_Driver\src/stm32f0xx_rcc.c ****          APB busses clocks.
 607:..\..\STM32F0-Discovery_FW_V1.0.0\Libraries\STM32F0xx_StdPeriph_Driver\src/stm32f0xx_rcc.c ****          (#) Several clock sources can be used to drive the System clock (SYSCLK): HSI,
 608:..\..\STM32F0-Discovery_FW_V1.0.0\Libraries\STM32F0xx_StdPeriph_Driver\src/stm32f0xx_rcc.c ****              HSE and PLL.
 609:..\..\STM32F0-Discovery_FW_V1.0.0\Libraries\STM32F0xx_StdPeriph_Driver\src/stm32f0xx_rcc.c ****              The AHB clock (HCLK) is derived from System clock through configurable prescaler
 610:..\..\STM32F0-Discovery_FW_V1.0.0\Libraries\STM32F0xx_StdPeriph_Driver\src/stm32f0xx_rcc.c ****              and used to clock the CPU, memory and peripherals mapped on AHB bus (DMA and GPIO).
 611:..\..\STM32F0-Discovery_FW_V1.0.0\Libraries\STM32F0xx_StdPeriph_Driver\src/stm32f0xx_rcc.c ****              and APB (PCLK) clocks are derived from AHB clock through 
 612:..\..\STM32F0-Discovery_FW_V1.0.0\Libraries\STM32F0xx_StdPeriph_Driver\src/stm32f0xx_rcc.c ****              configurable prescalers and used to clock the peripherals mapped on these busses.
 613:..\..\STM32F0-Discovery_FW_V1.0.0\Libraries\STM32F0xx_StdPeriph_Driver\src/stm32f0xx_rcc.c ****              You can use "RCC_GetClocksFreq()" function to retrieve the frequencies of these clocks
 614:..\..\STM32F0-Discovery_FW_V1.0.0\Libraries\STM32F0xx_StdPeriph_Driver\src/stm32f0xx_rcc.c **** 
 615:..\..\STM32F0-Discovery_FW_V1.0.0\Libraries\STM32F0xx_StdPeriph_Driver\src/stm32f0xx_rcc.c ****          -@- All the peripheral clocks are derived from the System clock (SYSCLK) except:
 616:..\..\STM32F0-Discovery_FW_V1.0.0\Libraries\STM32F0xx_StdPeriph_Driver\src/stm32f0xx_rcc.c ****              (+@) The ADC clock which is derived from HSI14 or APB (APB divided by a
 617:..\..\STM32F0-Discovery_FW_V1.0.0\Libraries\STM32F0xx_StdPeriph_Driver\src/stm32f0xx_rcc.c ****                   programmable prescaler: 2 or 4).
 618:..\..\STM32F0-Discovery_FW_V1.0.0\Libraries\STM32F0xx_StdPeriph_Driver\src/stm32f0xx_rcc.c ****              (+@) The CEC clock which is derived from LSE or HSI divided by 244.
 619:..\..\STM32F0-Discovery_FW_V1.0.0\Libraries\STM32F0xx_StdPeriph_Driver\src/stm32f0xx_rcc.c ****              (+@) The I2C clock which is derived from HSI or system clock (SYSCLK).
 620:..\..\STM32F0-Discovery_FW_V1.0.0\Libraries\STM32F0xx_StdPeriph_Driver\src/stm32f0xx_rcc.c ****              (+@) The USART clock which is derived from HSI, system clock (SYSCLK), APB or LSE.
 621:..\..\STM32F0-Discovery_FW_V1.0.0\Libraries\STM32F0xx_StdPeriph_Driver\src/stm32f0xx_rcc.c ****              (+@) The RTC/LCD clock which is derived from the LSE, LSI or 2 MHz HSE_RTC (HSE
ARM GAS  C:\Users\Doles\AppData\Local\Temp\ccw5cB6c.s 			page 24


 622:..\..\STM32F0-Discovery_FW_V1.0.0\Libraries\STM32F0xx_StdPeriph_Driver\src/stm32f0xx_rcc.c ****                   divided by a programmable prescaler).
 623:..\..\STM32F0-Discovery_FW_V1.0.0\Libraries\STM32F0xx_StdPeriph_Driver\src/stm32f0xx_rcc.c ****                   The System clock (SYSCLK) frequency must be higher or equal to the RTC/LCD
 624:..\..\STM32F0-Discovery_FW_V1.0.0\Libraries\STM32F0xx_StdPeriph_Driver\src/stm32f0xx_rcc.c ****                   clock frequency.
 625:..\..\STM32F0-Discovery_FW_V1.0.0\Libraries\STM32F0xx_StdPeriph_Driver\src/stm32f0xx_rcc.c ****              (+@) IWDG clock which is always the LSI clock.
 626:..\..\STM32F0-Discovery_FW_V1.0.0\Libraries\STM32F0xx_StdPeriph_Driver\src/stm32f0xx_rcc.c ****        
 627:..\..\STM32F0-Discovery_FW_V1.0.0\Libraries\STM32F0xx_StdPeriph_Driver\src/stm32f0xx_rcc.c ****          (#) The maximum frequency of the SYSCLK, HCLK and PCLK is 48 MHz.
 628:..\..\STM32F0-Discovery_FW_V1.0.0\Libraries\STM32F0xx_StdPeriph_Driver\src/stm32f0xx_rcc.c ****              Depending on the maximum frequency, the FLASH wait states (WS) should be 
 629:..\..\STM32F0-Discovery_FW_V1.0.0\Libraries\STM32F0xx_StdPeriph_Driver\src/stm32f0xx_rcc.c ****              adapted accordingly:
 630:..\..\STM32F0-Discovery_FW_V1.0.0\Libraries\STM32F0xx_StdPeriph_Driver\src/stm32f0xx_rcc.c ****         +--------------------------------------------- +
 631:..\..\STM32F0-Discovery_FW_V1.0.0\Libraries\STM32F0xx_StdPeriph_Driver\src/stm32f0xx_rcc.c ****         |  Wait states  |   HCLK clock frequency (MHz) |
 632:..\..\STM32F0-Discovery_FW_V1.0.0\Libraries\STM32F0xx_StdPeriph_Driver\src/stm32f0xx_rcc.c ****         |---------------|------------------------------|
 633:..\..\STM32F0-Discovery_FW_V1.0.0\Libraries\STM32F0xx_StdPeriph_Driver\src/stm32f0xx_rcc.c ****         |0WS(1CPU cycle)|       0 < HCLK <= 24         |
 634:..\..\STM32F0-Discovery_FW_V1.0.0\Libraries\STM32F0xx_StdPeriph_Driver\src/stm32f0xx_rcc.c ****         |---------------|------------------------------|
 635:..\..\STM32F0-Discovery_FW_V1.0.0\Libraries\STM32F0xx_StdPeriph_Driver\src/stm32f0xx_rcc.c ****         |1WS(2CPU cycle)|       24 < HCLK <= 48        |
 636:..\..\STM32F0-Discovery_FW_V1.0.0\Libraries\STM32F0xx_StdPeriph_Driver\src/stm32f0xx_rcc.c ****         +----------------------------------------------+
 637:..\..\STM32F0-Discovery_FW_V1.0.0\Libraries\STM32F0xx_StdPeriph_Driver\src/stm32f0xx_rcc.c **** 
 638:..\..\STM32F0-Discovery_FW_V1.0.0\Libraries\STM32F0xx_StdPeriph_Driver\src/stm32f0xx_rcc.c ****          (#) After reset, the System clock source is the HSI (8 MHz) with 0 WS and 
 639:..\..\STM32F0-Discovery_FW_V1.0.0\Libraries\STM32F0xx_StdPeriph_Driver\src/stm32f0xx_rcc.c ****              prefetch is disabled.
 640:..\..\STM32F0-Discovery_FW_V1.0.0\Libraries\STM32F0xx_StdPeriph_Driver\src/stm32f0xx_rcc.c ****   
 641:..\..\STM32F0-Discovery_FW_V1.0.0\Libraries\STM32F0xx_StdPeriph_Driver\src/stm32f0xx_rcc.c ****     [..] It is recommended to use the following software sequences to tune the number
 642:..\..\STM32F0-Discovery_FW_V1.0.0\Libraries\STM32F0xx_StdPeriph_Driver\src/stm32f0xx_rcc.c ****          of wait states needed to access the Flash memory with the CPU frequency (HCLK).
 643:..\..\STM32F0-Discovery_FW_V1.0.0\Libraries\STM32F0xx_StdPeriph_Driver\src/stm32f0xx_rcc.c ****          (+) Increasing the CPU frequency
 644:..\..\STM32F0-Discovery_FW_V1.0.0\Libraries\STM32F0xx_StdPeriph_Driver\src/stm32f0xx_rcc.c ****          (++) Program the Flash Prefetch buffer, using "FLASH_PrefetchBufferCmd(ENABLE)" 
 645:..\..\STM32F0-Discovery_FW_V1.0.0\Libraries\STM32F0xx_StdPeriph_Driver\src/stm32f0xx_rcc.c ****               function
 646:..\..\STM32F0-Discovery_FW_V1.0.0\Libraries\STM32F0xx_StdPeriph_Driver\src/stm32f0xx_rcc.c ****          (++) Check that Flash Prefetch buffer activation is taken into account by 
 647:..\..\STM32F0-Discovery_FW_V1.0.0\Libraries\STM32F0xx_StdPeriph_Driver\src/stm32f0xx_rcc.c ****               reading FLASH_ACR using the FLASH_GetPrefetchBufferStatus() function
 648:..\..\STM32F0-Discovery_FW_V1.0.0\Libraries\STM32F0xx_StdPeriph_Driver\src/stm32f0xx_rcc.c ****          (++) Program Flash WS to 1, using "FLASH_SetLatency(FLASH_Latency_1)" function
 649:..\..\STM32F0-Discovery_FW_V1.0.0\Libraries\STM32F0xx_StdPeriph_Driver\src/stm32f0xx_rcc.c ****          (++) Check that the new number of WS is taken into account by reading FLASH_ACR
 650:..\..\STM32F0-Discovery_FW_V1.0.0\Libraries\STM32F0xx_StdPeriph_Driver\src/stm32f0xx_rcc.c ****          (++) Modify the CPU clock source, using "RCC_SYSCLKConfig()" function
 651:..\..\STM32F0-Discovery_FW_V1.0.0\Libraries\STM32F0xx_StdPeriph_Driver\src/stm32f0xx_rcc.c ****          (++) If needed, modify the CPU clock prescaler by using "RCC_HCLKConfig()" function
 652:..\..\STM32F0-Discovery_FW_V1.0.0\Libraries\STM32F0xx_StdPeriph_Driver\src/stm32f0xx_rcc.c ****          (++) Check that the new CPU clock source is taken into account by reading 
 653:..\..\STM32F0-Discovery_FW_V1.0.0\Libraries\STM32F0xx_StdPeriph_Driver\src/stm32f0xx_rcc.c ****               the clock source status, using "RCC_GetSYSCLKSource()" function 
 654:..\..\STM32F0-Discovery_FW_V1.0.0\Libraries\STM32F0xx_StdPeriph_Driver\src/stm32f0xx_rcc.c ****          (+) Decreasing the CPU frequency
 655:..\..\STM32F0-Discovery_FW_V1.0.0\Libraries\STM32F0xx_StdPeriph_Driver\src/stm32f0xx_rcc.c ****          (++) Modify the CPU clock source, using "RCC_SYSCLKConfig()" function
 656:..\..\STM32F0-Discovery_FW_V1.0.0\Libraries\STM32F0xx_StdPeriph_Driver\src/stm32f0xx_rcc.c ****          (++) If needed, modify the CPU clock prescaler by using "RCC_HCLKConfig()" function
 657:..\..\STM32F0-Discovery_FW_V1.0.0\Libraries\STM32F0xx_StdPeriph_Driver\src/stm32f0xx_rcc.c ****          (++) Check that the new CPU clock source is taken into account by reading 
 658:..\..\STM32F0-Discovery_FW_V1.0.0\Libraries\STM32F0xx_StdPeriph_Driver\src/stm32f0xx_rcc.c ****               the clock source status, using "RCC_GetSYSCLKSource()" function
 659:..\..\STM32F0-Discovery_FW_V1.0.0\Libraries\STM32F0xx_StdPeriph_Driver\src/stm32f0xx_rcc.c ****          (++) Program the new number of WS, using "FLASH_SetLatency()" function
 660:..\..\STM32F0-Discovery_FW_V1.0.0\Libraries\STM32F0xx_StdPeriph_Driver\src/stm32f0xx_rcc.c ****          (++) Check that the new number of WS is taken into account by reading FLASH_ACR
 661:..\..\STM32F0-Discovery_FW_V1.0.0\Libraries\STM32F0xx_StdPeriph_Driver\src/stm32f0xx_rcc.c ****          (++) Disable the Flash Prefetch buffer using "FLASH_PrefetchBufferCmd(DISABLE)" 
 662:..\..\STM32F0-Discovery_FW_V1.0.0\Libraries\STM32F0xx_StdPeriph_Driver\src/stm32f0xx_rcc.c ****               function
 663:..\..\STM32F0-Discovery_FW_V1.0.0\Libraries\STM32F0xx_StdPeriph_Driver\src/stm32f0xx_rcc.c ****          (++) Check that Flash Prefetch buffer deactivation is taken into account by reading FLASH_
 664:..\..\STM32F0-Discovery_FW_V1.0.0\Libraries\STM32F0xx_StdPeriph_Driver\src/stm32f0xx_rcc.c ****               using the FLASH_GetPrefetchBufferStatus() function.
 665:..\..\STM32F0-Discovery_FW_V1.0.0\Libraries\STM32F0xx_StdPeriph_Driver\src/stm32f0xx_rcc.c **** 
 666:..\..\STM32F0-Discovery_FW_V1.0.0\Libraries\STM32F0xx_StdPeriph_Driver\src/stm32f0xx_rcc.c **** @endverbatim
 667:..\..\STM32F0-Discovery_FW_V1.0.0\Libraries\STM32F0xx_StdPeriph_Driver\src/stm32f0xx_rcc.c ****   * @{
 668:..\..\STM32F0-Discovery_FW_V1.0.0\Libraries\STM32F0xx_StdPeriph_Driver\src/stm32f0xx_rcc.c ****   */
 669:..\..\STM32F0-Discovery_FW_V1.0.0\Libraries\STM32F0xx_StdPeriph_Driver\src/stm32f0xx_rcc.c **** 
 670:..\..\STM32F0-Discovery_FW_V1.0.0\Libraries\STM32F0xx_StdPeriph_Driver\src/stm32f0xx_rcc.c **** /**
 671:..\..\STM32F0-Discovery_FW_V1.0.0\Libraries\STM32F0xx_StdPeriph_Driver\src/stm32f0xx_rcc.c ****   * @brief  Configures the system clock (SYSCLK).
 672:..\..\STM32F0-Discovery_FW_V1.0.0\Libraries\STM32F0xx_StdPeriph_Driver\src/stm32f0xx_rcc.c ****   * @note    The HSI is used (enabled by hardware) as system clock source after
 673:..\..\STM32F0-Discovery_FW_V1.0.0\Libraries\STM32F0xx_StdPeriph_Driver\src/stm32f0xx_rcc.c ****   *           startup from Reset, wake-up from STOP and STANDBY mode, or in case
 674:..\..\STM32F0-Discovery_FW_V1.0.0\Libraries\STM32F0xx_StdPeriph_Driver\src/stm32f0xx_rcc.c ****   *           of failure of the HSE used directly or indirectly as system clock
 675:..\..\STM32F0-Discovery_FW_V1.0.0\Libraries\STM32F0xx_StdPeriph_Driver\src/stm32f0xx_rcc.c ****   *           (if the Clock Security System CSS is enabled).
 676:..\..\STM32F0-Discovery_FW_V1.0.0\Libraries\STM32F0xx_StdPeriph_Driver\src/stm32f0xx_rcc.c ****   * @note     A switch from one clock source to another occurs only if the target
 677:..\..\STM32F0-Discovery_FW_V1.0.0\Libraries\STM32F0xx_StdPeriph_Driver\src/stm32f0xx_rcc.c ****   *           clock source is ready (clock stable after startup delay or PLL locked). 
 678:..\..\STM32F0-Discovery_FW_V1.0.0\Libraries\STM32F0xx_StdPeriph_Driver\src/stm32f0xx_rcc.c ****   *           If a clock source which is not yet ready is selected, the switch will
ARM GAS  C:\Users\Doles\AppData\Local\Temp\ccw5cB6c.s 			page 25


 679:..\..\STM32F0-Discovery_FW_V1.0.0\Libraries\STM32F0xx_StdPeriph_Driver\src/stm32f0xx_rcc.c ****   *           occur when the clock source will be ready. 
 680:..\..\STM32F0-Discovery_FW_V1.0.0\Libraries\STM32F0xx_StdPeriph_Driver\src/stm32f0xx_rcc.c ****   *           You can use RCC_GetSYSCLKSource() function to know which clock is
 681:..\..\STM32F0-Discovery_FW_V1.0.0\Libraries\STM32F0xx_StdPeriph_Driver\src/stm32f0xx_rcc.c ****   *           currently used as system clock source.  
 682:..\..\STM32F0-Discovery_FW_V1.0.0\Libraries\STM32F0xx_StdPeriph_Driver\src/stm32f0xx_rcc.c ****   * @param  RCC_SYSCLKSource: specifies the clock source used as system clock source 
 683:..\..\STM32F0-Discovery_FW_V1.0.0\Libraries\STM32F0xx_StdPeriph_Driver\src/stm32f0xx_rcc.c ****   *   This parameter can be one of the following values:
 684:..\..\STM32F0-Discovery_FW_V1.0.0\Libraries\STM32F0xx_StdPeriph_Driver\src/stm32f0xx_rcc.c ****   *     @arg RCC_SYSCLKSource_HSI:    HSI selected as system clock source
 685:..\..\STM32F0-Discovery_FW_V1.0.0\Libraries\STM32F0xx_StdPeriph_Driver\src/stm32f0xx_rcc.c ****   *     @arg RCC_SYSCLKSource_HSE:    HSE selected as system clock source
 686:..\..\STM32F0-Discovery_FW_V1.0.0\Libraries\STM32F0xx_StdPeriph_Driver\src/stm32f0xx_rcc.c ****   *     @arg RCC_SYSCLKSource_PLLCLK: PLL selected as system clock source
 687:..\..\STM32F0-Discovery_FW_V1.0.0\Libraries\STM32F0xx_StdPeriph_Driver\src/stm32f0xx_rcc.c ****   * @retval None
 688:..\..\STM32F0-Discovery_FW_V1.0.0\Libraries\STM32F0xx_StdPeriph_Driver\src/stm32f0xx_rcc.c ****   */
 689:..\..\STM32F0-Discovery_FW_V1.0.0\Libraries\STM32F0xx_StdPeriph_Driver\src/stm32f0xx_rcc.c **** void RCC_SYSCLKConfig(uint32_t RCC_SYSCLKSource)
 690:..\..\STM32F0-Discovery_FW_V1.0.0\Libraries\STM32F0xx_StdPeriph_Driver\src/stm32f0xx_rcc.c **** {
 650              		.loc 1 690 0
 651              		.cfi_startproc
 652              	.LVL29:
 691:..\..\STM32F0-Discovery_FW_V1.0.0\Libraries\STM32F0xx_StdPeriph_Driver\src/stm32f0xx_rcc.c ****   uint32_t tmpreg = 0;
 692:..\..\STM32F0-Discovery_FW_V1.0.0\Libraries\STM32F0xx_StdPeriph_Driver\src/stm32f0xx_rcc.c ****   
 693:..\..\STM32F0-Discovery_FW_V1.0.0\Libraries\STM32F0xx_StdPeriph_Driver\src/stm32f0xx_rcc.c ****   /* Check the parameters */
 694:..\..\STM32F0-Discovery_FW_V1.0.0\Libraries\STM32F0xx_StdPeriph_Driver\src/stm32f0xx_rcc.c ****   assert_param(IS_RCC_SYSCLK_SOURCE(RCC_SYSCLKSource));
 695:..\..\STM32F0-Discovery_FW_V1.0.0\Libraries\STM32F0xx_StdPeriph_Driver\src/stm32f0xx_rcc.c ****   
 696:..\..\STM32F0-Discovery_FW_V1.0.0\Libraries\STM32F0xx_StdPeriph_Driver\src/stm32f0xx_rcc.c ****   tmpreg = RCC->CFGR;
 697:..\..\STM32F0-Discovery_FW_V1.0.0\Libraries\STM32F0xx_StdPeriph_Driver\src/stm32f0xx_rcc.c ****   
 698:..\..\STM32F0-Discovery_FW_V1.0.0\Libraries\STM32F0xx_StdPeriph_Driver\src/stm32f0xx_rcc.c ****   /* Clear SW[1:0] bits */
 699:..\..\STM32F0-Discovery_FW_V1.0.0\Libraries\STM32F0xx_StdPeriph_Driver\src/stm32f0xx_rcc.c ****   tmpreg &= ~RCC_CFGR_SW;
 653              		.loc 1 699 0
 654 01b8 0321     		mov	r1, #3	@ tmp115,
 696:..\..\STM32F0-Discovery_FW_V1.0.0\Libraries\STM32F0xx_StdPeriph_Driver\src/stm32f0xx_rcc.c ****   
 655              		.loc 1 696 0
 656 01ba 034A     		ldr	r2, .L66	@ tmp114,
 700:..\..\STM32F0-Discovery_FW_V1.0.0\Libraries\STM32F0xx_StdPeriph_Driver\src/stm32f0xx_rcc.c ****   
 701:..\..\STM32F0-Discovery_FW_V1.0.0\Libraries\STM32F0xx_StdPeriph_Driver\src/stm32f0xx_rcc.c ****   /* Set SW[1:0] bits according to RCC_SYSCLKSource value */
 702:..\..\STM32F0-Discovery_FW_V1.0.0\Libraries\STM32F0xx_StdPeriph_Driver\src/stm32f0xx_rcc.c ****   tmpreg |= RCC_SYSCLKSource;
 703:..\..\STM32F0-Discovery_FW_V1.0.0\Libraries\STM32F0xx_StdPeriph_Driver\src/stm32f0xx_rcc.c ****   
 704:..\..\STM32F0-Discovery_FW_V1.0.0\Libraries\STM32F0xx_StdPeriph_Driver\src/stm32f0xx_rcc.c ****   /* Store the new value */
 705:..\..\STM32F0-Discovery_FW_V1.0.0\Libraries\STM32F0xx_StdPeriph_Driver\src/stm32f0xx_rcc.c ****   RCC->CFGR = tmpreg;
 706:..\..\STM32F0-Discovery_FW_V1.0.0\Libraries\STM32F0xx_StdPeriph_Driver\src/stm32f0xx_rcc.c **** }
 657              		.loc 1 706 0
 658              		@ sp needed	@
 696:..\..\STM32F0-Discovery_FW_V1.0.0\Libraries\STM32F0xx_StdPeriph_Driver\src/stm32f0xx_rcc.c ****   
 659              		.loc 1 696 0
 660 01bc 5368     		ldr	r3, [r2, #4]	@ tmpreg, MEM[(struct RCC_TypeDef *)1073876992B].CFGR
 661              	.LVL30:
 699:..\..\STM32F0-Discovery_FW_V1.0.0\Libraries\STM32F0xx_StdPeriph_Driver\src/stm32f0xx_rcc.c ****   
 662              		.loc 1 699 0
 663 01be 8B43     		bic	r3, r1	@ tmpreg, tmp115
 664              	.LVL31:
 702:..\..\STM32F0-Discovery_FW_V1.0.0\Libraries\STM32F0xx_StdPeriph_Driver\src/stm32f0xx_rcc.c ****   
 665              		.loc 1 702 0
 666 01c0 1843     		orr	r0, r3	@ tmpreg, tmpreg
 667              	.LVL32:
 705:..\..\STM32F0-Discovery_FW_V1.0.0\Libraries\STM32F0xx_StdPeriph_Driver\src/stm32f0xx_rcc.c **** }
 668              		.loc 1 705 0
 669 01c2 5060     		str	r0, [r2, #4]	@ tmpreg, MEM[(struct RCC_TypeDef *)1073876992B].CFGR
 670              		.loc 1 706 0
 671 01c4 7047     		bx	lr
 672              	.L67:
 673 01c6 C046     		.align	2
ARM GAS  C:\Users\Doles\AppData\Local\Temp\ccw5cB6c.s 			page 26


 674              	.L66:
 675 01c8 00100240 		.word	1073876992
 676              		.cfi_endproc
 677              	.LFE48:
 678              		.size	RCC_SYSCLKConfig, .-RCC_SYSCLKConfig
 679              		.align	1
 680              		.global	RCC_GetSYSCLKSource
 681              		.code	16
 682              		.thumb_func
 683              		.type	RCC_GetSYSCLKSource, %function
 684              	RCC_GetSYSCLKSource:
 685              	.LFB49:
 707:..\..\STM32F0-Discovery_FW_V1.0.0\Libraries\STM32F0xx_StdPeriph_Driver\src/stm32f0xx_rcc.c **** 
 708:..\..\STM32F0-Discovery_FW_V1.0.0\Libraries\STM32F0xx_StdPeriph_Driver\src/stm32f0xx_rcc.c **** /**
 709:..\..\STM32F0-Discovery_FW_V1.0.0\Libraries\STM32F0xx_StdPeriph_Driver\src/stm32f0xx_rcc.c ****   * @brief  Returns the clock source used as system clock.
 710:..\..\STM32F0-Discovery_FW_V1.0.0\Libraries\STM32F0xx_StdPeriph_Driver\src/stm32f0xx_rcc.c ****   * @param  None
 711:..\..\STM32F0-Discovery_FW_V1.0.0\Libraries\STM32F0xx_StdPeriph_Driver\src/stm32f0xx_rcc.c ****   * @retval The clock source used as system clock. The returned value can be one 
 712:..\..\STM32F0-Discovery_FW_V1.0.0\Libraries\STM32F0xx_StdPeriph_Driver\src/stm32f0xx_rcc.c ****   *         of the following values:
 713:..\..\STM32F0-Discovery_FW_V1.0.0\Libraries\STM32F0xx_StdPeriph_Driver\src/stm32f0xx_rcc.c ****   *              - 0x00: HSI used as system clock
 714:..\..\STM32F0-Discovery_FW_V1.0.0\Libraries\STM32F0xx_StdPeriph_Driver\src/stm32f0xx_rcc.c ****   *              - 0x04: HSE used as system clock  
 715:..\..\STM32F0-Discovery_FW_V1.0.0\Libraries\STM32F0xx_StdPeriph_Driver\src/stm32f0xx_rcc.c ****   *              - 0x08: PLL used as system clock
 716:..\..\STM32F0-Discovery_FW_V1.0.0\Libraries\STM32F0xx_StdPeriph_Driver\src/stm32f0xx_rcc.c ****   */
 717:..\..\STM32F0-Discovery_FW_V1.0.0\Libraries\STM32F0xx_StdPeriph_Driver\src/stm32f0xx_rcc.c **** uint8_t RCC_GetSYSCLKSource(void)
 718:..\..\STM32F0-Discovery_FW_V1.0.0\Libraries\STM32F0xx_StdPeriph_Driver\src/stm32f0xx_rcc.c **** {
 686              		.loc 1 718 0
 687              		.cfi_startproc
 719:..\..\STM32F0-Discovery_FW_V1.0.0\Libraries\STM32F0xx_StdPeriph_Driver\src/stm32f0xx_rcc.c ****   return ((uint8_t)(RCC->CFGR & RCC_CFGR_SWS));
 688              		.loc 1 719 0
 689 01cc 024B     		ldr	r3, .L69	@ tmp114,
 720:..\..\STM32F0-Discovery_FW_V1.0.0\Libraries\STM32F0xx_StdPeriph_Driver\src/stm32f0xx_rcc.c **** }
 690              		.loc 1 720 0
 691              		@ sp needed	@
 719:..\..\STM32F0-Discovery_FW_V1.0.0\Libraries\STM32F0xx_StdPeriph_Driver\src/stm32f0xx_rcc.c ****   return ((uint8_t)(RCC->CFGR & RCC_CFGR_SWS));
 692              		.loc 1 719 0
 693 01ce 5868     		ldr	r0, [r3, #4]	@ D.5391, MEM[(struct RCC_TypeDef *)1073876992B].CFGR
 694 01d0 0C23     		mov	r3, #12	@ tmp118,
 695 01d2 1840     		and	r0, r3	@ tmp119, tmp118
 696              		.loc 1 720 0
 697 01d4 7047     		bx	lr
 698              	.L70:
 699 01d6 C046     		.align	2
 700              	.L69:
 701 01d8 00100240 		.word	1073876992
 702              		.cfi_endproc
 703              	.LFE49:
 704              		.size	RCC_GetSYSCLKSource, .-RCC_GetSYSCLKSource
 705              		.align	1
 706              		.global	RCC_HCLKConfig
 707              		.code	16
 708              		.thumb_func
 709              		.type	RCC_HCLKConfig, %function
 710              	RCC_HCLKConfig:
 711              	.LFB50:
 721:..\..\STM32F0-Discovery_FW_V1.0.0\Libraries\STM32F0xx_StdPeriph_Driver\src/stm32f0xx_rcc.c **** 
 722:..\..\STM32F0-Discovery_FW_V1.0.0\Libraries\STM32F0xx_StdPeriph_Driver\src/stm32f0xx_rcc.c **** /**
 723:..\..\STM32F0-Discovery_FW_V1.0.0\Libraries\STM32F0xx_StdPeriph_Driver\src/stm32f0xx_rcc.c ****   * @brief  Configures the AHB clock (HCLK).
 724:..\..\STM32F0-Discovery_FW_V1.0.0\Libraries\STM32F0xx_StdPeriph_Driver\src/stm32f0xx_rcc.c ****   * @param  RCC_SYSCLK: defines the AHB clock divider. This clock is derived from 
ARM GAS  C:\Users\Doles\AppData\Local\Temp\ccw5cB6c.s 			page 27


 725:..\..\STM32F0-Discovery_FW_V1.0.0\Libraries\STM32F0xx_StdPeriph_Driver\src/stm32f0xx_rcc.c ****   *                     the system clock (SYSCLK).
 726:..\..\STM32F0-Discovery_FW_V1.0.0\Libraries\STM32F0xx_StdPeriph_Driver\src/stm32f0xx_rcc.c ****   *   This parameter can be one of the following values:
 727:..\..\STM32F0-Discovery_FW_V1.0.0\Libraries\STM32F0xx_StdPeriph_Driver\src/stm32f0xx_rcc.c ****   *     @arg RCC_SYSCLK_Div1:   AHB clock = SYSCLK
 728:..\..\STM32F0-Discovery_FW_V1.0.0\Libraries\STM32F0xx_StdPeriph_Driver\src/stm32f0xx_rcc.c ****   *     @arg RCC_SYSCLK_Div2:   AHB clock = SYSCLK/2
 729:..\..\STM32F0-Discovery_FW_V1.0.0\Libraries\STM32F0xx_StdPeriph_Driver\src/stm32f0xx_rcc.c ****   *     @arg RCC_SYSCLK_Div4:   AHB clock = SYSCLK/4
 730:..\..\STM32F0-Discovery_FW_V1.0.0\Libraries\STM32F0xx_StdPeriph_Driver\src/stm32f0xx_rcc.c ****   *     @arg RCC_SYSCLK_Div8:   AHB clock = SYSCLK/8
 731:..\..\STM32F0-Discovery_FW_V1.0.0\Libraries\STM32F0xx_StdPeriph_Driver\src/stm32f0xx_rcc.c ****   *     @arg RCC_SYSCLK_Div16:  AHB clock = SYSCLK/16
 732:..\..\STM32F0-Discovery_FW_V1.0.0\Libraries\STM32F0xx_StdPeriph_Driver\src/stm32f0xx_rcc.c ****   *     @arg RCC_SYSCLK_Div64:  AHB clock = SYSCLK/64
 733:..\..\STM32F0-Discovery_FW_V1.0.0\Libraries\STM32F0xx_StdPeriph_Driver\src/stm32f0xx_rcc.c ****   *     @arg RCC_SYSCLK_Div128: AHB clock = SYSCLK/128
 734:..\..\STM32F0-Discovery_FW_V1.0.0\Libraries\STM32F0xx_StdPeriph_Driver\src/stm32f0xx_rcc.c ****   *     @arg RCC_SYSCLK_Div256: AHB clock = SYSCLK/256
 735:..\..\STM32F0-Discovery_FW_V1.0.0\Libraries\STM32F0xx_StdPeriph_Driver\src/stm32f0xx_rcc.c ****   *     @arg RCC_SYSCLK_Div512: AHB clock = SYSCLK/512
 736:..\..\STM32F0-Discovery_FW_V1.0.0\Libraries\STM32F0xx_StdPeriph_Driver\src/stm32f0xx_rcc.c ****   * @retval None
 737:..\..\STM32F0-Discovery_FW_V1.0.0\Libraries\STM32F0xx_StdPeriph_Driver\src/stm32f0xx_rcc.c ****   */
 738:..\..\STM32F0-Discovery_FW_V1.0.0\Libraries\STM32F0xx_StdPeriph_Driver\src/stm32f0xx_rcc.c **** void RCC_HCLKConfig(uint32_t RCC_SYSCLK)
 739:..\..\STM32F0-Discovery_FW_V1.0.0\Libraries\STM32F0xx_StdPeriph_Driver\src/stm32f0xx_rcc.c **** {
 712              		.loc 1 739 0
 713              		.cfi_startproc
 714              	.LVL33:
 740:..\..\STM32F0-Discovery_FW_V1.0.0\Libraries\STM32F0xx_StdPeriph_Driver\src/stm32f0xx_rcc.c ****   uint32_t tmpreg = 0;
 741:..\..\STM32F0-Discovery_FW_V1.0.0\Libraries\STM32F0xx_StdPeriph_Driver\src/stm32f0xx_rcc.c ****   
 742:..\..\STM32F0-Discovery_FW_V1.0.0\Libraries\STM32F0xx_StdPeriph_Driver\src/stm32f0xx_rcc.c ****   /* Check the parameters */
 743:..\..\STM32F0-Discovery_FW_V1.0.0\Libraries\STM32F0xx_StdPeriph_Driver\src/stm32f0xx_rcc.c ****   assert_param(IS_RCC_HCLK(RCC_SYSCLK));
 744:..\..\STM32F0-Discovery_FW_V1.0.0\Libraries\STM32F0xx_StdPeriph_Driver\src/stm32f0xx_rcc.c ****   
 745:..\..\STM32F0-Discovery_FW_V1.0.0\Libraries\STM32F0xx_StdPeriph_Driver\src/stm32f0xx_rcc.c ****   tmpreg = RCC->CFGR;
 746:..\..\STM32F0-Discovery_FW_V1.0.0\Libraries\STM32F0xx_StdPeriph_Driver\src/stm32f0xx_rcc.c ****   
 747:..\..\STM32F0-Discovery_FW_V1.0.0\Libraries\STM32F0xx_StdPeriph_Driver\src/stm32f0xx_rcc.c ****   /* Clear HPRE[3:0] bits */
 748:..\..\STM32F0-Discovery_FW_V1.0.0\Libraries\STM32F0xx_StdPeriph_Driver\src/stm32f0xx_rcc.c ****   tmpreg &= ~RCC_CFGR_HPRE;
 715              		.loc 1 748 0
 716 01dc F021     		mov	r1, #240	@ tmp115,
 745:..\..\STM32F0-Discovery_FW_V1.0.0\Libraries\STM32F0xx_StdPeriph_Driver\src/stm32f0xx_rcc.c ****   
 717              		.loc 1 745 0
 718 01de 034A     		ldr	r2, .L72	@ tmp114,
 749:..\..\STM32F0-Discovery_FW_V1.0.0\Libraries\STM32F0xx_StdPeriph_Driver\src/stm32f0xx_rcc.c ****   
 750:..\..\STM32F0-Discovery_FW_V1.0.0\Libraries\STM32F0xx_StdPeriph_Driver\src/stm32f0xx_rcc.c ****   /* Set HPRE[3:0] bits according to RCC_SYSCLK value */
 751:..\..\STM32F0-Discovery_FW_V1.0.0\Libraries\STM32F0xx_StdPeriph_Driver\src/stm32f0xx_rcc.c ****   tmpreg |= RCC_SYSCLK;
 752:..\..\STM32F0-Discovery_FW_V1.0.0\Libraries\STM32F0xx_StdPeriph_Driver\src/stm32f0xx_rcc.c ****   
 753:..\..\STM32F0-Discovery_FW_V1.0.0\Libraries\STM32F0xx_StdPeriph_Driver\src/stm32f0xx_rcc.c ****   /* Store the new value */
 754:..\..\STM32F0-Discovery_FW_V1.0.0\Libraries\STM32F0xx_StdPeriph_Driver\src/stm32f0xx_rcc.c ****   RCC->CFGR = tmpreg;
 755:..\..\STM32F0-Discovery_FW_V1.0.0\Libraries\STM32F0xx_StdPeriph_Driver\src/stm32f0xx_rcc.c **** }
 719              		.loc 1 755 0
 720              		@ sp needed	@
 745:..\..\STM32F0-Discovery_FW_V1.0.0\Libraries\STM32F0xx_StdPeriph_Driver\src/stm32f0xx_rcc.c ****   
 721              		.loc 1 745 0
 722 01e0 5368     		ldr	r3, [r2, #4]	@ tmpreg, MEM[(struct RCC_TypeDef *)1073876992B].CFGR
 723              	.LVL34:
 748:..\..\STM32F0-Discovery_FW_V1.0.0\Libraries\STM32F0xx_StdPeriph_Driver\src/stm32f0xx_rcc.c ****   
 724              		.loc 1 748 0
 725 01e2 8B43     		bic	r3, r1	@ tmpreg, tmp115
 726              	.LVL35:
 751:..\..\STM32F0-Discovery_FW_V1.0.0\Libraries\STM32F0xx_StdPeriph_Driver\src/stm32f0xx_rcc.c ****   
 727              		.loc 1 751 0
 728 01e4 1843     		orr	r0, r3	@ tmpreg, tmpreg
 729              	.LVL36:
 754:..\..\STM32F0-Discovery_FW_V1.0.0\Libraries\STM32F0xx_StdPeriph_Driver\src/stm32f0xx_rcc.c **** }
 730              		.loc 1 754 0
 731 01e6 5060     		str	r0, [r2, #4]	@ tmpreg, MEM[(struct RCC_TypeDef *)1073876992B].CFGR
 732              		.loc 1 755 0
ARM GAS  C:\Users\Doles\AppData\Local\Temp\ccw5cB6c.s 			page 28


 733 01e8 7047     		bx	lr
 734              	.L73:
 735 01ea C046     		.align	2
 736              	.L72:
 737 01ec 00100240 		.word	1073876992
 738              		.cfi_endproc
 739              	.LFE50:
 740              		.size	RCC_HCLKConfig, .-RCC_HCLKConfig
 741              		.align	1
 742              		.global	RCC_PCLKConfig
 743              		.code	16
 744              		.thumb_func
 745              		.type	RCC_PCLKConfig, %function
 746              	RCC_PCLKConfig:
 747              	.LFB51:
 756:..\..\STM32F0-Discovery_FW_V1.0.0\Libraries\STM32F0xx_StdPeriph_Driver\src/stm32f0xx_rcc.c **** 
 757:..\..\STM32F0-Discovery_FW_V1.0.0\Libraries\STM32F0xx_StdPeriph_Driver\src/stm32f0xx_rcc.c **** /**
 758:..\..\STM32F0-Discovery_FW_V1.0.0\Libraries\STM32F0xx_StdPeriph_Driver\src/stm32f0xx_rcc.c ****   * @brief  Configures the APB clock (PCLK).
 759:..\..\STM32F0-Discovery_FW_V1.0.0\Libraries\STM32F0xx_StdPeriph_Driver\src/stm32f0xx_rcc.c ****   * @param  RCC_HCLK: defines the APB clock divider. This clock is derived from 
 760:..\..\STM32F0-Discovery_FW_V1.0.0\Libraries\STM32F0xx_StdPeriph_Driver\src/stm32f0xx_rcc.c ****   *         the AHB clock (HCLK).
 761:..\..\STM32F0-Discovery_FW_V1.0.0\Libraries\STM32F0xx_StdPeriph_Driver\src/stm32f0xx_rcc.c ****   *   This parameter can be one of the following values:
 762:..\..\STM32F0-Discovery_FW_V1.0.0\Libraries\STM32F0xx_StdPeriph_Driver\src/stm32f0xx_rcc.c ****   *     @arg RCC_HCLK_Div1: APB clock = HCLK
 763:..\..\STM32F0-Discovery_FW_V1.0.0\Libraries\STM32F0xx_StdPeriph_Driver\src/stm32f0xx_rcc.c ****   *     @arg RCC_HCLK_Div2: APB clock = HCLK/2
 764:..\..\STM32F0-Discovery_FW_V1.0.0\Libraries\STM32F0xx_StdPeriph_Driver\src/stm32f0xx_rcc.c ****   *     @arg RCC_HCLK_Div4: APB clock = HCLK/4
 765:..\..\STM32F0-Discovery_FW_V1.0.0\Libraries\STM32F0xx_StdPeriph_Driver\src/stm32f0xx_rcc.c ****   *     @arg RCC_HCLK_Div8: APB clock = HCLK/8
 766:..\..\STM32F0-Discovery_FW_V1.0.0\Libraries\STM32F0xx_StdPeriph_Driver\src/stm32f0xx_rcc.c ****   *     @arg RCC_HCLK_Div16: APB clock = HCLK/16
 767:..\..\STM32F0-Discovery_FW_V1.0.0\Libraries\STM32F0xx_StdPeriph_Driver\src/stm32f0xx_rcc.c ****   * @retval None
 768:..\..\STM32F0-Discovery_FW_V1.0.0\Libraries\STM32F0xx_StdPeriph_Driver\src/stm32f0xx_rcc.c ****   */
 769:..\..\STM32F0-Discovery_FW_V1.0.0\Libraries\STM32F0xx_StdPeriph_Driver\src/stm32f0xx_rcc.c **** void RCC_PCLKConfig(uint32_t RCC_HCLK)
 770:..\..\STM32F0-Discovery_FW_V1.0.0\Libraries\STM32F0xx_StdPeriph_Driver\src/stm32f0xx_rcc.c **** {
 748              		.loc 1 770 0
 749              		.cfi_startproc
 750              	.LVL37:
 771:..\..\STM32F0-Discovery_FW_V1.0.0\Libraries\STM32F0xx_StdPeriph_Driver\src/stm32f0xx_rcc.c ****   uint32_t tmpreg = 0;
 772:..\..\STM32F0-Discovery_FW_V1.0.0\Libraries\STM32F0xx_StdPeriph_Driver\src/stm32f0xx_rcc.c ****   
 773:..\..\STM32F0-Discovery_FW_V1.0.0\Libraries\STM32F0xx_StdPeriph_Driver\src/stm32f0xx_rcc.c ****   /* Check the parameters */
 774:..\..\STM32F0-Discovery_FW_V1.0.0\Libraries\STM32F0xx_StdPeriph_Driver\src/stm32f0xx_rcc.c ****   assert_param(IS_RCC_PCLK(RCC_HCLK));
 775:..\..\STM32F0-Discovery_FW_V1.0.0\Libraries\STM32F0xx_StdPeriph_Driver\src/stm32f0xx_rcc.c ****   
 776:..\..\STM32F0-Discovery_FW_V1.0.0\Libraries\STM32F0xx_StdPeriph_Driver\src/stm32f0xx_rcc.c ****   tmpreg = RCC->CFGR;
 751              		.loc 1 776 0
 752 01f0 034A     		ldr	r2, .L75	@ tmp114,
 777:..\..\STM32F0-Discovery_FW_V1.0.0\Libraries\STM32F0xx_StdPeriph_Driver\src/stm32f0xx_rcc.c ****   
 778:..\..\STM32F0-Discovery_FW_V1.0.0\Libraries\STM32F0xx_StdPeriph_Driver\src/stm32f0xx_rcc.c ****   /* Clear PPRE[2:0] bits */
 779:..\..\STM32F0-Discovery_FW_V1.0.0\Libraries\STM32F0xx_StdPeriph_Driver\src/stm32f0xx_rcc.c ****   tmpreg &= ~RCC_CFGR_PPRE;
 753              		.loc 1 779 0
 754 01f2 044B     		ldr	r3, .L75+4	@ tmp115,
 776:..\..\STM32F0-Discovery_FW_V1.0.0\Libraries\STM32F0xx_StdPeriph_Driver\src/stm32f0xx_rcc.c ****   
 755              		.loc 1 776 0
 756 01f4 5168     		ldr	r1, [r2, #4]	@ tmpreg, MEM[(struct RCC_TypeDef *)1073876992B].CFGR
 757              	.LVL38:
 780:..\..\STM32F0-Discovery_FW_V1.0.0\Libraries\STM32F0xx_StdPeriph_Driver\src/stm32f0xx_rcc.c ****   
 781:..\..\STM32F0-Discovery_FW_V1.0.0\Libraries\STM32F0xx_StdPeriph_Driver\src/stm32f0xx_rcc.c ****   /* Set PPRE[2:0] bits according to RCC_HCLK value */
 782:..\..\STM32F0-Discovery_FW_V1.0.0\Libraries\STM32F0xx_StdPeriph_Driver\src/stm32f0xx_rcc.c ****   tmpreg |= RCC_HCLK;
 783:..\..\STM32F0-Discovery_FW_V1.0.0\Libraries\STM32F0xx_StdPeriph_Driver\src/stm32f0xx_rcc.c ****   
 784:..\..\STM32F0-Discovery_FW_V1.0.0\Libraries\STM32F0xx_StdPeriph_Driver\src/stm32f0xx_rcc.c ****   /* Store the new value */
 785:..\..\STM32F0-Discovery_FW_V1.0.0\Libraries\STM32F0xx_StdPeriph_Driver\src/stm32f0xx_rcc.c ****   RCC->CFGR = tmpreg;
 786:..\..\STM32F0-Discovery_FW_V1.0.0\Libraries\STM32F0xx_StdPeriph_Driver\src/stm32f0xx_rcc.c **** }
ARM GAS  C:\Users\Doles\AppData\Local\Temp\ccw5cB6c.s 			page 29


 758              		.loc 1 786 0
 759              		@ sp needed	@
 779:..\..\STM32F0-Discovery_FW_V1.0.0\Libraries\STM32F0xx_StdPeriph_Driver\src/stm32f0xx_rcc.c ****   
 760              		.loc 1 779 0
 761 01f6 0B40     		and	r3, r1	@ tmpreg, tmpreg
 762              	.LVL39:
 782:..\..\STM32F0-Discovery_FW_V1.0.0\Libraries\STM32F0xx_StdPeriph_Driver\src/stm32f0xx_rcc.c ****   
 763              		.loc 1 782 0
 764 01f8 1843     		orr	r0, r3	@ tmpreg, tmpreg
 765              	.LVL40:
 785:..\..\STM32F0-Discovery_FW_V1.0.0\Libraries\STM32F0xx_StdPeriph_Driver\src/stm32f0xx_rcc.c **** }
 766              		.loc 1 785 0
 767 01fa 5060     		str	r0, [r2, #4]	@ tmpreg, MEM[(struct RCC_TypeDef *)1073876992B].CFGR
 768              		.loc 1 786 0
 769 01fc 7047     		bx	lr
 770              	.L76:
 771 01fe C046     		.align	2
 772              	.L75:
 773 0200 00100240 		.word	1073876992
 774 0204 FFF8FFFF 		.word	-1793
 775              		.cfi_endproc
 776              	.LFE51:
 777              		.size	RCC_PCLKConfig, .-RCC_PCLKConfig
 778              		.align	1
 779              		.global	RCC_ADCCLKConfig
 780              		.code	16
 781              		.thumb_func
 782              		.type	RCC_ADCCLKConfig, %function
 783              	RCC_ADCCLKConfig:
 784              	.LFB52:
 787:..\..\STM32F0-Discovery_FW_V1.0.0\Libraries\STM32F0xx_StdPeriph_Driver\src/stm32f0xx_rcc.c **** 
 788:..\..\STM32F0-Discovery_FW_V1.0.0\Libraries\STM32F0xx_StdPeriph_Driver\src/stm32f0xx_rcc.c **** /**
 789:..\..\STM32F0-Discovery_FW_V1.0.0\Libraries\STM32F0xx_StdPeriph_Driver\src/stm32f0xx_rcc.c ****   * @brief  Configures the ADC clock (ADCCLK).
 790:..\..\STM32F0-Discovery_FW_V1.0.0\Libraries\STM32F0xx_StdPeriph_Driver\src/stm32f0xx_rcc.c ****   * @param  RCC_ADCCLK: defines the ADC clock source. This clock is derived 
 791:..\..\STM32F0-Discovery_FW_V1.0.0\Libraries\STM32F0xx_StdPeriph_Driver\src/stm32f0xx_rcc.c ****   *         from the HSI14 or APB clock (PCLK).
 792:..\..\STM32F0-Discovery_FW_V1.0.0\Libraries\STM32F0xx_StdPeriph_Driver\src/stm32f0xx_rcc.c ****   *         This parameter can be one of the following values:
 793:..\..\STM32F0-Discovery_FW_V1.0.0\Libraries\STM32F0xx_StdPeriph_Driver\src/stm32f0xx_rcc.c ****   *             @arg RCC_ADCCLK_HSI14: ADC clock = HSI14 (14MHz)
 794:..\..\STM32F0-Discovery_FW_V1.0.0\Libraries\STM32F0xx_StdPeriph_Driver\src/stm32f0xx_rcc.c ****   *             @arg RCC_ADCCLK_PCLK_Div2: ADC clock = PCLK/2
 795:..\..\STM32F0-Discovery_FW_V1.0.0\Libraries\STM32F0xx_StdPeriph_Driver\src/stm32f0xx_rcc.c ****   *             @arg RCC_ADCCLK_PCLK_Div4: ADC clock = PCLK/4  
 796:..\..\STM32F0-Discovery_FW_V1.0.0\Libraries\STM32F0xx_StdPeriph_Driver\src/stm32f0xx_rcc.c ****   * @retval None
 797:..\..\STM32F0-Discovery_FW_V1.0.0\Libraries\STM32F0xx_StdPeriph_Driver\src/stm32f0xx_rcc.c ****   */
 798:..\..\STM32F0-Discovery_FW_V1.0.0\Libraries\STM32F0xx_StdPeriph_Driver\src/stm32f0xx_rcc.c **** void RCC_ADCCLKConfig(uint32_t RCC_ADCCLK)
 799:..\..\STM32F0-Discovery_FW_V1.0.0\Libraries\STM32F0xx_StdPeriph_Driver\src/stm32f0xx_rcc.c **** { 
 785              		.loc 1 799 0
 786              		.cfi_startproc
 787              	.LVL41:
 800:..\..\STM32F0-Discovery_FW_V1.0.0\Libraries\STM32F0xx_StdPeriph_Driver\src/stm32f0xx_rcc.c ****   /* Check the parameters */
 801:..\..\STM32F0-Discovery_FW_V1.0.0\Libraries\STM32F0xx_StdPeriph_Driver\src/stm32f0xx_rcc.c ****   assert_param(IS_RCC_ADCCLK(RCC_ADCCLK));
 802:..\..\STM32F0-Discovery_FW_V1.0.0\Libraries\STM32F0xx_StdPeriph_Driver\src/stm32f0xx_rcc.c **** 
 803:..\..\STM32F0-Discovery_FW_V1.0.0\Libraries\STM32F0xx_StdPeriph_Driver\src/stm32f0xx_rcc.c ****   /* Clear ADCPRE bit */
 804:..\..\STM32F0-Discovery_FW_V1.0.0\Libraries\STM32F0xx_StdPeriph_Driver\src/stm32f0xx_rcc.c ****   RCC->CFGR &= ~RCC_CFGR_ADCPRE;
 788              		.loc 1 804 0
 789 0208 084B     		ldr	r3, .L78	@ tmp121,
 790 020a 094A     		ldr	r2, .L78+4	@ tmp122,
 791 020c 5968     		ldr	r1, [r3, #4]	@ D.5400, MEM[(struct RCC_TypeDef *)1073876992B].CFGR
 805:..\..\STM32F0-Discovery_FW_V1.0.0\Libraries\STM32F0xx_StdPeriph_Driver\src/stm32f0xx_rcc.c ****   /* Set ADCPRE bits according to RCC_PCLK value */
 806:..\..\STM32F0-Discovery_FW_V1.0.0\Libraries\STM32F0xx_StdPeriph_Driver\src/stm32f0xx_rcc.c ****   RCC->CFGR |= RCC_ADCCLK & 0xFFFF;
ARM GAS  C:\Users\Doles\AppData\Local\Temp\ccw5cB6c.s 			page 30


 807:..\..\STM32F0-Discovery_FW_V1.0.0\Libraries\STM32F0xx_StdPeriph_Driver\src/stm32f0xx_rcc.c **** 
 808:..\..\STM32F0-Discovery_FW_V1.0.0\Libraries\STM32F0xx_StdPeriph_Driver\src/stm32f0xx_rcc.c ****   /* Clear ADCSW bit */
 809:..\..\STM32F0-Discovery_FW_V1.0.0\Libraries\STM32F0xx_StdPeriph_Driver\src/stm32f0xx_rcc.c ****   RCC->CFGR3 &= ~RCC_CFGR3_ADCSW; 
 810:..\..\STM32F0-Discovery_FW_V1.0.0\Libraries\STM32F0xx_StdPeriph_Driver\src/stm32f0xx_rcc.c ****   /* Set ADCSW bits according to RCC_ADCCLK value */
 811:..\..\STM32F0-Discovery_FW_V1.0.0\Libraries\STM32F0xx_StdPeriph_Driver\src/stm32f0xx_rcc.c ****   RCC->CFGR3 |= RCC_ADCCLK >> 16;  
 812:..\..\STM32F0-Discovery_FW_V1.0.0\Libraries\STM32F0xx_StdPeriph_Driver\src/stm32f0xx_rcc.c **** }
 792              		.loc 1 812 0
 793              		@ sp needed	@
 804:..\..\STM32F0-Discovery_FW_V1.0.0\Libraries\STM32F0xx_StdPeriph_Driver\src/stm32f0xx_rcc.c ****   /* Set ADCPRE bits according to RCC_PCLK value */
 794              		.loc 1 804 0
 795 020e 0A40     		and	r2, r1	@ D.5400, D.5400
 796 0210 5A60     		str	r2, [r3, #4]	@ D.5400, MEM[(struct RCC_TypeDef *)1073876992B].CFGR
 806:..\..\STM32F0-Discovery_FW_V1.0.0\Libraries\STM32F0xx_StdPeriph_Driver\src/stm32f0xx_rcc.c **** 
 797              		.loc 1 806 0
 798 0212 5A68     		ldr	r2, [r3, #4]	@ D.5400, MEM[(struct RCC_TypeDef *)1073876992B].CFGR
 799 0214 81B2     		uxth	r1, r0	@ D.5400, RCC_ADCCLK
 800 0216 0A43     		orr	r2, r1	@ D.5400, D.5400
 801 0218 5A60     		str	r2, [r3, #4]	@ D.5400, MEM[(struct RCC_TypeDef *)1073876992B].CFGR
 809:..\..\STM32F0-Discovery_FW_V1.0.0\Libraries\STM32F0xx_StdPeriph_Driver\src/stm32f0xx_rcc.c ****   /* Set ADCSW bits according to RCC_ADCCLK value */
 802              		.loc 1 809 0
 803 021a 196B     		ldr	r1, [r3, #48]	@ D.5400, MEM[(struct RCC_TypeDef *)1073876992B].CFGR3
 804 021c 054A     		ldr	r2, .L78+8	@ tmp129,
 811:..\..\STM32F0-Discovery_FW_V1.0.0\Libraries\STM32F0xx_StdPeriph_Driver\src/stm32f0xx_rcc.c **** }
 805              		.loc 1 811 0
 806 021e 000C     		lsr	r0, r0, #16	@ D.5400, RCC_ADCCLK,
 807              	.LVL42:
 809:..\..\STM32F0-Discovery_FW_V1.0.0\Libraries\STM32F0xx_StdPeriph_Driver\src/stm32f0xx_rcc.c ****   /* Set ADCSW bits according to RCC_ADCCLK value */
 808              		.loc 1 809 0
 809 0220 0A40     		and	r2, r1	@ D.5400, D.5400
 810 0222 1A63     		str	r2, [r3, #48]	@ D.5400, MEM[(struct RCC_TypeDef *)1073876992B].CFGR3
 811:..\..\STM32F0-Discovery_FW_V1.0.0\Libraries\STM32F0xx_StdPeriph_Driver\src/stm32f0xx_rcc.c **** }
 811              		.loc 1 811 0
 812 0224 1A6B     		ldr	r2, [r3, #48]	@ D.5400, MEM[(struct RCC_TypeDef *)1073876992B].CFGR3
 813 0226 1043     		orr	r0, r2	@ D.5400, D.5400
 814 0228 1863     		str	r0, [r3, #48]	@ D.5400, MEM[(struct RCC_TypeDef *)1073876992B].CFGR3
 815              		.loc 1 812 0
 816 022a 7047     		bx	lr
 817              	.L79:
 818              		.align	2
 819              	.L78:
 820 022c 00100240 		.word	1073876992
 821 0230 FFBFFFFF 		.word	-16385
 822 0234 FFFEFFFF 		.word	-257
 823              		.cfi_endproc
 824              	.LFE52:
 825              		.size	RCC_ADCCLKConfig, .-RCC_ADCCLKConfig
 826              		.align	1
 827              		.global	RCC_CECCLKConfig
 828              		.code	16
 829              		.thumb_func
 830              		.type	RCC_CECCLKConfig, %function
 831              	RCC_CECCLKConfig:
 832              	.LFB53:
 813:..\..\STM32F0-Discovery_FW_V1.0.0\Libraries\STM32F0xx_StdPeriph_Driver\src/stm32f0xx_rcc.c **** 
 814:..\..\STM32F0-Discovery_FW_V1.0.0\Libraries\STM32F0xx_StdPeriph_Driver\src/stm32f0xx_rcc.c **** /**
 815:..\..\STM32F0-Discovery_FW_V1.0.0\Libraries\STM32F0xx_StdPeriph_Driver\src/stm32f0xx_rcc.c ****   * @brief  Configures the CEC clock (CECCLK).
 816:..\..\STM32F0-Discovery_FW_V1.0.0\Libraries\STM32F0xx_StdPeriph_Driver\src/stm32f0xx_rcc.c ****   * @param  RCC_CECCLK: defines the CEC clock source. This clock is derived 
ARM GAS  C:\Users\Doles\AppData\Local\Temp\ccw5cB6c.s 			page 31


 817:..\..\STM32F0-Discovery_FW_V1.0.0\Libraries\STM32F0xx_StdPeriph_Driver\src/stm32f0xx_rcc.c ****   *         from the HSI or LSE clock.
 818:..\..\STM32F0-Discovery_FW_V1.0.0\Libraries\STM32F0xx_StdPeriph_Driver\src/stm32f0xx_rcc.c ****   *         This parameter can be one of the following values:
 819:..\..\STM32F0-Discovery_FW_V1.0.0\Libraries\STM32F0xx_StdPeriph_Driver\src/stm32f0xx_rcc.c ****   *             @arg RCC_CECCLK_HSI_Div244: CEC clock = HSI/244 (32768Hz)
 820:..\..\STM32F0-Discovery_FW_V1.0.0\Libraries\STM32F0xx_StdPeriph_Driver\src/stm32f0xx_rcc.c ****   *             @arg RCC_CECCLK_LSE: CEC clock = LSE
 821:..\..\STM32F0-Discovery_FW_V1.0.0\Libraries\STM32F0xx_StdPeriph_Driver\src/stm32f0xx_rcc.c ****   * @retval None
 822:..\..\STM32F0-Discovery_FW_V1.0.0\Libraries\STM32F0xx_StdPeriph_Driver\src/stm32f0xx_rcc.c ****   */
 823:..\..\STM32F0-Discovery_FW_V1.0.0\Libraries\STM32F0xx_StdPeriph_Driver\src/stm32f0xx_rcc.c **** void RCC_CECCLKConfig(uint32_t RCC_CECCLK)
 824:..\..\STM32F0-Discovery_FW_V1.0.0\Libraries\STM32F0xx_StdPeriph_Driver\src/stm32f0xx_rcc.c **** { 
 833              		.loc 1 824 0
 834              		.cfi_startproc
 835              	.LVL43:
 825:..\..\STM32F0-Discovery_FW_V1.0.0\Libraries\STM32F0xx_StdPeriph_Driver\src/stm32f0xx_rcc.c ****   /* Check the parameters */
 826:..\..\STM32F0-Discovery_FW_V1.0.0\Libraries\STM32F0xx_StdPeriph_Driver\src/stm32f0xx_rcc.c ****   assert_param(IS_RCC_CECCLK(RCC_CECCLK));
 827:..\..\STM32F0-Discovery_FW_V1.0.0\Libraries\STM32F0xx_StdPeriph_Driver\src/stm32f0xx_rcc.c **** 
 828:..\..\STM32F0-Discovery_FW_V1.0.0\Libraries\STM32F0xx_StdPeriph_Driver\src/stm32f0xx_rcc.c ****   /* Clear CECSW bit */
 829:..\..\STM32F0-Discovery_FW_V1.0.0\Libraries\STM32F0xx_StdPeriph_Driver\src/stm32f0xx_rcc.c ****   RCC->CFGR3 &= ~RCC_CFGR3_CECSW;
 836              		.loc 1 829 0
 837 0238 4021     		mov	r1, #64	@ tmp116,
 838 023a 044B     		ldr	r3, .L81	@ tmp115,
 830:..\..\STM32F0-Discovery_FW_V1.0.0\Libraries\STM32F0xx_StdPeriph_Driver\src/stm32f0xx_rcc.c ****   /* Set CECSW bits according to RCC_CECCLK value */
 831:..\..\STM32F0-Discovery_FW_V1.0.0\Libraries\STM32F0xx_StdPeriph_Driver\src/stm32f0xx_rcc.c ****   RCC->CFGR3 |= RCC_CECCLK;
 832:..\..\STM32F0-Discovery_FW_V1.0.0\Libraries\STM32F0xx_StdPeriph_Driver\src/stm32f0xx_rcc.c **** }
 839              		.loc 1 832 0
 840              		@ sp needed	@
 829:..\..\STM32F0-Discovery_FW_V1.0.0\Libraries\STM32F0xx_StdPeriph_Driver\src/stm32f0xx_rcc.c ****   /* Set CECSW bits according to RCC_CECCLK value */
 841              		.loc 1 829 0
 842 023c 1A6B     		ldr	r2, [r3, #48]	@ D.5403, MEM[(struct RCC_TypeDef *)1073876992B].CFGR3
 843 023e 8A43     		bic	r2, r1	@ D.5403, tmp116
 844 0240 1A63     		str	r2, [r3, #48]	@ D.5403, MEM[(struct RCC_TypeDef *)1073876992B].CFGR3
 831:..\..\STM32F0-Discovery_FW_V1.0.0\Libraries\STM32F0xx_StdPeriph_Driver\src/stm32f0xx_rcc.c **** }
 845              		.loc 1 831 0
 846 0242 1A6B     		ldr	r2, [r3, #48]	@ D.5403, MEM[(struct RCC_TypeDef *)1073876992B].CFGR3
 847 0244 1043     		orr	r0, r2	@ D.5403, D.5403
 848              	.LVL44:
 849 0246 1863     		str	r0, [r3, #48]	@ D.5403, MEM[(struct RCC_TypeDef *)1073876992B].CFGR3
 850              		.loc 1 832 0
 851 0248 7047     		bx	lr
 852              	.L82:
 853 024a C046     		.align	2
 854              	.L81:
 855 024c 00100240 		.word	1073876992
 856              		.cfi_endproc
 857              	.LFE53:
 858              		.size	RCC_CECCLKConfig, .-RCC_CECCLKConfig
 859              		.align	1
 860              		.global	RCC_I2CCLKConfig
 861              		.code	16
 862              		.thumb_func
 863              		.type	RCC_I2CCLKConfig, %function
 864              	RCC_I2CCLKConfig:
 865              	.LFB54:
 833:..\..\STM32F0-Discovery_FW_V1.0.0\Libraries\STM32F0xx_StdPeriph_Driver\src/stm32f0xx_rcc.c **** 
 834:..\..\STM32F0-Discovery_FW_V1.0.0\Libraries\STM32F0xx_StdPeriph_Driver\src/stm32f0xx_rcc.c **** /**
 835:..\..\STM32F0-Discovery_FW_V1.0.0\Libraries\STM32F0xx_StdPeriph_Driver\src/stm32f0xx_rcc.c ****   * @brief  Configures the I2C1 clock (I2C1CLK).
 836:..\..\STM32F0-Discovery_FW_V1.0.0\Libraries\STM32F0xx_StdPeriph_Driver\src/stm32f0xx_rcc.c ****   * @param  RCC_I2CCLK: defines the I2C1 clock source. This clock is derived 
 837:..\..\STM32F0-Discovery_FW_V1.0.0\Libraries\STM32F0xx_StdPeriph_Driver\src/stm32f0xx_rcc.c ****   *         from the HSI or System clock.
 838:..\..\STM32F0-Discovery_FW_V1.0.0\Libraries\STM32F0xx_StdPeriph_Driver\src/stm32f0xx_rcc.c ****   *         This parameter can be one of the following values:
ARM GAS  C:\Users\Doles\AppData\Local\Temp\ccw5cB6c.s 			page 32


 839:..\..\STM32F0-Discovery_FW_V1.0.0\Libraries\STM32F0xx_StdPeriph_Driver\src/stm32f0xx_rcc.c ****   *             @arg RCC_I2C1CLK_HSI: I2C1 clock = HSI
 840:..\..\STM32F0-Discovery_FW_V1.0.0\Libraries\STM32F0xx_StdPeriph_Driver\src/stm32f0xx_rcc.c ****   *             @arg RCC_I2C1CLK_SYSCLK: I2C1 clock = System Clock
 841:..\..\STM32F0-Discovery_FW_V1.0.0\Libraries\STM32F0xx_StdPeriph_Driver\src/stm32f0xx_rcc.c ****   * @retval None
 842:..\..\STM32F0-Discovery_FW_V1.0.0\Libraries\STM32F0xx_StdPeriph_Driver\src/stm32f0xx_rcc.c ****   */
 843:..\..\STM32F0-Discovery_FW_V1.0.0\Libraries\STM32F0xx_StdPeriph_Driver\src/stm32f0xx_rcc.c **** void RCC_I2CCLKConfig(uint32_t RCC_I2CCLK)
 844:..\..\STM32F0-Discovery_FW_V1.0.0\Libraries\STM32F0xx_StdPeriph_Driver\src/stm32f0xx_rcc.c **** { 
 866              		.loc 1 844 0
 867              		.cfi_startproc
 868              	.LVL45:
 845:..\..\STM32F0-Discovery_FW_V1.0.0\Libraries\STM32F0xx_StdPeriph_Driver\src/stm32f0xx_rcc.c ****   /* Check the parameters */
 846:..\..\STM32F0-Discovery_FW_V1.0.0\Libraries\STM32F0xx_StdPeriph_Driver\src/stm32f0xx_rcc.c ****   assert_param(IS_RCC_I2CCLK(RCC_I2CCLK));
 847:..\..\STM32F0-Discovery_FW_V1.0.0\Libraries\STM32F0xx_StdPeriph_Driver\src/stm32f0xx_rcc.c **** 
 848:..\..\STM32F0-Discovery_FW_V1.0.0\Libraries\STM32F0xx_StdPeriph_Driver\src/stm32f0xx_rcc.c ****   /* Clear I2CSW bit */
 849:..\..\STM32F0-Discovery_FW_V1.0.0\Libraries\STM32F0xx_StdPeriph_Driver\src/stm32f0xx_rcc.c ****   RCC->CFGR3 &= ~RCC_CFGR3_I2C1SW;
 869              		.loc 1 849 0
 870 0250 1021     		mov	r1, #16	@ tmp116,
 871 0252 044B     		ldr	r3, .L84	@ tmp115,
 850:..\..\STM32F0-Discovery_FW_V1.0.0\Libraries\STM32F0xx_StdPeriph_Driver\src/stm32f0xx_rcc.c ****   /* Set I2CSW bits according to RCC_I2CCLK value */
 851:..\..\STM32F0-Discovery_FW_V1.0.0\Libraries\STM32F0xx_StdPeriph_Driver\src/stm32f0xx_rcc.c ****   RCC->CFGR3 |= RCC_I2CCLK;
 852:..\..\STM32F0-Discovery_FW_V1.0.0\Libraries\STM32F0xx_StdPeriph_Driver\src/stm32f0xx_rcc.c **** }
 872              		.loc 1 852 0
 873              		@ sp needed	@
 849:..\..\STM32F0-Discovery_FW_V1.0.0\Libraries\STM32F0xx_StdPeriph_Driver\src/stm32f0xx_rcc.c ****   /* Set I2CSW bits according to RCC_I2CCLK value */
 874              		.loc 1 849 0
 875 0254 1A6B     		ldr	r2, [r3, #48]	@ D.5406, MEM[(struct RCC_TypeDef *)1073876992B].CFGR3
 876 0256 8A43     		bic	r2, r1	@ D.5406, tmp116
 877 0258 1A63     		str	r2, [r3, #48]	@ D.5406, MEM[(struct RCC_TypeDef *)1073876992B].CFGR3
 851:..\..\STM32F0-Discovery_FW_V1.0.0\Libraries\STM32F0xx_StdPeriph_Driver\src/stm32f0xx_rcc.c **** }
 878              		.loc 1 851 0
 879 025a 1A6B     		ldr	r2, [r3, #48]	@ D.5406, MEM[(struct RCC_TypeDef *)1073876992B].CFGR3
 880 025c 1043     		orr	r0, r2	@ D.5406, D.5406
 881              	.LVL46:
 882 025e 1863     		str	r0, [r3, #48]	@ D.5406, MEM[(struct RCC_TypeDef *)1073876992B].CFGR3
 883              		.loc 1 852 0
 884 0260 7047     		bx	lr
 885              	.L85:
 886 0262 C046     		.align	2
 887              	.L84:
 888 0264 00100240 		.word	1073876992
 889              		.cfi_endproc
 890              	.LFE54:
 891              		.size	RCC_I2CCLKConfig, .-RCC_I2CCLKConfig
 892              		.align	1
 893              		.global	RCC_USARTCLKConfig
 894              		.code	16
 895              		.thumb_func
 896              		.type	RCC_USARTCLKConfig, %function
 897              	RCC_USARTCLKConfig:
 898              	.LFB55:
 853:..\..\STM32F0-Discovery_FW_V1.0.0\Libraries\STM32F0xx_StdPeriph_Driver\src/stm32f0xx_rcc.c **** 
 854:..\..\STM32F0-Discovery_FW_V1.0.0\Libraries\STM32F0xx_StdPeriph_Driver\src/stm32f0xx_rcc.c **** /**
 855:..\..\STM32F0-Discovery_FW_V1.0.0\Libraries\STM32F0xx_StdPeriph_Driver\src/stm32f0xx_rcc.c ****   * @brief  Configures the USART1 clock (USART1CLK).
 856:..\..\STM32F0-Discovery_FW_V1.0.0\Libraries\STM32F0xx_StdPeriph_Driver\src/stm32f0xx_rcc.c ****   * @param  RCC_USARTCLK: defines the USART1 clock source. This clock is derived 
 857:..\..\STM32F0-Discovery_FW_V1.0.0\Libraries\STM32F0xx_StdPeriph_Driver\src/stm32f0xx_rcc.c ****   *         from the HSI or System clock.
 858:..\..\STM32F0-Discovery_FW_V1.0.0\Libraries\STM32F0xx_StdPeriph_Driver\src/stm32f0xx_rcc.c ****   *         This parameter can be one of the following values:
 859:..\..\STM32F0-Discovery_FW_V1.0.0\Libraries\STM32F0xx_StdPeriph_Driver\src/stm32f0xx_rcc.c ****   *             @arg RCC_USART1CLK_PCLK: USART1 clock = APB Clock (PCLK)
 860:..\..\STM32F0-Discovery_FW_V1.0.0\Libraries\STM32F0xx_StdPeriph_Driver\src/stm32f0xx_rcc.c ****   *             @arg RCC_USART1CLK_SYSCLK: USART1 clock = System Clock
ARM GAS  C:\Users\Doles\AppData\Local\Temp\ccw5cB6c.s 			page 33


 861:..\..\STM32F0-Discovery_FW_V1.0.0\Libraries\STM32F0xx_StdPeriph_Driver\src/stm32f0xx_rcc.c ****   *             @arg RCC_USART1CLK_LSE: USART1 clock = LSE Clock
 862:..\..\STM32F0-Discovery_FW_V1.0.0\Libraries\STM32F0xx_StdPeriph_Driver\src/stm32f0xx_rcc.c ****   *             @arg RCC_USART1CLK_HSI: USART1 clock = HSI Clock
 863:..\..\STM32F0-Discovery_FW_V1.0.0\Libraries\STM32F0xx_StdPeriph_Driver\src/stm32f0xx_rcc.c ****   * @retval None
 864:..\..\STM32F0-Discovery_FW_V1.0.0\Libraries\STM32F0xx_StdPeriph_Driver\src/stm32f0xx_rcc.c ****   */
 865:..\..\STM32F0-Discovery_FW_V1.0.0\Libraries\STM32F0xx_StdPeriph_Driver\src/stm32f0xx_rcc.c **** void RCC_USARTCLKConfig(uint32_t RCC_USARTCLK)
 866:..\..\STM32F0-Discovery_FW_V1.0.0\Libraries\STM32F0xx_StdPeriph_Driver\src/stm32f0xx_rcc.c **** { 
 899              		.loc 1 866 0
 900              		.cfi_startproc
 901              	.LVL47:
 867:..\..\STM32F0-Discovery_FW_V1.0.0\Libraries\STM32F0xx_StdPeriph_Driver\src/stm32f0xx_rcc.c ****   /* Check the parameters */
 868:..\..\STM32F0-Discovery_FW_V1.0.0\Libraries\STM32F0xx_StdPeriph_Driver\src/stm32f0xx_rcc.c ****   assert_param(IS_RCC_USARTCLK(RCC_USARTCLK));
 869:..\..\STM32F0-Discovery_FW_V1.0.0\Libraries\STM32F0xx_StdPeriph_Driver\src/stm32f0xx_rcc.c **** 
 870:..\..\STM32F0-Discovery_FW_V1.0.0\Libraries\STM32F0xx_StdPeriph_Driver\src/stm32f0xx_rcc.c ****   /* Clear USARTSW[1:0] bit */
 871:..\..\STM32F0-Discovery_FW_V1.0.0\Libraries\STM32F0xx_StdPeriph_Driver\src/stm32f0xx_rcc.c ****   RCC->CFGR3 &= ~RCC_CFGR3_USART1SW;
 902              		.loc 1 871 0
 903 0268 0321     		mov	r1, #3	@ tmp116,
 904 026a 044B     		ldr	r3, .L87	@ tmp115,
 872:..\..\STM32F0-Discovery_FW_V1.0.0\Libraries\STM32F0xx_StdPeriph_Driver\src/stm32f0xx_rcc.c ****   /* Set USARTSW bits according to RCC_USARTCLK value */
 873:..\..\STM32F0-Discovery_FW_V1.0.0\Libraries\STM32F0xx_StdPeriph_Driver\src/stm32f0xx_rcc.c ****   RCC->CFGR3 |= RCC_USARTCLK;
 874:..\..\STM32F0-Discovery_FW_V1.0.0\Libraries\STM32F0xx_StdPeriph_Driver\src/stm32f0xx_rcc.c **** }
 905              		.loc 1 874 0
 906              		@ sp needed	@
 871:..\..\STM32F0-Discovery_FW_V1.0.0\Libraries\STM32F0xx_StdPeriph_Driver\src/stm32f0xx_rcc.c ****   /* Set USARTSW bits according to RCC_USARTCLK value */
 907              		.loc 1 871 0
 908 026c 1A6B     		ldr	r2, [r3, #48]	@ D.5409, MEM[(struct RCC_TypeDef *)1073876992B].CFGR3
 909 026e 8A43     		bic	r2, r1	@ D.5409, tmp116
 910 0270 1A63     		str	r2, [r3, #48]	@ D.5409, MEM[(struct RCC_TypeDef *)1073876992B].CFGR3
 873:..\..\STM32F0-Discovery_FW_V1.0.0\Libraries\STM32F0xx_StdPeriph_Driver\src/stm32f0xx_rcc.c **** }
 911              		.loc 1 873 0
 912 0272 1A6B     		ldr	r2, [r3, #48]	@ D.5409, MEM[(struct RCC_TypeDef *)1073876992B].CFGR3
 913 0274 1043     		orr	r0, r2	@ D.5409, D.5409
 914              	.LVL48:
 915 0276 1863     		str	r0, [r3, #48]	@ D.5409, MEM[(struct RCC_TypeDef *)1073876992B].CFGR3
 916              		.loc 1 874 0
 917 0278 7047     		bx	lr
 918              	.L88:
 919 027a C046     		.align	2
 920              	.L87:
 921 027c 00100240 		.word	1073876992
 922              		.cfi_endproc
 923              	.LFE55:
 924              		.size	RCC_USARTCLKConfig, .-RCC_USARTCLKConfig
 925              		.global	__aeabi_uidiv
 926              		.align	1
 927              		.global	RCC_GetClocksFreq
 928              		.code	16
 929              		.thumb_func
 930              		.type	RCC_GetClocksFreq, %function
 931              	RCC_GetClocksFreq:
 932              	.LFB56:
 875:..\..\STM32F0-Discovery_FW_V1.0.0\Libraries\STM32F0xx_StdPeriph_Driver\src/stm32f0xx_rcc.c **** 
 876:..\..\STM32F0-Discovery_FW_V1.0.0\Libraries\STM32F0xx_StdPeriph_Driver\src/stm32f0xx_rcc.c **** /**
 877:..\..\STM32F0-Discovery_FW_V1.0.0\Libraries\STM32F0xx_StdPeriph_Driver\src/stm32f0xx_rcc.c ****   * @brief  Returns the frequencies of the System, AHB and APB busses clocks.
 878:..\..\STM32F0-Discovery_FW_V1.0.0\Libraries\STM32F0xx_StdPeriph_Driver\src/stm32f0xx_rcc.c ****   * @note    The frequency returned by this function is not the real frequency
 879:..\..\STM32F0-Discovery_FW_V1.0.0\Libraries\STM32F0xx_StdPeriph_Driver\src/stm32f0xx_rcc.c ****   *           in the chip. It is calculated based on the predefined constant and
 880:..\..\STM32F0-Discovery_FW_V1.0.0\Libraries\STM32F0xx_StdPeriph_Driver\src/stm32f0xx_rcc.c ****   *           the source selected by RCC_SYSCLKConfig():
 881:..\..\STM32F0-Discovery_FW_V1.0.0\Libraries\STM32F0xx_StdPeriph_Driver\src/stm32f0xx_rcc.c ****   *                                              
ARM GAS  C:\Users\Doles\AppData\Local\Temp\ccw5cB6c.s 			page 34


 882:..\..\STM32F0-Discovery_FW_V1.0.0\Libraries\STM32F0xx_StdPeriph_Driver\src/stm32f0xx_rcc.c ****   * @note     If SYSCLK source is HSI, function returns constant HSI_VALUE(*)
 883:..\..\STM32F0-Discovery_FW_V1.0.0\Libraries\STM32F0xx_StdPeriph_Driver\src/stm32f0xx_rcc.c ****   *                                              
 884:..\..\STM32F0-Discovery_FW_V1.0.0\Libraries\STM32F0xx_StdPeriph_Driver\src/stm32f0xx_rcc.c ****   * @note     If SYSCLK source is HSE, function returns constant HSE_VALUE(**)
 885:..\..\STM32F0-Discovery_FW_V1.0.0\Libraries\STM32F0xx_StdPeriph_Driver\src/stm32f0xx_rcc.c ****   *                          
 886:..\..\STM32F0-Discovery_FW_V1.0.0\Libraries\STM32F0xx_StdPeriph_Driver\src/stm32f0xx_rcc.c ****   * @note     If SYSCLK source is PLL, function returns constant HSE_VALUE(**) 
 887:..\..\STM32F0-Discovery_FW_V1.0.0\Libraries\STM32F0xx_StdPeriph_Driver\src/stm32f0xx_rcc.c ****   *             or HSI_VALUE(*) multiplied by the PLL factors.
 888:..\..\STM32F0-Discovery_FW_V1.0.0\Libraries\STM32F0xx_StdPeriph_Driver\src/stm32f0xx_rcc.c ****   *         
 889:..\..\STM32F0-Discovery_FW_V1.0.0\Libraries\STM32F0xx_StdPeriph_Driver\src/stm32f0xx_rcc.c ****   *         (*) HSI_VALUE is a constant defined in stm32f0xx.h file (default value
 890:..\..\STM32F0-Discovery_FW_V1.0.0\Libraries\STM32F0xx_StdPeriph_Driver\src/stm32f0xx_rcc.c ****   *             8 MHz) but the real value may vary depending on the variations
 891:..\..\STM32F0-Discovery_FW_V1.0.0\Libraries\STM32F0xx_StdPeriph_Driver\src/stm32f0xx_rcc.c ****   *             in voltage and temperature, refer to RCC_AdjustHSICalibrationValue().   
 892:..\..\STM32F0-Discovery_FW_V1.0.0\Libraries\STM32F0xx_StdPeriph_Driver\src/stm32f0xx_rcc.c ****   *    
 893:..\..\STM32F0-Discovery_FW_V1.0.0\Libraries\STM32F0xx_StdPeriph_Driver\src/stm32f0xx_rcc.c ****   *         (**) HSE_VALUE is a constant defined in stm32f0xx.h file (default value
 894:..\..\STM32F0-Discovery_FW_V1.0.0\Libraries\STM32F0xx_StdPeriph_Driver\src/stm32f0xx_rcc.c ****   *              8 MHz), user has to ensure that HSE_VALUE is same as the real
 895:..\..\STM32F0-Discovery_FW_V1.0.0\Libraries\STM32F0xx_StdPeriph_Driver\src/stm32f0xx_rcc.c ****   *              frequency of the crystal used. Otherwise, this function may
 896:..\..\STM32F0-Discovery_FW_V1.0.0\Libraries\STM32F0xx_StdPeriph_Driver\src/stm32f0xx_rcc.c ****   *              return wrong result.
 897:..\..\STM32F0-Discovery_FW_V1.0.0\Libraries\STM32F0xx_StdPeriph_Driver\src/stm32f0xx_rcc.c ****   *                
 898:..\..\STM32F0-Discovery_FW_V1.0.0\Libraries\STM32F0xx_StdPeriph_Driver\src/stm32f0xx_rcc.c ****   *         - The result of this function could be not correct when using fractional
 899:..\..\STM32F0-Discovery_FW_V1.0.0\Libraries\STM32F0xx_StdPeriph_Driver\src/stm32f0xx_rcc.c ****   *           value for HSE crystal.   
 900:..\..\STM32F0-Discovery_FW_V1.0.0\Libraries\STM32F0xx_StdPeriph_Driver\src/stm32f0xx_rcc.c ****   *             
 901:..\..\STM32F0-Discovery_FW_V1.0.0\Libraries\STM32F0xx_StdPeriph_Driver\src/stm32f0xx_rcc.c ****   * @param  RCC_Clocks: pointer to a RCC_ClocksTypeDef structure which will hold 
 902:..\..\STM32F0-Discovery_FW_V1.0.0\Libraries\STM32F0xx_StdPeriph_Driver\src/stm32f0xx_rcc.c ****   *         the clocks frequencies. 
 903:..\..\STM32F0-Discovery_FW_V1.0.0\Libraries\STM32F0xx_StdPeriph_Driver\src/stm32f0xx_rcc.c ****   *     
 904:..\..\STM32F0-Discovery_FW_V1.0.0\Libraries\STM32F0xx_StdPeriph_Driver\src/stm32f0xx_rcc.c ****   * @note     This function can be used by the user application to compute the 
 905:..\..\STM32F0-Discovery_FW_V1.0.0\Libraries\STM32F0xx_StdPeriph_Driver\src/stm32f0xx_rcc.c ****   *           baudrate for the communication peripherals or configure other parameters.
 906:..\..\STM32F0-Discovery_FW_V1.0.0\Libraries\STM32F0xx_StdPeriph_Driver\src/stm32f0xx_rcc.c ****   * @note     Each time SYSCLK, HCLK and/or PCLK clock changes, this function
 907:..\..\STM32F0-Discovery_FW_V1.0.0\Libraries\STM32F0xx_StdPeriph_Driver\src/stm32f0xx_rcc.c ****   *           must be called to update the structure's field. Otherwise, any
 908:..\..\STM32F0-Discovery_FW_V1.0.0\Libraries\STM32F0xx_StdPeriph_Driver\src/stm32f0xx_rcc.c ****   *           configuration based on this function will be incorrect.
 909:..\..\STM32F0-Discovery_FW_V1.0.0\Libraries\STM32F0xx_StdPeriph_Driver\src/stm32f0xx_rcc.c ****   *    
 910:..\..\STM32F0-Discovery_FW_V1.0.0\Libraries\STM32F0xx_StdPeriph_Driver\src/stm32f0xx_rcc.c ****   * @retval None
 911:..\..\STM32F0-Discovery_FW_V1.0.0\Libraries\STM32F0xx_StdPeriph_Driver\src/stm32f0xx_rcc.c ****   */
 912:..\..\STM32F0-Discovery_FW_V1.0.0\Libraries\STM32F0xx_StdPeriph_Driver\src/stm32f0xx_rcc.c **** void RCC_GetClocksFreq(RCC_ClocksTypeDef* RCC_Clocks)
 913:..\..\STM32F0-Discovery_FW_V1.0.0\Libraries\STM32F0xx_StdPeriph_Driver\src/stm32f0xx_rcc.c **** {
 933              		.loc 1 913 0
 934              		.cfi_startproc
 935              	.LVL49:
 914:..\..\STM32F0-Discovery_FW_V1.0.0\Libraries\STM32F0xx_StdPeriph_Driver\src/stm32f0xx_rcc.c ****   uint32_t tmp = 0, pllmull = 0, pllsource = 0, prediv1factor = 0, presc = 0;
 915:..\..\STM32F0-Discovery_FW_V1.0.0\Libraries\STM32F0xx_StdPeriph_Driver\src/stm32f0xx_rcc.c **** 
 916:..\..\STM32F0-Discovery_FW_V1.0.0\Libraries\STM32F0xx_StdPeriph_Driver\src/stm32f0xx_rcc.c ****   /* Get SYSCLK source -------------------------------------------------------*/
 917:..\..\STM32F0-Discovery_FW_V1.0.0\Libraries\STM32F0xx_StdPeriph_Driver\src/stm32f0xx_rcc.c ****   tmp = RCC->CFGR & RCC_CFGR_SWS;
 936              		.loc 1 917 0
 937 0280 0C23     		mov	r3, #12	@ tmp158,
 913:..\..\STM32F0-Discovery_FW_V1.0.0\Libraries\STM32F0xx_StdPeriph_Driver\src/stm32f0xx_rcc.c ****   uint32_t tmp = 0, pllmull = 0, pllsource = 0, prediv1factor = 0, presc = 0;
 938              		.loc 1 913 0
 939 0282 70B5     		push	{r4, r5, r6, lr}	@
 940              	.LCFI1:
 941              		.cfi_def_cfa_offset 16
 942              		.cfi_offset 4, -16
 943              		.cfi_offset 5, -12
 944              		.cfi_offset 6, -8
 945              		.cfi_offset 14, -4
 946              		.loc 1 917 0
 947 0284 304D     		ldr	r5, .L111	@ tmp156,
 913:..\..\STM32F0-Discovery_FW_V1.0.0\Libraries\STM32F0xx_StdPeriph_Driver\src/stm32f0xx_rcc.c ****   uint32_t tmp = 0, pllmull = 0, pllsource = 0, prediv1factor = 0, presc = 0;
 948              		.loc 1 913 0
 949 0286 041C     		mov	r4, r0	@ RCC_Clocks, RCC_Clocks
 950              		.loc 1 917 0
 951 0288 6A68     		ldr	r2, [r5, #4]	@ D.5412, MEM[(struct RCC_TypeDef *)1073876992B].CFGR
ARM GAS  C:\Users\Doles\AppData\Local\Temp\ccw5cB6c.s 			page 35


 952              	.LVL50:
 953 028a 1340     		and	r3, r2	@ tmp, D.5412
 954              	.LVL51:
 918:..\..\STM32F0-Discovery_FW_V1.0.0\Libraries\STM32F0xx_StdPeriph_Driver\src/stm32f0xx_rcc.c ****   
 919:..\..\STM32F0-Discovery_FW_V1.0.0\Libraries\STM32F0xx_StdPeriph_Driver\src/stm32f0xx_rcc.c ****   switch (tmp)
 955              		.loc 1 919 0
 956 028c 042B     		cmp	r3, #4	@ tmp,
 957 028e 01D0     		beq	.L91	@,
 958 0290 082B     		cmp	r3, #8	@ tmp,
 959 0292 02D0     		beq	.L92	@,
 960              	.L91:
 920:..\..\STM32F0-Discovery_FW_V1.0.0\Libraries\STM32F0xx_StdPeriph_Driver\src/stm32f0xx_rcc.c ****   {
 921:..\..\STM32F0-Discovery_FW_V1.0.0\Libraries\STM32F0xx_StdPeriph_Driver\src/stm32f0xx_rcc.c ****     case 0x00:  /* HSI used as system clock */
 922:..\..\STM32F0-Discovery_FW_V1.0.0\Libraries\STM32F0xx_StdPeriph_Driver\src/stm32f0xx_rcc.c ****       RCC_Clocks->SYSCLK_Frequency = HSI_VALUE;
 923:..\..\STM32F0-Discovery_FW_V1.0.0\Libraries\STM32F0xx_StdPeriph_Driver\src/stm32f0xx_rcc.c ****       break;
 924:..\..\STM32F0-Discovery_FW_V1.0.0\Libraries\STM32F0xx_StdPeriph_Driver\src/stm32f0xx_rcc.c ****     case 0x04:  /* HSE used as system clock */
 925:..\..\STM32F0-Discovery_FW_V1.0.0\Libraries\STM32F0xx_StdPeriph_Driver\src/stm32f0xx_rcc.c ****       RCC_Clocks->SYSCLK_Frequency = HSE_VALUE;
 961              		.loc 1 925 0
 962 0294 2D4B     		ldr	r3, .L111+4	@ tmp160,
 963              	.LVL52:
 964 0296 2360     		str	r3, [r4]	@ tmp160, RCC_Clocks_9(D)->SYSCLK_Frequency
 926:..\..\STM32F0-Discovery_FW_V1.0.0\Libraries\STM32F0xx_StdPeriph_Driver\src/stm32f0xx_rcc.c ****       break;
 965              		.loc 1 926 0
 966 0298 11E0     		b	.L94	@
 967              	.LVL53:
 968              	.L92:
 927:..\..\STM32F0-Discovery_FW_V1.0.0\Libraries\STM32F0xx_StdPeriph_Driver\src/stm32f0xx_rcc.c ****     case 0x08:  /* PLL used as system clock */
 928:..\..\STM32F0-Discovery_FW_V1.0.0\Libraries\STM32F0xx_StdPeriph_Driver\src/stm32f0xx_rcc.c ****       /* Get PLL clock source and multiplication factor ----------------------*/
 929:..\..\STM32F0-Discovery_FW_V1.0.0\Libraries\STM32F0xx_StdPeriph_Driver\src/stm32f0xx_rcc.c ****       pllmull = RCC->CFGR & RCC_CFGR_PLLMULL;
 969              		.loc 1 929 0
 970 029a 6E68     		ldr	r6, [r5, #4]	@ D.5412, MEM[(struct RCC_TypeDef *)1073876992B].CFGR
 971              	.LVL54:
 930:..\..\STM32F0-Discovery_FW_V1.0.0\Libraries\STM32F0xx_StdPeriph_Driver\src/stm32f0xx_rcc.c ****       pllsource = RCC->CFGR & RCC_CFGR_PLLSRC;
 972              		.loc 1 930 0
 973 029c 6B68     		ldr	r3, [r5, #4]	@ D.5412, MEM[(struct RCC_TypeDef *)1073876992B].CFGR
 974              	.LVL55:
 929:..\..\STM32F0-Discovery_FW_V1.0.0\Libraries\STM32F0xx_StdPeriph_Driver\src/stm32f0xx_rcc.c ****       pllsource = RCC->CFGR & RCC_CFGR_PLLSRC;
 975              		.loc 1 929 0
 976 029e B602     		lsl	r6, r6, #10	@ pllmull, D.5412,
 977              	.LVL56:
 931:..\..\STM32F0-Discovery_FW_V1.0.0\Libraries\STM32F0xx_StdPeriph_Driver\src/stm32f0xx_rcc.c ****       pllmull = ( pllmull >> 18) + 2;
 978              		.loc 1 931 0
 979 02a0 360F     		lsr	r6, r6, #28	@ D.5412, pllmull,
 980 02a2 0236     		add	r6, r6, #2	@ pllmull,
 981              	.LVL57:
 932:..\..\STM32F0-Discovery_FW_V1.0.0\Libraries\STM32F0xx_StdPeriph_Driver\src/stm32f0xx_rcc.c ****       
 933:..\..\STM32F0-Discovery_FW_V1.0.0\Libraries\STM32F0xx_StdPeriph_Driver\src/stm32f0xx_rcc.c ****       if (pllsource == 0x00)
 982              		.loc 1 933 0
 983 02a4 DB03     		lsl	r3, r3, #15	@ tmp228, D.5412,
 984 02a6 01D4     		bmi	.L95	@,
 985              	.LVL58:
 934:..\..\STM32F0-Discovery_FW_V1.0.0\Libraries\STM32F0xx_StdPeriph_Driver\src/stm32f0xx_rcc.c ****       {
 935:..\..\STM32F0-Discovery_FW_V1.0.0\Libraries\STM32F0xx_StdPeriph_Driver\src/stm32f0xx_rcc.c ****         /* HSI oscillator clock divided by 2 selected as PLL clock entry */
 936:..\..\STM32F0-Discovery_FW_V1.0.0\Libraries\STM32F0xx_StdPeriph_Driver\src/stm32f0xx_rcc.c ****         RCC_Clocks->SYSCLK_Frequency = (HSI_VALUE >> 1) * pllmull;
 986              		.loc 1 936 0
 987 02a8 2948     		ldr	r0, .L111+8	@ tmp168,
 988              	.LVL59:
ARM GAS  C:\Users\Doles\AppData\Local\Temp\ccw5cB6c.s 			page 36


 989 02aa 06E0     		b	.L107	@
 990              	.LVL60:
 991              	.L95:
 937:..\..\STM32F0-Discovery_FW_V1.0.0\Libraries\STM32F0xx_StdPeriph_Driver\src/stm32f0xx_rcc.c ****       }
 938:..\..\STM32F0-Discovery_FW_V1.0.0\Libraries\STM32F0xx_StdPeriph_Driver\src/stm32f0xx_rcc.c ****       else
 939:..\..\STM32F0-Discovery_FW_V1.0.0\Libraries\STM32F0xx_StdPeriph_Driver\src/stm32f0xx_rcc.c ****       {
 940:..\..\STM32F0-Discovery_FW_V1.0.0\Libraries\STM32F0xx_StdPeriph_Driver\src/stm32f0xx_rcc.c ****         prediv1factor = (RCC->CFGR2 & RCC_CFGR2_PREDIV1) + 1;
 992              		.loc 1 940 0
 993 02ac 0F23     		mov	r3, #15	@ tmp171,
 994 02ae E96A     		ldr	r1, [r5, #44]	@ D.5412, MEM[(struct RCC_TypeDef *)1073876992B].CFGR2
 995              	.LVL61:
 941:..\..\STM32F0-Discovery_FW_V1.0.0\Libraries\STM32F0xx_StdPeriph_Driver\src/stm32f0xx_rcc.c ****         /* HSE oscillator clock selected as PREDIV1 clock entry */
 942:..\..\STM32F0-Discovery_FW_V1.0.0\Libraries\STM32F0xx_StdPeriph_Driver\src/stm32f0xx_rcc.c ****         RCC_Clocks->SYSCLK_Frequency = (HSE_VALUE / prediv1factor) * pllmull; 
 996              		.loc 1 942 0
 997 02b0 2648     		ldr	r0, .L111+4	@,
 998              	.LVL62:
 940:..\..\STM32F0-Discovery_FW_V1.0.0\Libraries\STM32F0xx_StdPeriph_Driver\src/stm32f0xx_rcc.c ****         /* HSE oscillator clock selected as PREDIV1 clock entry */
 999              		.loc 1 940 0
 1000 02b2 1940     		and	r1, r3	@ D.5412, tmp171
 1001              	.LVL63:
 1002 02b4 0131     		add	r1, r1, #1	@ prediv1factor,
 1003              	.LVL64:
 1004              		.loc 1 942 0
 1005 02b6 FFF7FEFF 		bl	__aeabi_uidiv	@
 1006              	.LVL65:
 1007              	.L107:
 1008 02ba 4643     		mul	r6, r0	@ D.5412, D.5412
 1009              	.LVL66:
 1010 02bc 2660     		str	r6, [r4]	@ D.5412, RCC_Clocks_9(D)->SYSCLK_Frequency
 1011              	.L94:
 943:..\..\STM32F0-Discovery_FW_V1.0.0\Libraries\STM32F0xx_StdPeriph_Driver\src/stm32f0xx_rcc.c ****       }      
 944:..\..\STM32F0-Discovery_FW_V1.0.0\Libraries\STM32F0xx_StdPeriph_Driver\src/stm32f0xx_rcc.c ****       break;
 945:..\..\STM32F0-Discovery_FW_V1.0.0\Libraries\STM32F0xx_StdPeriph_Driver\src/stm32f0xx_rcc.c ****     default: /* HSI used as system clock */
 946:..\..\STM32F0-Discovery_FW_V1.0.0\Libraries\STM32F0xx_StdPeriph_Driver\src/stm32f0xx_rcc.c ****       RCC_Clocks->SYSCLK_Frequency = HSI_VALUE;
 947:..\..\STM32F0-Discovery_FW_V1.0.0\Libraries\STM32F0xx_StdPeriph_Driver\src/stm32f0xx_rcc.c ****       break;
 948:..\..\STM32F0-Discovery_FW_V1.0.0\Libraries\STM32F0xx_StdPeriph_Driver\src/stm32f0xx_rcc.c ****   }
 949:..\..\STM32F0-Discovery_FW_V1.0.0\Libraries\STM32F0xx_StdPeriph_Driver\src/stm32f0xx_rcc.c ****   /* Compute HCLK, PCLK clocks frequencies -----------------------------------*/
 950:..\..\STM32F0-Discovery_FW_V1.0.0\Libraries\STM32F0xx_StdPeriph_Driver\src/stm32f0xx_rcc.c ****   /* Get HCLK prescaler */
 951:..\..\STM32F0-Discovery_FW_V1.0.0\Libraries\STM32F0xx_StdPeriph_Driver\src/stm32f0xx_rcc.c ****   tmp = RCC->CFGR & RCC_CFGR_HPRE;
 952:..\..\STM32F0-Discovery_FW_V1.0.0\Libraries\STM32F0xx_StdPeriph_Driver\src/stm32f0xx_rcc.c ****   tmp = tmp >> 4;
 953:..\..\STM32F0-Discovery_FW_V1.0.0\Libraries\STM32F0xx_StdPeriph_Driver\src/stm32f0xx_rcc.c ****   presc = APBAHBPrescTable[tmp]; 
 954:..\..\STM32F0-Discovery_FW_V1.0.0\Libraries\STM32F0xx_StdPeriph_Driver\src/stm32f0xx_rcc.c ****   /* HCLK clock frequency */
 955:..\..\STM32F0-Discovery_FW_V1.0.0\Libraries\STM32F0xx_StdPeriph_Driver\src/stm32f0xx_rcc.c ****   RCC_Clocks->HCLK_Frequency = RCC_Clocks->SYSCLK_Frequency >> presc;
 1012              		.loc 1 955 0
 1013 02be 2168     		ldr	r1, [r4]	@ D.5412, RCC_Clocks_9(D)->SYSCLK_Frequency
 951:..\..\STM32F0-Discovery_FW_V1.0.0\Libraries\STM32F0xx_StdPeriph_Driver\src/stm32f0xx_rcc.c ****   tmp = tmp >> 4;
 1014              		.loc 1 951 0
 1015 02c0 6B68     		ldr	r3, [r5, #4]	@ D.5412, MEM[(struct RCC_TypeDef *)1073876992B].CFGR
 1016              		.loc 1 955 0
 1017 02c2 0A1C     		mov	r2, r1	@ D.5412, D.5412
 953:..\..\STM32F0-Discovery_FW_V1.0.0\Libraries\STM32F0xx_StdPeriph_Driver\src/stm32f0xx_rcc.c ****   /* HCLK clock frequency */
 1018              		.loc 1 953 0
 1019 02c4 2348     		ldr	r0, .L111+12	@ tmp181,
 951:..\..\STM32F0-Discovery_FW_V1.0.0\Libraries\STM32F0xx_StdPeriph_Driver\src/stm32f0xx_rcc.c ****   tmp = tmp >> 4;
 1020              		.loc 1 951 0
 1021 02c6 1B06     		lsl	r3, r3, #24	@ tmp, D.5412,
 952:..\..\STM32F0-Discovery_FW_V1.0.0\Libraries\STM32F0xx_StdPeriph_Driver\src/stm32f0xx_rcc.c ****   presc = APBAHBPrescTable[tmp]; 
ARM GAS  C:\Users\Doles\AppData\Local\Temp\ccw5cB6c.s 			page 37


 1022              		.loc 1 952 0
 1023 02c8 1B0F     		lsr	r3, r3, #28	@ tmp, tmp,
 1024              	.LVL67:
 953:..\..\STM32F0-Discovery_FW_V1.0.0\Libraries\STM32F0xx_StdPeriph_Driver\src/stm32f0xx_rcc.c ****   /* HCLK clock frequency */
 1025              		.loc 1 953 0
 1026 02ca C35C     		ldrb	r3, [r0, r3]	@ tmp184, APBAHBPrescTable
 1027              	.LVL68:
 1028              		.loc 1 955 0
 1029 02cc DA40     		lsr	r2, r2, r3	@ D.5412, D.5412, tmp184
 1030 02ce 131C     		mov	r3, r2	@ D.5412, D.5412
 1031              	.LVL69:
 1032 02d0 6260     		str	r2, [r4, #4]	@ D.5412, RCC_Clocks_9(D)->HCLK_Frequency
 956:..\..\STM32F0-Discovery_FW_V1.0.0\Libraries\STM32F0xx_StdPeriph_Driver\src/stm32f0xx_rcc.c **** 
 957:..\..\STM32F0-Discovery_FW_V1.0.0\Libraries\STM32F0xx_StdPeriph_Driver\src/stm32f0xx_rcc.c ****   /* Get PCLK prescaler */
 958:..\..\STM32F0-Discovery_FW_V1.0.0\Libraries\STM32F0xx_StdPeriph_Driver\src/stm32f0xx_rcc.c ****   tmp = RCC->CFGR & RCC_CFGR_PPRE;
 1033              		.loc 1 958 0
 1034 02d2 6A68     		ldr	r2, [r5, #4]	@ D.5412, MEM[(struct RCC_TypeDef *)1073876992B].CFGR
 1035 02d4 5205     		lsl	r2, r2, #21	@ tmp, D.5412,
 959:..\..\STM32F0-Discovery_FW_V1.0.0\Libraries\STM32F0xx_StdPeriph_Driver\src/stm32f0xx_rcc.c ****   tmp = tmp >> 8;
 1036              		.loc 1 959 0
 1037 02d6 520F     		lsr	r2, r2, #29	@ tmp, tmp,
 1038              	.LVL70:
 960:..\..\STM32F0-Discovery_FW_V1.0.0\Libraries\STM32F0xx_StdPeriph_Driver\src/stm32f0xx_rcc.c ****   presc = APBAHBPrescTable[tmp];
 1039              		.loc 1 960 0
 1040 02d8 825C     		ldrb	r2, [r0, r2]	@ tmp190, APBAHBPrescTable
 1041              	.LVL71:
 961:..\..\STM32F0-Discovery_FW_V1.0.0\Libraries\STM32F0xx_StdPeriph_Driver\src/stm32f0xx_rcc.c ****   /* PCLK clock frequency */
 962:..\..\STM32F0-Discovery_FW_V1.0.0\Libraries\STM32F0xx_StdPeriph_Driver\src/stm32f0xx_rcc.c ****   RCC_Clocks->PCLK_Frequency = RCC_Clocks->HCLK_Frequency >> presc;
 1042              		.loc 1 962 0
 1043 02da D340     		lsr	r3, r3, r2	@ D.5412, D.5412, tmp190
 1044 02dc A360     		str	r3, [r4, #8]	@ D.5412, RCC_Clocks_9(D)->PCLK_Frequency
 963:..\..\STM32F0-Discovery_FW_V1.0.0\Libraries\STM32F0xx_StdPeriph_Driver\src/stm32f0xx_rcc.c **** 
 964:..\..\STM32F0-Discovery_FW_V1.0.0\Libraries\STM32F0xx_StdPeriph_Driver\src/stm32f0xx_rcc.c ****   /* ADCCLK clock frequency */
 965:..\..\STM32F0-Discovery_FW_V1.0.0\Libraries\STM32F0xx_StdPeriph_Driver\src/stm32f0xx_rcc.c ****   if((RCC->CFGR3 & RCC_CFGR3_ADCSW) != RCC_CFGR3_ADCSW)
 1045              		.loc 1 965 0
 1046 02de 2A6B     		ldr	r2, [r5, #48]	@ D.5412, MEM[(struct RCC_TypeDef *)1073876992B].CFGR3
 1047              	.LVL72:
 1048 02e0 D205     		lsl	r2, r2, #23	@ tmp229, D.5412,
 1049 02e2 01D4     		bmi	.L96	@,
 966:..\..\STM32F0-Discovery_FW_V1.0.0\Libraries\STM32F0xx_StdPeriph_Driver\src/stm32f0xx_rcc.c ****   {
 967:..\..\STM32F0-Discovery_FW_V1.0.0\Libraries\STM32F0xx_StdPeriph_Driver\src/stm32f0xx_rcc.c ****     /* ADC Clock is HSI14 Osc. */
 968:..\..\STM32F0-Discovery_FW_V1.0.0\Libraries\STM32F0xx_StdPeriph_Driver\src/stm32f0xx_rcc.c ****     RCC_Clocks->ADCCLK_Frequency = HSI14_VALUE;
 1050              		.loc 1 968 0
 1051 02e4 1C4A     		ldr	r2, .L111+16	@ tmp194,
 1052 02e6 06E0     		b	.L108	@
 1053              	.L96:
 969:..\..\STM32F0-Discovery_FW_V1.0.0\Libraries\STM32F0xx_StdPeriph_Driver\src/stm32f0xx_rcc.c ****   }
 970:..\..\STM32F0-Discovery_FW_V1.0.0\Libraries\STM32F0xx_StdPeriph_Driver\src/stm32f0xx_rcc.c ****   else
 971:..\..\STM32F0-Discovery_FW_V1.0.0\Libraries\STM32F0xx_StdPeriph_Driver\src/stm32f0xx_rcc.c ****   {
 972:..\..\STM32F0-Discovery_FW_V1.0.0\Libraries\STM32F0xx_StdPeriph_Driver\src/stm32f0xx_rcc.c ****     if((RCC->CFGR & RCC_CFGR_ADCPRE) != RCC_CFGR_ADCPRE)
 1054              		.loc 1 972 0
 1055 02e8 174A     		ldr	r2, .L111	@ tmp179,
 1056 02ea 5268     		ldr	r2, [r2, #4]	@ D.5412, MEM[(struct RCC_TypeDef *)1073876992B].CFGR
 1057 02ec 5204     		lsl	r2, r2, #17	@ tmp230, D.5412,
 1058 02ee 01D4     		bmi	.L98	@,
 973:..\..\STM32F0-Discovery_FW_V1.0.0\Libraries\STM32F0xx_StdPeriph_Driver\src/stm32f0xx_rcc.c ****     {
 974:..\..\STM32F0-Discovery_FW_V1.0.0\Libraries\STM32F0xx_StdPeriph_Driver\src/stm32f0xx_rcc.c ****       /* ADC Clock is derived from PCLK/2 */
ARM GAS  C:\Users\Doles\AppData\Local\Temp\ccw5cB6c.s 			page 38


 975:..\..\STM32F0-Discovery_FW_V1.0.0\Libraries\STM32F0xx_StdPeriph_Driver\src/stm32f0xx_rcc.c ****       RCC_Clocks->ADCCLK_Frequency = RCC_Clocks->PCLK_Frequency >> 1;
 1059              		.loc 1 975 0
 1060 02f0 5A08     		lsr	r2, r3, #1	@ D.5412, D.5412,
 1061 02f2 00E0     		b	.L108	@
 1062              	.L98:
 976:..\..\STM32F0-Discovery_FW_V1.0.0\Libraries\STM32F0xx_StdPeriph_Driver\src/stm32f0xx_rcc.c ****     }
 977:..\..\STM32F0-Discovery_FW_V1.0.0\Libraries\STM32F0xx_StdPeriph_Driver\src/stm32f0xx_rcc.c ****     else
 978:..\..\STM32F0-Discovery_FW_V1.0.0\Libraries\STM32F0xx_StdPeriph_Driver\src/stm32f0xx_rcc.c ****     {
 979:..\..\STM32F0-Discovery_FW_V1.0.0\Libraries\STM32F0xx_StdPeriph_Driver\src/stm32f0xx_rcc.c ****       /* ADC Clock is derived from PCLK/4 */
 980:..\..\STM32F0-Discovery_FW_V1.0.0\Libraries\STM32F0xx_StdPeriph_Driver\src/stm32f0xx_rcc.c ****       RCC_Clocks->ADCCLK_Frequency = RCC_Clocks->PCLK_Frequency >> 2;
 1063              		.loc 1 980 0
 1064 02f4 9A08     		lsr	r2, r3, #2	@ D.5412, D.5412,
 1065              	.L108:
 1066 02f6 E260     		str	r2, [r4, #12]	@ D.5412, RCC_Clocks_9(D)->ADCCLK_Frequency
 981:..\..\STM32F0-Discovery_FW_V1.0.0\Libraries\STM32F0xx_StdPeriph_Driver\src/stm32f0xx_rcc.c ****     }
 982:..\..\STM32F0-Discovery_FW_V1.0.0\Libraries\STM32F0xx_StdPeriph_Driver\src/stm32f0xx_rcc.c ****     
 983:..\..\STM32F0-Discovery_FW_V1.0.0\Libraries\STM32F0xx_StdPeriph_Driver\src/stm32f0xx_rcc.c ****   }
 984:..\..\STM32F0-Discovery_FW_V1.0.0\Libraries\STM32F0xx_StdPeriph_Driver\src/stm32f0xx_rcc.c **** 
 985:..\..\STM32F0-Discovery_FW_V1.0.0\Libraries\STM32F0xx_StdPeriph_Driver\src/stm32f0xx_rcc.c ****   /* CECCLK clock frequency */
 986:..\..\STM32F0-Discovery_FW_V1.0.0\Libraries\STM32F0xx_StdPeriph_Driver\src/stm32f0xx_rcc.c ****   if((RCC->CFGR3 & RCC_CFGR3_CECSW) != RCC_CFGR3_CECSW)
 1067              		.loc 1 986 0
 1068 02f8 2A6B     		ldr	r2, [r5, #48]	@ D.5412, MEM[(struct RCC_TypeDef *)1073876992B].CFGR3
 1069 02fa 5206     		lsl	r2, r2, #25	@ tmp231, D.5412,
 1070 02fc 01D4     		bmi	.L99	@,
 987:..\..\STM32F0-Discovery_FW_V1.0.0\Libraries\STM32F0xx_StdPeriph_Driver\src/stm32f0xx_rcc.c ****   {
 988:..\..\STM32F0-Discovery_FW_V1.0.0\Libraries\STM32F0xx_StdPeriph_Driver\src/stm32f0xx_rcc.c ****     /* CEC Clock is HSI/256 */
 989:..\..\STM32F0-Discovery_FW_V1.0.0\Libraries\STM32F0xx_StdPeriph_Driver\src/stm32f0xx_rcc.c ****     RCC_Clocks->CECCLK_Frequency = HSI_VALUE / 244;
 1071              		.loc 1 989 0
 1072 02fe 174A     		ldr	r2, .L111+20	@ tmp203,
 1073 0300 01E0     		b	.L109	@
 1074              	.L99:
 990:..\..\STM32F0-Discovery_FW_V1.0.0\Libraries\STM32F0xx_StdPeriph_Driver\src/stm32f0xx_rcc.c ****   }
 991:..\..\STM32F0-Discovery_FW_V1.0.0\Libraries\STM32F0xx_StdPeriph_Driver\src/stm32f0xx_rcc.c ****   else
 992:..\..\STM32F0-Discovery_FW_V1.0.0\Libraries\STM32F0xx_StdPeriph_Driver\src/stm32f0xx_rcc.c ****   {
 993:..\..\STM32F0-Discovery_FW_V1.0.0\Libraries\STM32F0xx_StdPeriph_Driver\src/stm32f0xx_rcc.c ****     /* CECC Clock is LSE Osc. */
 994:..\..\STM32F0-Discovery_FW_V1.0.0\Libraries\STM32F0xx_StdPeriph_Driver\src/stm32f0xx_rcc.c ****     RCC_Clocks->CECCLK_Frequency = LSE_VALUE;
 1075              		.loc 1 994 0
 1076 0302 8022     		mov	r2, #128	@ tmp204,
 1077 0304 1202     		lsl	r2, r2, #8	@ tmp204, tmp204,
 1078              	.L109:
 1079 0306 2261     		str	r2, [r4, #16]	@ tmp204, RCC_Clocks_9(D)->CECCLK_Frequency
 995:..\..\STM32F0-Discovery_FW_V1.0.0\Libraries\STM32F0xx_StdPeriph_Driver\src/stm32f0xx_rcc.c ****   }
 996:..\..\STM32F0-Discovery_FW_V1.0.0\Libraries\STM32F0xx_StdPeriph_Driver\src/stm32f0xx_rcc.c **** 
 997:..\..\STM32F0-Discovery_FW_V1.0.0\Libraries\STM32F0xx_StdPeriph_Driver\src/stm32f0xx_rcc.c ****   /* I2C1CLK clock frequency */
 998:..\..\STM32F0-Discovery_FW_V1.0.0\Libraries\STM32F0xx_StdPeriph_Driver\src/stm32f0xx_rcc.c ****   if((RCC->CFGR3 & RCC_CFGR3_I2C1SW) != RCC_CFGR3_I2C1SW)
 1080              		.loc 1 998 0
 1081 0308 2A6B     		ldr	r2, [r5, #48]	@ D.5412, MEM[(struct RCC_TypeDef *)1073876992B].CFGR3
 1082 030a D206     		lsl	r2, r2, #27	@ tmp232, D.5412,
 1083 030c 02D4     		bmi	.L101	@,
 999:..\..\STM32F0-Discovery_FW_V1.0.0\Libraries\STM32F0xx_StdPeriph_Driver\src/stm32f0xx_rcc.c ****   {
1000:..\..\STM32F0-Discovery_FW_V1.0.0\Libraries\STM32F0xx_StdPeriph_Driver\src/stm32f0xx_rcc.c ****     /* I2C1 Clock is HSI Osc. */
1001:..\..\STM32F0-Discovery_FW_V1.0.0\Libraries\STM32F0xx_StdPeriph_Driver\src/stm32f0xx_rcc.c ****     RCC_Clocks->I2C1CLK_Frequency = HSI_VALUE;
 1084              		.loc 1 1001 0
 1085 030e 0F4A     		ldr	r2, .L111+4	@ tmp208,
 1086 0310 6261     		str	r2, [r4, #20]	@ tmp208, RCC_Clocks_9(D)->I2C1CLK_Frequency
 1087 0312 00E0     		b	.L102	@
 1088              	.L101:
ARM GAS  C:\Users\Doles\AppData\Local\Temp\ccw5cB6c.s 			page 39


1002:..\..\STM32F0-Discovery_FW_V1.0.0\Libraries\STM32F0xx_StdPeriph_Driver\src/stm32f0xx_rcc.c ****   }
1003:..\..\STM32F0-Discovery_FW_V1.0.0\Libraries\STM32F0xx_StdPeriph_Driver\src/stm32f0xx_rcc.c ****   else
1004:..\..\STM32F0-Discovery_FW_V1.0.0\Libraries\STM32F0xx_StdPeriph_Driver\src/stm32f0xx_rcc.c ****   {
1005:..\..\STM32F0-Discovery_FW_V1.0.0\Libraries\STM32F0xx_StdPeriph_Driver\src/stm32f0xx_rcc.c ****     /* I2C1 Clock is System Clock */
1006:..\..\STM32F0-Discovery_FW_V1.0.0\Libraries\STM32F0xx_StdPeriph_Driver\src/stm32f0xx_rcc.c ****     RCC_Clocks->I2C1CLK_Frequency = RCC_Clocks->SYSCLK_Frequency;
 1089              		.loc 1 1006 0
 1090 0314 6161     		str	r1, [r4, #20]	@ D.5412, RCC_Clocks_9(D)->I2C1CLK_Frequency
 1091              	.L102:
1007:..\..\STM32F0-Discovery_FW_V1.0.0\Libraries\STM32F0xx_StdPeriph_Driver\src/stm32f0xx_rcc.c ****   }
1008:..\..\STM32F0-Discovery_FW_V1.0.0\Libraries\STM32F0xx_StdPeriph_Driver\src/stm32f0xx_rcc.c **** 
1009:..\..\STM32F0-Discovery_FW_V1.0.0\Libraries\STM32F0xx_StdPeriph_Driver\src/stm32f0xx_rcc.c ****   /* USART1CLK clock frequency */
1010:..\..\STM32F0-Discovery_FW_V1.0.0\Libraries\STM32F0xx_StdPeriph_Driver\src/stm32f0xx_rcc.c ****   if((RCC->CFGR3 & RCC_CFGR3_USART1SW) == 0x0)
 1092              		.loc 1 1010 0
 1093 0316 0322     		mov	r2, #3	@ tmp211,
 1094 0318 2D6B     		ldr	r5, [r5, #48]	@ D.5412, MEM[(struct RCC_TypeDef *)1073876992B].CFGR3
 1095 031a 0B48     		ldr	r0, .L111	@ tmp209,
 1096 031c 1542     		tst	r5, r2	@ D.5412, tmp211
 1097 031e 11D0     		beq	.L110	@,
1011:..\..\STM32F0-Discovery_FW_V1.0.0\Libraries\STM32F0xx_StdPeriph_Driver\src/stm32f0xx_rcc.c ****   {
1012:..\..\STM32F0-Discovery_FW_V1.0.0\Libraries\STM32F0xx_StdPeriph_Driver\src/stm32f0xx_rcc.c ****     /* USART1 Clock is PCLK */
1013:..\..\STM32F0-Discovery_FW_V1.0.0\Libraries\STM32F0xx_StdPeriph_Driver\src/stm32f0xx_rcc.c ****     RCC_Clocks->USART1CLK_Frequency = RCC_Clocks->PCLK_Frequency;
1014:..\..\STM32F0-Discovery_FW_V1.0.0\Libraries\STM32F0xx_StdPeriph_Driver\src/stm32f0xx_rcc.c ****   }
1015:..\..\STM32F0-Discovery_FW_V1.0.0\Libraries\STM32F0xx_StdPeriph_Driver\src/stm32f0xx_rcc.c ****   else if((RCC->CFGR3 & RCC_CFGR3_USART1SW) == RCC_CFGR3_USART1SW_0)
 1098              		.loc 1 1015 0
 1099 0320 036B     		ldr	r3, [r0, #48]	@ D.5412, MEM[(struct RCC_TypeDef *)1073876992B].CFGR3
 1100 0322 1340     		and	r3, r2	@ D.5412, tmp211
 1101 0324 012B     		cmp	r3, #1	@ D.5412,
 1102 0326 01D1     		bne	.L105	@,
1016:..\..\STM32F0-Discovery_FW_V1.0.0\Libraries\STM32F0xx_StdPeriph_Driver\src/stm32f0xx_rcc.c ****   {
1017:..\..\STM32F0-Discovery_FW_V1.0.0\Libraries\STM32F0xx_StdPeriph_Driver\src/stm32f0xx_rcc.c ****     /* USART1 Clock is System Clock */
1018:..\..\STM32F0-Discovery_FW_V1.0.0\Libraries\STM32F0xx_StdPeriph_Driver\src/stm32f0xx_rcc.c ****     RCC_Clocks->USART1CLK_Frequency = RCC_Clocks->SYSCLK_Frequency;
 1103              		.loc 1 1018 0
 1104 0328 A161     		str	r1, [r4, #24]	@ D.5412, RCC_Clocks_9(D)->USART1CLK_Frequency
 1105 032a 0CE0     		b	.L89	@
 1106              	.L105:
1019:..\..\STM32F0-Discovery_FW_V1.0.0\Libraries\STM32F0xx_StdPeriph_Driver\src/stm32f0xx_rcc.c ****   }
1020:..\..\STM32F0-Discovery_FW_V1.0.0\Libraries\STM32F0xx_StdPeriph_Driver\src/stm32f0xx_rcc.c ****   else if((RCC->CFGR3 & RCC_CFGR3_USART1SW) == RCC_CFGR3_USART1SW_1)
 1107              		.loc 1 1020 0
 1108 032c 036B     		ldr	r3, [r0, #48]	@ D.5412, MEM[(struct RCC_TypeDef *)1073876992B].CFGR3
 1109 032e 1340     		and	r3, r2	@ D.5412, tmp211
 1110 0330 022B     		cmp	r3, #2	@ D.5412,
 1111 0332 02D1     		bne	.L106	@,
1021:..\..\STM32F0-Discovery_FW_V1.0.0\Libraries\STM32F0xx_StdPeriph_Driver\src/stm32f0xx_rcc.c ****   {
1022:..\..\STM32F0-Discovery_FW_V1.0.0\Libraries\STM32F0xx_StdPeriph_Driver\src/stm32f0xx_rcc.c ****     /* USART1 Clock is LSE Osc. */
1023:..\..\STM32F0-Discovery_FW_V1.0.0\Libraries\STM32F0xx_StdPeriph_Driver\src/stm32f0xx_rcc.c ****     RCC_Clocks->USART1CLK_Frequency = LSE_VALUE;
 1112              		.loc 1 1023 0
 1113 0334 8023     		mov	r3, #128	@ tmp218,
 1114 0336 1B02     		lsl	r3, r3, #8	@ tmp218, tmp218,
 1115 0338 04E0     		b	.L110	@
 1116              	.L106:
1024:..\..\STM32F0-Discovery_FW_V1.0.0\Libraries\STM32F0xx_StdPeriph_Driver\src/stm32f0xx_rcc.c ****   }
1025:..\..\STM32F0-Discovery_FW_V1.0.0\Libraries\STM32F0xx_StdPeriph_Driver\src/stm32f0xx_rcc.c ****   else if((RCC->CFGR3 & RCC_CFGR3_USART1SW) == RCC_CFGR3_USART1SW)
 1117              		.loc 1 1025 0
 1118 033a 036B     		ldr	r3, [r0, #48]	@ D.5412, MEM[(struct RCC_TypeDef *)1073876992B].CFGR3
 1119 033c 1340     		and	r3, r2	@ D.5412, tmp211
 1120 033e 032B     		cmp	r3, #3	@ D.5412,
 1121 0340 01D1     		bne	.L89	@,
ARM GAS  C:\Users\Doles\AppData\Local\Temp\ccw5cB6c.s 			page 40


1026:..\..\STM32F0-Discovery_FW_V1.0.0\Libraries\STM32F0xx_StdPeriph_Driver\src/stm32f0xx_rcc.c ****   {
1027:..\..\STM32F0-Discovery_FW_V1.0.0\Libraries\STM32F0xx_StdPeriph_Driver\src/stm32f0xx_rcc.c ****     /* USART1 Clock is HSI Osc. */
1028:..\..\STM32F0-Discovery_FW_V1.0.0\Libraries\STM32F0xx_StdPeriph_Driver\src/stm32f0xx_rcc.c ****     RCC_Clocks->USART1CLK_Frequency = HSI_VALUE;
 1122              		.loc 1 1028 0
 1123 0342 024B     		ldr	r3, .L111+4	@ tmp222,
 1124              	.L110:
 1125 0344 A361     		str	r3, [r4, #24]	@ tmp222, RCC_Clocks_9(D)->USART1CLK_Frequency
 1126              	.L89:
1029:..\..\STM32F0-Discovery_FW_V1.0.0\Libraries\STM32F0xx_StdPeriph_Driver\src/stm32f0xx_rcc.c ****   }
1030:..\..\STM32F0-Discovery_FW_V1.0.0\Libraries\STM32F0xx_StdPeriph_Driver\src/stm32f0xx_rcc.c **** 
1031:..\..\STM32F0-Discovery_FW_V1.0.0\Libraries\STM32F0xx_StdPeriph_Driver\src/stm32f0xx_rcc.c **** }
 1127              		.loc 1 1031 0
 1128              		@ sp needed	@
 1129              	.LVL73:
 1130 0346 70BD     		pop	{r4, r5, r6, pc}
 1131              	.L112:
 1132              		.align	2
 1133              	.L111:
 1134 0348 00100240 		.word	1073876992
 1135 034c 00127A00 		.word	8000000
 1136 0350 00093D00 		.word	4000000
 1137 0354 00000000 		.word	.LANCHOR0
 1138 0358 809FD500 		.word	14000000
 1139 035c 12800000 		.word	32786
 1140              		.cfi_endproc
 1141              	.LFE56:
 1142              		.size	RCC_GetClocksFreq, .-RCC_GetClocksFreq
 1143              		.align	1
 1144              		.global	RCC_RTCCLKConfig
 1145              		.code	16
 1146              		.thumb_func
 1147              		.type	RCC_RTCCLKConfig, %function
 1148              	RCC_RTCCLKConfig:
 1149              	.LFB57:
1032:..\..\STM32F0-Discovery_FW_V1.0.0\Libraries\STM32F0xx_StdPeriph_Driver\src/stm32f0xx_rcc.c **** 
1033:..\..\STM32F0-Discovery_FW_V1.0.0\Libraries\STM32F0xx_StdPeriph_Driver\src/stm32f0xx_rcc.c **** 
1034:..\..\STM32F0-Discovery_FW_V1.0.0\Libraries\STM32F0xx_StdPeriph_Driver\src/stm32f0xx_rcc.c **** /**
1035:..\..\STM32F0-Discovery_FW_V1.0.0\Libraries\STM32F0xx_StdPeriph_Driver\src/stm32f0xx_rcc.c ****   * @}
1036:..\..\STM32F0-Discovery_FW_V1.0.0\Libraries\STM32F0xx_StdPeriph_Driver\src/stm32f0xx_rcc.c ****   */
1037:..\..\STM32F0-Discovery_FW_V1.0.0\Libraries\STM32F0xx_StdPeriph_Driver\src/stm32f0xx_rcc.c **** 
1038:..\..\STM32F0-Discovery_FW_V1.0.0\Libraries\STM32F0xx_StdPeriph_Driver\src/stm32f0xx_rcc.c **** /** @defgroup RCC_Group3 Peripheral clocks configuration functions
1039:..\..\STM32F0-Discovery_FW_V1.0.0\Libraries\STM32F0xx_StdPeriph_Driver\src/stm32f0xx_rcc.c ****  *  @brief   Peripheral clocks configuration functions 
1040:..\..\STM32F0-Discovery_FW_V1.0.0\Libraries\STM32F0xx_StdPeriph_Driver\src/stm32f0xx_rcc.c ****  *
1041:..\..\STM32F0-Discovery_FW_V1.0.0\Libraries\STM32F0xx_StdPeriph_Driver\src/stm32f0xx_rcc.c **** @verbatim
1042:..\..\STM32F0-Discovery_FW_V1.0.0\Libraries\STM32F0xx_StdPeriph_Driver\src/stm32f0xx_rcc.c ****  ===============================================================================
1043:..\..\STM32F0-Discovery_FW_V1.0.0\Libraries\STM32F0xx_StdPeriph_Driver\src/stm32f0xx_rcc.c ****              #####Peripheral clocks configuration functions #####
1044:..\..\STM32F0-Discovery_FW_V1.0.0\Libraries\STM32F0xx_StdPeriph_Driver\src/stm32f0xx_rcc.c ****  ===============================================================================  
1045:..\..\STM32F0-Discovery_FW_V1.0.0\Libraries\STM32F0xx_StdPeriph_Driver\src/stm32f0xx_rcc.c **** 
1046:..\..\STM32F0-Discovery_FW_V1.0.0\Libraries\STM32F0xx_StdPeriph_Driver\src/stm32f0xx_rcc.c ****     [..] This section provide functions allowing to configure the Peripheral clocks. 
1047:..\..\STM32F0-Discovery_FW_V1.0.0\Libraries\STM32F0xx_StdPeriph_Driver\src/stm32f0xx_rcc.c ****          (#) The RTC clock which is derived from the LSE, LSI or  HSE_Div32 (HSE
1048:..\..\STM32F0-Discovery_FW_V1.0.0\Libraries\STM32F0xx_StdPeriph_Driver\src/stm32f0xx_rcc.c ****              divided by 32).
1049:..\..\STM32F0-Discovery_FW_V1.0.0\Libraries\STM32F0xx_StdPeriph_Driver\src/stm32f0xx_rcc.c ****          (#) After restart from Reset or wakeup from STANDBY, all peripherals are off
1050:..\..\STM32F0-Discovery_FW_V1.0.0\Libraries\STM32F0xx_StdPeriph_Driver\src/stm32f0xx_rcc.c ****              except internal SRAM, Flash and SWD. Before to start using a peripheral you
1051:..\..\STM32F0-Discovery_FW_V1.0.0\Libraries\STM32F0xx_StdPeriph_Driver\src/stm32f0xx_rcc.c ****              have to enable its interface clock. You can do this using RCC_AHBPeriphClockCmd(),
1052:..\..\STM32F0-Discovery_FW_V1.0.0\Libraries\STM32F0xx_StdPeriph_Driver\src/stm32f0xx_rcc.c ****              RCC_APB2PeriphClockCmd() and RCC_APB1PeriphClockCmd() functions.
1053:..\..\STM32F0-Discovery_FW_V1.0.0\Libraries\STM32F0xx_StdPeriph_Driver\src/stm32f0xx_rcc.c ****          (#) To reset the peripherals configuration (to the default state after device reset)
1054:..\..\STM32F0-Discovery_FW_V1.0.0\Libraries\STM32F0xx_StdPeriph_Driver\src/stm32f0xx_rcc.c ****              you can use RCC_AHBPeriphResetCmd(), RCC_APB2PeriphResetCmd() and 
ARM GAS  C:\Users\Doles\AppData\Local\Temp\ccw5cB6c.s 			page 41


1055:..\..\STM32F0-Discovery_FW_V1.0.0\Libraries\STM32F0xx_StdPeriph_Driver\src/stm32f0xx_rcc.c ****              RCC_APB1PeriphResetCmd() functions.
1056:..\..\STM32F0-Discovery_FW_V1.0.0\Libraries\STM32F0xx_StdPeriph_Driver\src/stm32f0xx_rcc.c **** 
1057:..\..\STM32F0-Discovery_FW_V1.0.0\Libraries\STM32F0xx_StdPeriph_Driver\src/stm32f0xx_rcc.c **** @endverbatim
1058:..\..\STM32F0-Discovery_FW_V1.0.0\Libraries\STM32F0xx_StdPeriph_Driver\src/stm32f0xx_rcc.c ****   * @{
1059:..\..\STM32F0-Discovery_FW_V1.0.0\Libraries\STM32F0xx_StdPeriph_Driver\src/stm32f0xx_rcc.c ****   */
1060:..\..\STM32F0-Discovery_FW_V1.0.0\Libraries\STM32F0xx_StdPeriph_Driver\src/stm32f0xx_rcc.c **** 
1061:..\..\STM32F0-Discovery_FW_V1.0.0\Libraries\STM32F0xx_StdPeriph_Driver\src/stm32f0xx_rcc.c **** /**
1062:..\..\STM32F0-Discovery_FW_V1.0.0\Libraries\STM32F0xx_StdPeriph_Driver\src/stm32f0xx_rcc.c ****   * @brief  Configures the RTC clock (RTCCLK).
1063:..\..\STM32F0-Discovery_FW_V1.0.0\Libraries\STM32F0xx_StdPeriph_Driver\src/stm32f0xx_rcc.c ****   * @note     As the RTC clock configuration bits are in the Backup domain and write
1064:..\..\STM32F0-Discovery_FW_V1.0.0\Libraries\STM32F0xx_StdPeriph_Driver\src/stm32f0xx_rcc.c ****   *           access is denied to this domain after reset, you have to enable write
1065:..\..\STM32F0-Discovery_FW_V1.0.0\Libraries\STM32F0xx_StdPeriph_Driver\src/stm32f0xx_rcc.c ****   *           access using PWR_BackupAccessCmd(ENABLE) function before to configure
1066:..\..\STM32F0-Discovery_FW_V1.0.0\Libraries\STM32F0xx_StdPeriph_Driver\src/stm32f0xx_rcc.c ****   *           the RTC clock source (to be done once after reset).    
1067:..\..\STM32F0-Discovery_FW_V1.0.0\Libraries\STM32F0xx_StdPeriph_Driver\src/stm32f0xx_rcc.c ****   * @note     Once the RTC clock is configured it can't be changed unless the RTC
1068:..\..\STM32F0-Discovery_FW_V1.0.0\Libraries\STM32F0xx_StdPeriph_Driver\src/stm32f0xx_rcc.c ****   *           is reset using RCC_BackupResetCmd function, or by a Power On Reset (POR)
1069:..\..\STM32F0-Discovery_FW_V1.0.0\Libraries\STM32F0xx_StdPeriph_Driver\src/stm32f0xx_rcc.c ****   *             
1070:..\..\STM32F0-Discovery_FW_V1.0.0\Libraries\STM32F0xx_StdPeriph_Driver\src/stm32f0xx_rcc.c ****   * @param  RCC_RTCCLKSource: specifies the RTC clock source.
1071:..\..\STM32F0-Discovery_FW_V1.0.0\Libraries\STM32F0xx_StdPeriph_Driver\src/stm32f0xx_rcc.c ****   *   This parameter can be one of the following values:
1072:..\..\STM32F0-Discovery_FW_V1.0.0\Libraries\STM32F0xx_StdPeriph_Driver\src/stm32f0xx_rcc.c ****   *     @arg RCC_RTCCLKSource_LSE: LSE selected as RTC clock
1073:..\..\STM32F0-Discovery_FW_V1.0.0\Libraries\STM32F0xx_StdPeriph_Driver\src/stm32f0xx_rcc.c ****   *     @arg RCC_RTCCLKSource_LSI: LSI selected as RTC clock
1074:..\..\STM32F0-Discovery_FW_V1.0.0\Libraries\STM32F0xx_StdPeriph_Driver\src/stm32f0xx_rcc.c ****   *     @arg RCC_RTCCLKSource_HSE_Div32: HSE divided by 32 selected as RTC clock
1075:..\..\STM32F0-Discovery_FW_V1.0.0\Libraries\STM32F0xx_StdPeriph_Driver\src/stm32f0xx_rcc.c ****   *       
1076:..\..\STM32F0-Discovery_FW_V1.0.0\Libraries\STM32F0xx_StdPeriph_Driver\src/stm32f0xx_rcc.c ****   * @note     If the LSE or LSI is used as RTC clock source, the RTC continues to
1077:..\..\STM32F0-Discovery_FW_V1.0.0\Libraries\STM32F0xx_StdPeriph_Driver\src/stm32f0xx_rcc.c ****   *           work in STOP and STANDBY modes, and can be used as wakeup source.
1078:..\..\STM32F0-Discovery_FW_V1.0.0\Libraries\STM32F0xx_StdPeriph_Driver\src/stm32f0xx_rcc.c ****   *           However, when the HSE clock is used as RTC clock source, the RTC
1079:..\..\STM32F0-Discovery_FW_V1.0.0\Libraries\STM32F0xx_StdPeriph_Driver\src/stm32f0xx_rcc.c ****   *           cannot be used in STOP and STANDBY modes.
1080:..\..\STM32F0-Discovery_FW_V1.0.0\Libraries\STM32F0xx_StdPeriph_Driver\src/stm32f0xx_rcc.c ****   *             
1081:..\..\STM32F0-Discovery_FW_V1.0.0\Libraries\STM32F0xx_StdPeriph_Driver\src/stm32f0xx_rcc.c ****   * @note     The maximum input clock frequency for RTC is 2MHz (when using HSE as
1082:..\..\STM32F0-Discovery_FW_V1.0.0\Libraries\STM32F0xx_StdPeriph_Driver\src/stm32f0xx_rcc.c ****   *           RTC clock source).
1083:..\..\STM32F0-Discovery_FW_V1.0.0\Libraries\STM32F0xx_StdPeriph_Driver\src/stm32f0xx_rcc.c ****   *                          
1084:..\..\STM32F0-Discovery_FW_V1.0.0\Libraries\STM32F0xx_StdPeriph_Driver\src/stm32f0xx_rcc.c ****   * @retval None
1085:..\..\STM32F0-Discovery_FW_V1.0.0\Libraries\STM32F0xx_StdPeriph_Driver\src/stm32f0xx_rcc.c ****   */
1086:..\..\STM32F0-Discovery_FW_V1.0.0\Libraries\STM32F0xx_StdPeriph_Driver\src/stm32f0xx_rcc.c **** void RCC_RTCCLKConfig(uint32_t RCC_RTCCLKSource)
1087:..\..\STM32F0-Discovery_FW_V1.0.0\Libraries\STM32F0xx_StdPeriph_Driver\src/stm32f0xx_rcc.c **** {
 1150              		.loc 1 1087 0
 1151              		.cfi_startproc
 1152              	.LVL74:
1088:..\..\STM32F0-Discovery_FW_V1.0.0\Libraries\STM32F0xx_StdPeriph_Driver\src/stm32f0xx_rcc.c ****   /* Check the parameters */
1089:..\..\STM32F0-Discovery_FW_V1.0.0\Libraries\STM32F0xx_StdPeriph_Driver\src/stm32f0xx_rcc.c ****   assert_param(IS_RCC_RTCCLK_SOURCE(RCC_RTCCLKSource));
1090:..\..\STM32F0-Discovery_FW_V1.0.0\Libraries\STM32F0xx_StdPeriph_Driver\src/stm32f0xx_rcc.c ****   
1091:..\..\STM32F0-Discovery_FW_V1.0.0\Libraries\STM32F0xx_StdPeriph_Driver\src/stm32f0xx_rcc.c ****   /* Select the RTC clock source */
1092:..\..\STM32F0-Discovery_FW_V1.0.0\Libraries\STM32F0xx_StdPeriph_Driver\src/stm32f0xx_rcc.c ****   RCC->BDCR |= RCC_RTCCLKSource;
 1153              		.loc 1 1092 0
 1154 0360 024A     		ldr	r2, .L114	@ tmp113,
1093:..\..\STM32F0-Discovery_FW_V1.0.0\Libraries\STM32F0xx_StdPeriph_Driver\src/stm32f0xx_rcc.c **** }
 1155              		.loc 1 1093 0
 1156              		@ sp needed	@
1092:..\..\STM32F0-Discovery_FW_V1.0.0\Libraries\STM32F0xx_StdPeriph_Driver\src/stm32f0xx_rcc.c **** }
 1157              		.loc 1 1092 0
 1158 0362 136A     		ldr	r3, [r2, #32]	@ D.5418, MEM[(struct RCC_TypeDef *)1073876992B].BDCR
 1159 0364 1843     		orr	r0, r3	@ D.5418, D.5418
 1160              	.LVL75:
 1161 0366 1062     		str	r0, [r2, #32]	@ D.5418, MEM[(struct RCC_TypeDef *)1073876992B].BDCR
 1162              		.loc 1 1093 0
 1163 0368 7047     		bx	lr
 1164              	.L115:
 1165 036a C046     		.align	2
 1166              	.L114:
ARM GAS  C:\Users\Doles\AppData\Local\Temp\ccw5cB6c.s 			page 42


 1167 036c 00100240 		.word	1073876992
 1168              		.cfi_endproc
 1169              	.LFE57:
 1170              		.size	RCC_RTCCLKConfig, .-RCC_RTCCLKConfig
 1171              		.align	1
 1172              		.global	RCC_RTCCLKCmd
 1173              		.code	16
 1174              		.thumb_func
 1175              		.type	RCC_RTCCLKCmd, %function
 1176              	RCC_RTCCLKCmd:
 1177              	.LFB58:
1094:..\..\STM32F0-Discovery_FW_V1.0.0\Libraries\STM32F0xx_StdPeriph_Driver\src/stm32f0xx_rcc.c **** 
1095:..\..\STM32F0-Discovery_FW_V1.0.0\Libraries\STM32F0xx_StdPeriph_Driver\src/stm32f0xx_rcc.c **** /**
1096:..\..\STM32F0-Discovery_FW_V1.0.0\Libraries\STM32F0xx_StdPeriph_Driver\src/stm32f0xx_rcc.c ****   * @brief  Enables or disables the RTC clock.
1097:..\..\STM32F0-Discovery_FW_V1.0.0\Libraries\STM32F0xx_StdPeriph_Driver\src/stm32f0xx_rcc.c ****   * @note   This function must be used only after the RTC clock source was selected
1098:..\..\STM32F0-Discovery_FW_V1.0.0\Libraries\STM32F0xx_StdPeriph_Driver\src/stm32f0xx_rcc.c ****   *         using the RCC_RTCCLKConfig function.
1099:..\..\STM32F0-Discovery_FW_V1.0.0\Libraries\STM32F0xx_StdPeriph_Driver\src/stm32f0xx_rcc.c ****   * @param  NewState: new state of the RTC clock.
1100:..\..\STM32F0-Discovery_FW_V1.0.0\Libraries\STM32F0xx_StdPeriph_Driver\src/stm32f0xx_rcc.c ****   *         This parameter can be: ENABLE or DISABLE.
1101:..\..\STM32F0-Discovery_FW_V1.0.0\Libraries\STM32F0xx_StdPeriph_Driver\src/stm32f0xx_rcc.c ****   * @retval None
1102:..\..\STM32F0-Discovery_FW_V1.0.0\Libraries\STM32F0xx_StdPeriph_Driver\src/stm32f0xx_rcc.c ****   */
1103:..\..\STM32F0-Discovery_FW_V1.0.0\Libraries\STM32F0xx_StdPeriph_Driver\src/stm32f0xx_rcc.c **** void RCC_RTCCLKCmd(FunctionalState NewState)
1104:..\..\STM32F0-Discovery_FW_V1.0.0\Libraries\STM32F0xx_StdPeriph_Driver\src/stm32f0xx_rcc.c **** {
 1178              		.loc 1 1104 0
 1179              		.cfi_startproc
 1180              	.LVL76:
 1181 0370 064B     		ldr	r3, .L120	@ tmp121,
1105:..\..\STM32F0-Discovery_FW_V1.0.0\Libraries\STM32F0xx_StdPeriph_Driver\src/stm32f0xx_rcc.c ****   /* Check the parameters */
1106:..\..\STM32F0-Discovery_FW_V1.0.0\Libraries\STM32F0xx_StdPeriph_Driver\src/stm32f0xx_rcc.c ****   assert_param(IS_FUNCTIONAL_STATE(NewState));
1107:..\..\STM32F0-Discovery_FW_V1.0.0\Libraries\STM32F0xx_StdPeriph_Driver\src/stm32f0xx_rcc.c ****   
1108:..\..\STM32F0-Discovery_FW_V1.0.0\Libraries\STM32F0xx_StdPeriph_Driver\src/stm32f0xx_rcc.c ****   if (NewState != DISABLE)
 1182              		.loc 1 1108 0
 1183 0372 0028     		cmp	r0, #0	@ NewState,
 1184 0374 04D0     		beq	.L117	@,
1109:..\..\STM32F0-Discovery_FW_V1.0.0\Libraries\STM32F0xx_StdPeriph_Driver\src/stm32f0xx_rcc.c ****   {
1110:..\..\STM32F0-Discovery_FW_V1.0.0\Libraries\STM32F0xx_StdPeriph_Driver\src/stm32f0xx_rcc.c ****     RCC->BDCR |= RCC_BDCR_RTCEN;
 1185              		.loc 1 1110 0
 1186 0376 8021     		mov	r1, #128	@ tmp116,
 1187 0378 1A6A     		ldr	r2, [r3, #32]	@ D.5421, MEM[(struct RCC_TypeDef *)1073876992B].BDCR
 1188 037a 0902     		lsl	r1, r1, #8	@ tmp116, tmp116,
 1189 037c 0A43     		orr	r2, r1	@ D.5421, tmp116
 1190 037e 02E0     		b	.L119	@
 1191              	.L117:
1111:..\..\STM32F0-Discovery_FW_V1.0.0\Libraries\STM32F0xx_StdPeriph_Driver\src/stm32f0xx_rcc.c ****   }
1112:..\..\STM32F0-Discovery_FW_V1.0.0\Libraries\STM32F0xx_StdPeriph_Driver\src/stm32f0xx_rcc.c ****   else
1113:..\..\STM32F0-Discovery_FW_V1.0.0\Libraries\STM32F0xx_StdPeriph_Driver\src/stm32f0xx_rcc.c ****   {
1114:..\..\STM32F0-Discovery_FW_V1.0.0\Libraries\STM32F0xx_StdPeriph_Driver\src/stm32f0xx_rcc.c ****     RCC->BDCR &= ~RCC_BDCR_RTCEN;
 1192              		.loc 1 1114 0
 1193 0380 196A     		ldr	r1, [r3, #32]	@ D.5421, MEM[(struct RCC_TypeDef *)1073876992B].BDCR
 1194 0382 034A     		ldr	r2, .L120+4	@ tmp119,
 1195 0384 0A40     		and	r2, r1	@ D.5421, D.5421
 1196              	.L119:
 1197 0386 1A62     		str	r2, [r3, #32]	@ D.5421,
1115:..\..\STM32F0-Discovery_FW_V1.0.0\Libraries\STM32F0xx_StdPeriph_Driver\src/stm32f0xx_rcc.c ****   }
1116:..\..\STM32F0-Discovery_FW_V1.0.0\Libraries\STM32F0xx_StdPeriph_Driver\src/stm32f0xx_rcc.c **** }
 1198              		.loc 1 1116 0
 1199              		@ sp needed	@
 1200 0388 7047     		bx	lr
ARM GAS  C:\Users\Doles\AppData\Local\Temp\ccw5cB6c.s 			page 43


 1201              	.L121:
 1202 038a C046     		.align	2
 1203              	.L120:
 1204 038c 00100240 		.word	1073876992
 1205 0390 FF7FFFFF 		.word	-32769
 1206              		.cfi_endproc
 1207              	.LFE58:
 1208              		.size	RCC_RTCCLKCmd, .-RCC_RTCCLKCmd
 1209              		.align	1
 1210              		.global	RCC_BackupResetCmd
 1211              		.code	16
 1212              		.thumb_func
 1213              		.type	RCC_BackupResetCmd, %function
 1214              	RCC_BackupResetCmd:
 1215              	.LFB59:
1117:..\..\STM32F0-Discovery_FW_V1.0.0\Libraries\STM32F0xx_StdPeriph_Driver\src/stm32f0xx_rcc.c **** 
1118:..\..\STM32F0-Discovery_FW_V1.0.0\Libraries\STM32F0xx_StdPeriph_Driver\src/stm32f0xx_rcc.c **** /**
1119:..\..\STM32F0-Discovery_FW_V1.0.0\Libraries\STM32F0xx_StdPeriph_Driver\src/stm32f0xx_rcc.c ****   * @brief  Forces or releases the Backup domain reset.
1120:..\..\STM32F0-Discovery_FW_V1.0.0\Libraries\STM32F0xx_StdPeriph_Driver\src/stm32f0xx_rcc.c ****   * @note   This function resets the RTC peripheral (including the backup registers)
1121:..\..\STM32F0-Discovery_FW_V1.0.0\Libraries\STM32F0xx_StdPeriph_Driver\src/stm32f0xx_rcc.c ****   *         and the RTC clock source selection in RCC_BDCR register.
1122:..\..\STM32F0-Discovery_FW_V1.0.0\Libraries\STM32F0xx_StdPeriph_Driver\src/stm32f0xx_rcc.c ****   * @param  NewState: new state of the Backup domain reset.
1123:..\..\STM32F0-Discovery_FW_V1.0.0\Libraries\STM32F0xx_StdPeriph_Driver\src/stm32f0xx_rcc.c ****   *         This parameter can be: ENABLE or DISABLE.
1124:..\..\STM32F0-Discovery_FW_V1.0.0\Libraries\STM32F0xx_StdPeriph_Driver\src/stm32f0xx_rcc.c ****   * @retval None
1125:..\..\STM32F0-Discovery_FW_V1.0.0\Libraries\STM32F0xx_StdPeriph_Driver\src/stm32f0xx_rcc.c ****   */
1126:..\..\STM32F0-Discovery_FW_V1.0.0\Libraries\STM32F0xx_StdPeriph_Driver\src/stm32f0xx_rcc.c **** void RCC_BackupResetCmd(FunctionalState NewState)
1127:..\..\STM32F0-Discovery_FW_V1.0.0\Libraries\STM32F0xx_StdPeriph_Driver\src/stm32f0xx_rcc.c **** {
 1216              		.loc 1 1127 0
 1217              		.cfi_startproc
 1218              	.LVL77:
 1219 0394 064B     		ldr	r3, .L126	@ tmp121,
1128:..\..\STM32F0-Discovery_FW_V1.0.0\Libraries\STM32F0xx_StdPeriph_Driver\src/stm32f0xx_rcc.c ****   /* Check the parameters */
1129:..\..\STM32F0-Discovery_FW_V1.0.0\Libraries\STM32F0xx_StdPeriph_Driver\src/stm32f0xx_rcc.c ****   assert_param(IS_FUNCTIONAL_STATE(NewState));
1130:..\..\STM32F0-Discovery_FW_V1.0.0\Libraries\STM32F0xx_StdPeriph_Driver\src/stm32f0xx_rcc.c ****   
1131:..\..\STM32F0-Discovery_FW_V1.0.0\Libraries\STM32F0xx_StdPeriph_Driver\src/stm32f0xx_rcc.c ****   if (NewState != DISABLE)
 1220              		.loc 1 1131 0
 1221 0396 0028     		cmp	r0, #0	@ NewState,
 1222 0398 04D0     		beq	.L123	@,
1132:..\..\STM32F0-Discovery_FW_V1.0.0\Libraries\STM32F0xx_StdPeriph_Driver\src/stm32f0xx_rcc.c ****   {
1133:..\..\STM32F0-Discovery_FW_V1.0.0\Libraries\STM32F0xx_StdPeriph_Driver\src/stm32f0xx_rcc.c ****     RCC->BDCR |= RCC_BDCR_BDRST;
 1223              		.loc 1 1133 0
 1224 039a 8021     		mov	r1, #128	@ tmp116,
 1225 039c 1A6A     		ldr	r2, [r3, #32]	@ D.5424, MEM[(struct RCC_TypeDef *)1073876992B].BDCR
 1226 039e 4902     		lsl	r1, r1, #9	@ tmp116, tmp116,
 1227 03a0 0A43     		orr	r2, r1	@ D.5424, tmp116
 1228 03a2 02E0     		b	.L125	@
 1229              	.L123:
1134:..\..\STM32F0-Discovery_FW_V1.0.0\Libraries\STM32F0xx_StdPeriph_Driver\src/stm32f0xx_rcc.c ****   }
1135:..\..\STM32F0-Discovery_FW_V1.0.0\Libraries\STM32F0xx_StdPeriph_Driver\src/stm32f0xx_rcc.c ****   else
1136:..\..\STM32F0-Discovery_FW_V1.0.0\Libraries\STM32F0xx_StdPeriph_Driver\src/stm32f0xx_rcc.c ****   {
1137:..\..\STM32F0-Discovery_FW_V1.0.0\Libraries\STM32F0xx_StdPeriph_Driver\src/stm32f0xx_rcc.c ****     RCC->BDCR &= ~RCC_BDCR_BDRST;
 1230              		.loc 1 1137 0
 1231 03a4 196A     		ldr	r1, [r3, #32]	@ D.5424, MEM[(struct RCC_TypeDef *)1073876992B].BDCR
 1232 03a6 034A     		ldr	r2, .L126+4	@ tmp119,
 1233 03a8 0A40     		and	r2, r1	@ D.5424, D.5424
 1234              	.L125:
 1235 03aa 1A62     		str	r2, [r3, #32]	@ D.5424,
1138:..\..\STM32F0-Discovery_FW_V1.0.0\Libraries\STM32F0xx_StdPeriph_Driver\src/stm32f0xx_rcc.c ****   }
ARM GAS  C:\Users\Doles\AppData\Local\Temp\ccw5cB6c.s 			page 44


1139:..\..\STM32F0-Discovery_FW_V1.0.0\Libraries\STM32F0xx_StdPeriph_Driver\src/stm32f0xx_rcc.c **** }
 1236              		.loc 1 1139 0
 1237              		@ sp needed	@
 1238 03ac 7047     		bx	lr
 1239              	.L127:
 1240 03ae C046     		.align	2
 1241              	.L126:
 1242 03b0 00100240 		.word	1073876992
 1243 03b4 FFFFFEFF 		.word	-65537
 1244              		.cfi_endproc
 1245              	.LFE59:
 1246              		.size	RCC_BackupResetCmd, .-RCC_BackupResetCmd
 1247              		.align	1
 1248              		.global	RCC_AHBPeriphClockCmd
 1249              		.code	16
 1250              		.thumb_func
 1251              		.type	RCC_AHBPeriphClockCmd, %function
 1252              	RCC_AHBPeriphClockCmd:
 1253              	.LFB60:
1140:..\..\STM32F0-Discovery_FW_V1.0.0\Libraries\STM32F0xx_StdPeriph_Driver\src/stm32f0xx_rcc.c **** 
1141:..\..\STM32F0-Discovery_FW_V1.0.0\Libraries\STM32F0xx_StdPeriph_Driver\src/stm32f0xx_rcc.c **** /**
1142:..\..\STM32F0-Discovery_FW_V1.0.0\Libraries\STM32F0xx_StdPeriph_Driver\src/stm32f0xx_rcc.c ****   * @brief  Enables or disables the AHB peripheral clock.
1143:..\..\STM32F0-Discovery_FW_V1.0.0\Libraries\STM32F0xx_StdPeriph_Driver\src/stm32f0xx_rcc.c ****   * @note   After reset, the peripheral clock (used for registers read/write access)
1144:..\..\STM32F0-Discovery_FW_V1.0.0\Libraries\STM32F0xx_StdPeriph_Driver\src/stm32f0xx_rcc.c ****   *         is disabled and the application software has to enable this clock before 
1145:..\..\STM32F0-Discovery_FW_V1.0.0\Libraries\STM32F0xx_StdPeriph_Driver\src/stm32f0xx_rcc.c ****   *         using it.    
1146:..\..\STM32F0-Discovery_FW_V1.0.0\Libraries\STM32F0xx_StdPeriph_Driver\src/stm32f0xx_rcc.c ****   * @param  RCC_AHBPeriph: specifies the AHB peripheral to gates its clock.
1147:..\..\STM32F0-Discovery_FW_V1.0.0\Libraries\STM32F0xx_StdPeriph_Driver\src/stm32f0xx_rcc.c ****   *         This parameter can be any combination of the following values:
1148:..\..\STM32F0-Discovery_FW_V1.0.0\Libraries\STM32F0xx_StdPeriph_Driver\src/stm32f0xx_rcc.c ****   *             @arg RCC_AHBPeriph_GPIOA:         GPIOA clock
1149:..\..\STM32F0-Discovery_FW_V1.0.0\Libraries\STM32F0xx_StdPeriph_Driver\src/stm32f0xx_rcc.c ****   *             @arg RCC_AHBPeriph_GPIOB:         GPIOB clock
1150:..\..\STM32F0-Discovery_FW_V1.0.0\Libraries\STM32F0xx_StdPeriph_Driver\src/stm32f0xx_rcc.c ****   *             @arg RCC_AHBPeriph_GPIOC:         GPIOC clock
1151:..\..\STM32F0-Discovery_FW_V1.0.0\Libraries\STM32F0xx_StdPeriph_Driver\src/stm32f0xx_rcc.c ****   *             @arg RCC_AHBPeriph_GPIOD:         GPIOD clock
1152:..\..\STM32F0-Discovery_FW_V1.0.0\Libraries\STM32F0xx_StdPeriph_Driver\src/stm32f0xx_rcc.c ****   *             @arg RCC_AHBPeriph_GPIOF:         GPIOF clock
1153:..\..\STM32F0-Discovery_FW_V1.0.0\Libraries\STM32F0xx_StdPeriph_Driver\src/stm32f0xx_rcc.c ****   *             @arg RCC_AHBPeriph_TS:            TS clock
1154:..\..\STM32F0-Discovery_FW_V1.0.0\Libraries\STM32F0xx_StdPeriph_Driver\src/stm32f0xx_rcc.c ****   *             @arg RCC_AHBPeriph_CRC:           CRC clock
1155:..\..\STM32F0-Discovery_FW_V1.0.0\Libraries\STM32F0xx_StdPeriph_Driver\src/stm32f0xx_rcc.c ****   *             @arg RCC_AHBPeriph_FLITF: (has effect only when the Flash memory is in power down m
1156:..\..\STM32F0-Discovery_FW_V1.0.0\Libraries\STM32F0xx_StdPeriph_Driver\src/stm32f0xx_rcc.c ****   *             @arg RCC_AHBPeriph_SRAM:          SRAM clock
1157:..\..\STM32F0-Discovery_FW_V1.0.0\Libraries\STM32F0xx_StdPeriph_Driver\src/stm32f0xx_rcc.c ****   *             @arg RCC_AHBPeriph_DMA1:          DMA1 clock
1158:..\..\STM32F0-Discovery_FW_V1.0.0\Libraries\STM32F0xx_StdPeriph_Driver\src/stm32f0xx_rcc.c ****   * @param  NewState: new state of the specified peripheral clock.
1159:..\..\STM32F0-Discovery_FW_V1.0.0\Libraries\STM32F0xx_StdPeriph_Driver\src/stm32f0xx_rcc.c ****   *         This parameter can be: ENABLE or DISABLE.
1160:..\..\STM32F0-Discovery_FW_V1.0.0\Libraries\STM32F0xx_StdPeriph_Driver\src/stm32f0xx_rcc.c ****   * @retval None
1161:..\..\STM32F0-Discovery_FW_V1.0.0\Libraries\STM32F0xx_StdPeriph_Driver\src/stm32f0xx_rcc.c ****   */
1162:..\..\STM32F0-Discovery_FW_V1.0.0\Libraries\STM32F0xx_StdPeriph_Driver\src/stm32f0xx_rcc.c **** void RCC_AHBPeriphClockCmd(uint32_t RCC_AHBPeriph, FunctionalState NewState)
1163:..\..\STM32F0-Discovery_FW_V1.0.0\Libraries\STM32F0xx_StdPeriph_Driver\src/stm32f0xx_rcc.c **** {
 1254              		.loc 1 1163 0
 1255              		.cfi_startproc
 1256              	.LVL78:
 1257 03b8 044B     		ldr	r3, .L131	@ tmp122,
1164:..\..\STM32F0-Discovery_FW_V1.0.0\Libraries\STM32F0xx_StdPeriph_Driver\src/stm32f0xx_rcc.c ****   /* Check the parameters */
1165:..\..\STM32F0-Discovery_FW_V1.0.0\Libraries\STM32F0xx_StdPeriph_Driver\src/stm32f0xx_rcc.c ****   assert_param(IS_RCC_AHB_PERIPH(RCC_AHBPeriph));
1166:..\..\STM32F0-Discovery_FW_V1.0.0\Libraries\STM32F0xx_StdPeriph_Driver\src/stm32f0xx_rcc.c ****   assert_param(IS_FUNCTIONAL_STATE(NewState));
1167:..\..\STM32F0-Discovery_FW_V1.0.0\Libraries\STM32F0xx_StdPeriph_Driver\src/stm32f0xx_rcc.c ****   
1168:..\..\STM32F0-Discovery_FW_V1.0.0\Libraries\STM32F0xx_StdPeriph_Driver\src/stm32f0xx_rcc.c ****   if (NewState != DISABLE)
1169:..\..\STM32F0-Discovery_FW_V1.0.0\Libraries\STM32F0xx_StdPeriph_Driver\src/stm32f0xx_rcc.c ****   {
1170:..\..\STM32F0-Discovery_FW_V1.0.0\Libraries\STM32F0xx_StdPeriph_Driver\src/stm32f0xx_rcc.c ****     RCC->AHBENR |= RCC_AHBPeriph;
 1258              		.loc 1 1170 0
 1259 03ba 5A69     		ldr	r2, [r3, #20]	@ D.5427,
1168:..\..\STM32F0-Discovery_FW_V1.0.0\Libraries\STM32F0xx_StdPeriph_Driver\src/stm32f0xx_rcc.c ****   {
ARM GAS  C:\Users\Doles\AppData\Local\Temp\ccw5cB6c.s 			page 45


 1260              		.loc 1 1168 0
 1261 03bc 0029     		cmp	r1, #0	@ NewState,
 1262 03be 02D0     		beq	.L129	@,
 1263              		.loc 1 1170 0
 1264 03c0 1043     		orr	r0, r2	@ D.5427, D.5427
 1265              	.LVL79:
 1266 03c2 5861     		str	r0, [r3, #20]	@ D.5427, MEM[(struct RCC_TypeDef *)1073876992B].AHBENR
 1267 03c4 01E0     		b	.L128	@
 1268              	.LVL80:
 1269              	.L129:
1171:..\..\STM32F0-Discovery_FW_V1.0.0\Libraries\STM32F0xx_StdPeriph_Driver\src/stm32f0xx_rcc.c ****   }
1172:..\..\STM32F0-Discovery_FW_V1.0.0\Libraries\STM32F0xx_StdPeriph_Driver\src/stm32f0xx_rcc.c ****   else
1173:..\..\STM32F0-Discovery_FW_V1.0.0\Libraries\STM32F0xx_StdPeriph_Driver\src/stm32f0xx_rcc.c ****   {
1174:..\..\STM32F0-Discovery_FW_V1.0.0\Libraries\STM32F0xx_StdPeriph_Driver\src/stm32f0xx_rcc.c ****     RCC->AHBENR &= ~RCC_AHBPeriph;
 1270              		.loc 1 1174 0
 1271 03c6 8243     		bic	r2, r0	@ D.5427, RCC_AHBPeriph
 1272 03c8 5A61     		str	r2, [r3, #20]	@ D.5427, MEM[(struct RCC_TypeDef *)1073876992B].AHBENR
 1273              	.LVL81:
 1274              	.L128:
1175:..\..\STM32F0-Discovery_FW_V1.0.0\Libraries\STM32F0xx_StdPeriph_Driver\src/stm32f0xx_rcc.c ****   }
1176:..\..\STM32F0-Discovery_FW_V1.0.0\Libraries\STM32F0xx_StdPeriph_Driver\src/stm32f0xx_rcc.c **** }
 1275              		.loc 1 1176 0
 1276              		@ sp needed	@
 1277 03ca 7047     		bx	lr
 1278              	.L132:
 1279              		.align	2
 1280              	.L131:
 1281 03cc 00100240 		.word	1073876992
 1282              		.cfi_endproc
 1283              	.LFE60:
 1284              		.size	RCC_AHBPeriphClockCmd, .-RCC_AHBPeriphClockCmd
 1285              		.align	1
 1286              		.global	RCC_APB2PeriphClockCmd
 1287              		.code	16
 1288              		.thumb_func
 1289              		.type	RCC_APB2PeriphClockCmd, %function
 1290              	RCC_APB2PeriphClockCmd:
 1291              	.LFB61:
1177:..\..\STM32F0-Discovery_FW_V1.0.0\Libraries\STM32F0xx_StdPeriph_Driver\src/stm32f0xx_rcc.c **** 
1178:..\..\STM32F0-Discovery_FW_V1.0.0\Libraries\STM32F0xx_StdPeriph_Driver\src/stm32f0xx_rcc.c **** /**
1179:..\..\STM32F0-Discovery_FW_V1.0.0\Libraries\STM32F0xx_StdPeriph_Driver\src/stm32f0xx_rcc.c ****   * @brief  Enables or disables the High Speed APB (APB2) peripheral clock.
1180:..\..\STM32F0-Discovery_FW_V1.0.0\Libraries\STM32F0xx_StdPeriph_Driver\src/stm32f0xx_rcc.c ****   * @note   After reset, the peripheral clock (used for registers read/write access)
1181:..\..\STM32F0-Discovery_FW_V1.0.0\Libraries\STM32F0xx_StdPeriph_Driver\src/stm32f0xx_rcc.c ****   *         is disabled and the application software has to enable this clock before 
1182:..\..\STM32F0-Discovery_FW_V1.0.0\Libraries\STM32F0xx_StdPeriph_Driver\src/stm32f0xx_rcc.c ****   *         using it.
1183:..\..\STM32F0-Discovery_FW_V1.0.0\Libraries\STM32F0xx_StdPeriph_Driver\src/stm32f0xx_rcc.c ****   * @param  RCC_APB2Periph: specifies the APB2 peripheral to gates its clock.
1184:..\..\STM32F0-Discovery_FW_V1.0.0\Libraries\STM32F0xx_StdPeriph_Driver\src/stm32f0xx_rcc.c ****   *         This parameter can be any combination of the following values:
1185:..\..\STM32F0-Discovery_FW_V1.0.0\Libraries\STM32F0xx_StdPeriph_Driver\src/stm32f0xx_rcc.c ****   *             @arg RCC_APB2Periph_SYSCFG:      SYSCFG clock
1186:..\..\STM32F0-Discovery_FW_V1.0.0\Libraries\STM32F0xx_StdPeriph_Driver\src/stm32f0xx_rcc.c ****   *             @arg RCC_APB2Periph_ADC1:        ADC1 clock
1187:..\..\STM32F0-Discovery_FW_V1.0.0\Libraries\STM32F0xx_StdPeriph_Driver\src/stm32f0xx_rcc.c ****   *             @arg RCC_APB2Periph_TIM1:        TIM1 clock
1188:..\..\STM32F0-Discovery_FW_V1.0.0\Libraries\STM32F0xx_StdPeriph_Driver\src/stm32f0xx_rcc.c ****   *             @arg RCC_APB2Periph_SPI1:        SPI1 clock
1189:..\..\STM32F0-Discovery_FW_V1.0.0\Libraries\STM32F0xx_StdPeriph_Driver\src/stm32f0xx_rcc.c ****   *             @arg RCC_APB2Periph_USART1:      USART1 clock
1190:..\..\STM32F0-Discovery_FW_V1.0.0\Libraries\STM32F0xx_StdPeriph_Driver\src/stm32f0xx_rcc.c ****   *             @arg RCC_APB2Periph_TIM15:       TIM15 clock
1191:..\..\STM32F0-Discovery_FW_V1.0.0\Libraries\STM32F0xx_StdPeriph_Driver\src/stm32f0xx_rcc.c ****   *             @arg RCC_APB2Periph_TIM16:       TIM16 clock
1192:..\..\STM32F0-Discovery_FW_V1.0.0\Libraries\STM32F0xx_StdPeriph_Driver\src/stm32f0xx_rcc.c ****   *             @arg RCC_APB2Periph_TIM17:       TIM17 clock
1193:..\..\STM32F0-Discovery_FW_V1.0.0\Libraries\STM32F0xx_StdPeriph_Driver\src/stm32f0xx_rcc.c ****   *             @arg RCC_APB2Periph_DBGMCU:      DBGMCU clock
1194:..\..\STM32F0-Discovery_FW_V1.0.0\Libraries\STM32F0xx_StdPeriph_Driver\src/stm32f0xx_rcc.c ****   * @param  NewState: new state of the specified peripheral clock.
1195:..\..\STM32F0-Discovery_FW_V1.0.0\Libraries\STM32F0xx_StdPeriph_Driver\src/stm32f0xx_rcc.c ****   *         This parameter can be: ENABLE or DISABLE.
ARM GAS  C:\Users\Doles\AppData\Local\Temp\ccw5cB6c.s 			page 46


1196:..\..\STM32F0-Discovery_FW_V1.0.0\Libraries\STM32F0xx_StdPeriph_Driver\src/stm32f0xx_rcc.c ****   * @retval None
1197:..\..\STM32F0-Discovery_FW_V1.0.0\Libraries\STM32F0xx_StdPeriph_Driver\src/stm32f0xx_rcc.c ****   */
1198:..\..\STM32F0-Discovery_FW_V1.0.0\Libraries\STM32F0xx_StdPeriph_Driver\src/stm32f0xx_rcc.c **** void RCC_APB2PeriphClockCmd(uint32_t RCC_APB2Periph, FunctionalState NewState)
1199:..\..\STM32F0-Discovery_FW_V1.0.0\Libraries\STM32F0xx_StdPeriph_Driver\src/stm32f0xx_rcc.c **** {
 1292              		.loc 1 1199 0
 1293              		.cfi_startproc
 1294              	.LVL82:
 1295 03d0 044B     		ldr	r3, .L136	@ tmp122,
1200:..\..\STM32F0-Discovery_FW_V1.0.0\Libraries\STM32F0xx_StdPeriph_Driver\src/stm32f0xx_rcc.c ****   /* Check the parameters */
1201:..\..\STM32F0-Discovery_FW_V1.0.0\Libraries\STM32F0xx_StdPeriph_Driver\src/stm32f0xx_rcc.c ****   assert_param(IS_RCC_APB2_PERIPH(RCC_APB2Periph));
1202:..\..\STM32F0-Discovery_FW_V1.0.0\Libraries\STM32F0xx_StdPeriph_Driver\src/stm32f0xx_rcc.c ****   assert_param(IS_FUNCTIONAL_STATE(NewState));
1203:..\..\STM32F0-Discovery_FW_V1.0.0\Libraries\STM32F0xx_StdPeriph_Driver\src/stm32f0xx_rcc.c **** 
1204:..\..\STM32F0-Discovery_FW_V1.0.0\Libraries\STM32F0xx_StdPeriph_Driver\src/stm32f0xx_rcc.c ****   if (NewState != DISABLE)
1205:..\..\STM32F0-Discovery_FW_V1.0.0\Libraries\STM32F0xx_StdPeriph_Driver\src/stm32f0xx_rcc.c ****   {
1206:..\..\STM32F0-Discovery_FW_V1.0.0\Libraries\STM32F0xx_StdPeriph_Driver\src/stm32f0xx_rcc.c ****     RCC->APB2ENR |= RCC_APB2Periph;
 1296              		.loc 1 1206 0
 1297 03d2 9A69     		ldr	r2, [r3, #24]	@ D.5430,
1204:..\..\STM32F0-Discovery_FW_V1.0.0\Libraries\STM32F0xx_StdPeriph_Driver\src/stm32f0xx_rcc.c ****   {
 1298              		.loc 1 1204 0
 1299 03d4 0029     		cmp	r1, #0	@ NewState,
 1300 03d6 02D0     		beq	.L134	@,
 1301              		.loc 1 1206 0
 1302 03d8 1043     		orr	r0, r2	@ D.5430, D.5430
 1303              	.LVL83:
 1304 03da 9861     		str	r0, [r3, #24]	@ D.5430, MEM[(struct RCC_TypeDef *)1073876992B].APB2ENR
 1305 03dc 01E0     		b	.L133	@
 1306              	.LVL84:
 1307              	.L134:
1207:..\..\STM32F0-Discovery_FW_V1.0.0\Libraries\STM32F0xx_StdPeriph_Driver\src/stm32f0xx_rcc.c ****   }
1208:..\..\STM32F0-Discovery_FW_V1.0.0\Libraries\STM32F0xx_StdPeriph_Driver\src/stm32f0xx_rcc.c ****   else
1209:..\..\STM32F0-Discovery_FW_V1.0.0\Libraries\STM32F0xx_StdPeriph_Driver\src/stm32f0xx_rcc.c ****   {
1210:..\..\STM32F0-Discovery_FW_V1.0.0\Libraries\STM32F0xx_StdPeriph_Driver\src/stm32f0xx_rcc.c ****     RCC->APB2ENR &= ~RCC_APB2Periph;
 1308              		.loc 1 1210 0
 1309 03de 8243     		bic	r2, r0	@ D.5430, RCC_APB2Periph
 1310 03e0 9A61     		str	r2, [r3, #24]	@ D.5430, MEM[(struct RCC_TypeDef *)1073876992B].APB2ENR
 1311              	.LVL85:
 1312              	.L133:
1211:..\..\STM32F0-Discovery_FW_V1.0.0\Libraries\STM32F0xx_StdPeriph_Driver\src/stm32f0xx_rcc.c ****   }
1212:..\..\STM32F0-Discovery_FW_V1.0.0\Libraries\STM32F0xx_StdPeriph_Driver\src/stm32f0xx_rcc.c **** }
 1313              		.loc 1 1212 0
 1314              		@ sp needed	@
 1315 03e2 7047     		bx	lr
 1316              	.L137:
 1317              		.align	2
 1318              	.L136:
 1319 03e4 00100240 		.word	1073876992
 1320              		.cfi_endproc
 1321              	.LFE61:
 1322              		.size	RCC_APB2PeriphClockCmd, .-RCC_APB2PeriphClockCmd
 1323              		.align	1
 1324              		.global	RCC_APB1PeriphClockCmd
 1325              		.code	16
 1326              		.thumb_func
 1327              		.type	RCC_APB1PeriphClockCmd, %function
 1328              	RCC_APB1PeriphClockCmd:
 1329              	.LFB62:
1213:..\..\STM32F0-Discovery_FW_V1.0.0\Libraries\STM32F0xx_StdPeriph_Driver\src/stm32f0xx_rcc.c **** 
ARM GAS  C:\Users\Doles\AppData\Local\Temp\ccw5cB6c.s 			page 47


1214:..\..\STM32F0-Discovery_FW_V1.0.0\Libraries\STM32F0xx_StdPeriph_Driver\src/stm32f0xx_rcc.c **** /**
1215:..\..\STM32F0-Discovery_FW_V1.0.0\Libraries\STM32F0xx_StdPeriph_Driver\src/stm32f0xx_rcc.c ****   * @brief  Enables or disables the Low Speed APB (APB1) peripheral clock.
1216:..\..\STM32F0-Discovery_FW_V1.0.0\Libraries\STM32F0xx_StdPeriph_Driver\src/stm32f0xx_rcc.c ****   * @note   After reset, the peripheral clock (used for registers read/write access)
1217:..\..\STM32F0-Discovery_FW_V1.0.0\Libraries\STM32F0xx_StdPeriph_Driver\src/stm32f0xx_rcc.c ****   *         is disabled and the application software has to enable this clock before 
1218:..\..\STM32F0-Discovery_FW_V1.0.0\Libraries\STM32F0xx_StdPeriph_Driver\src/stm32f0xx_rcc.c ****   *         using it.
1219:..\..\STM32F0-Discovery_FW_V1.0.0\Libraries\STM32F0xx_StdPeriph_Driver\src/stm32f0xx_rcc.c ****   * @param  RCC_APB1Periph: specifies the APB1 peripheral to gates its clock.
1220:..\..\STM32F0-Discovery_FW_V1.0.0\Libraries\STM32F0xx_StdPeriph_Driver\src/stm32f0xx_rcc.c ****   *         This parameter can be any combination of the following values:
1221:..\..\STM32F0-Discovery_FW_V1.0.0\Libraries\STM32F0xx_StdPeriph_Driver\src/stm32f0xx_rcc.c ****   *           @arg RCC_APB1Periph_TIM2:      TIM2 clock
1222:..\..\STM32F0-Discovery_FW_V1.0.0\Libraries\STM32F0xx_StdPeriph_Driver\src/stm32f0xx_rcc.c ****   *           @arg RCC_APB1Periph_TIM3:      TIM3 clock
1223:..\..\STM32F0-Discovery_FW_V1.0.0\Libraries\STM32F0xx_StdPeriph_Driver\src/stm32f0xx_rcc.c ****   *           @arg RCC_APB1Periph_TIM6:      TIM6 clock
1224:..\..\STM32F0-Discovery_FW_V1.0.0\Libraries\STM32F0xx_StdPeriph_Driver\src/stm32f0xx_rcc.c ****   *           @arg RCC_APB1Periph_TIM14:     TIM14 clock
1225:..\..\STM32F0-Discovery_FW_V1.0.0\Libraries\STM32F0xx_StdPeriph_Driver\src/stm32f0xx_rcc.c ****   *           @arg RCC_APB1Periph_WWDG:      WWDG clock
1226:..\..\STM32F0-Discovery_FW_V1.0.0\Libraries\STM32F0xx_StdPeriph_Driver\src/stm32f0xx_rcc.c ****   *           @arg RCC_APB1Periph_SPI2:      SPI2 clock
1227:..\..\STM32F0-Discovery_FW_V1.0.0\Libraries\STM32F0xx_StdPeriph_Driver\src/stm32f0xx_rcc.c ****   *           @arg RCC_APB1Periph_USART2:    USART2 clock
1228:..\..\STM32F0-Discovery_FW_V1.0.0\Libraries\STM32F0xx_StdPeriph_Driver\src/stm32f0xx_rcc.c ****   *           @arg RCC_APB1Periph_I2C1:      I2C1 clock
1229:..\..\STM32F0-Discovery_FW_V1.0.0\Libraries\STM32F0xx_StdPeriph_Driver\src/stm32f0xx_rcc.c ****   *           @arg RCC_APB1Periph_I2C2:      I2C2 clock
1230:..\..\STM32F0-Discovery_FW_V1.0.0\Libraries\STM32F0xx_StdPeriph_Driver\src/stm32f0xx_rcc.c ****   *           @arg RCC_APB1Periph_PWR:       PWR clock
1231:..\..\STM32F0-Discovery_FW_V1.0.0\Libraries\STM32F0xx_StdPeriph_Driver\src/stm32f0xx_rcc.c ****   *           @arg RCC_APB1Periph_DAC:       DAC clock
1232:..\..\STM32F0-Discovery_FW_V1.0.0\Libraries\STM32F0xx_StdPeriph_Driver\src/stm32f0xx_rcc.c ****   *           @arg RCC_APB1Periph_CEC:       CEC clock                               
1233:..\..\STM32F0-Discovery_FW_V1.0.0\Libraries\STM32F0xx_StdPeriph_Driver\src/stm32f0xx_rcc.c ****   * @param  NewState: new state of the specified peripheral clock.
1234:..\..\STM32F0-Discovery_FW_V1.0.0\Libraries\STM32F0xx_StdPeriph_Driver\src/stm32f0xx_rcc.c ****   *         This parameter can be: ENABLE or DISABLE.
1235:..\..\STM32F0-Discovery_FW_V1.0.0\Libraries\STM32F0xx_StdPeriph_Driver\src/stm32f0xx_rcc.c ****   * @retval None
1236:..\..\STM32F0-Discovery_FW_V1.0.0\Libraries\STM32F0xx_StdPeriph_Driver\src/stm32f0xx_rcc.c ****   */
1237:..\..\STM32F0-Discovery_FW_V1.0.0\Libraries\STM32F0xx_StdPeriph_Driver\src/stm32f0xx_rcc.c **** void RCC_APB1PeriphClockCmd(uint32_t RCC_APB1Periph, FunctionalState NewState)
1238:..\..\STM32F0-Discovery_FW_V1.0.0\Libraries\STM32F0xx_StdPeriph_Driver\src/stm32f0xx_rcc.c **** {
 1330              		.loc 1 1238 0
 1331              		.cfi_startproc
 1332              	.LVL86:
 1333 03e8 044B     		ldr	r3, .L141	@ tmp122,
1239:..\..\STM32F0-Discovery_FW_V1.0.0\Libraries\STM32F0xx_StdPeriph_Driver\src/stm32f0xx_rcc.c ****   /* Check the parameters */
1240:..\..\STM32F0-Discovery_FW_V1.0.0\Libraries\STM32F0xx_StdPeriph_Driver\src/stm32f0xx_rcc.c ****   assert_param(IS_RCC_APB1_PERIPH(RCC_APB1Periph));
1241:..\..\STM32F0-Discovery_FW_V1.0.0\Libraries\STM32F0xx_StdPeriph_Driver\src/stm32f0xx_rcc.c ****   assert_param(IS_FUNCTIONAL_STATE(NewState));
1242:..\..\STM32F0-Discovery_FW_V1.0.0\Libraries\STM32F0xx_StdPeriph_Driver\src/stm32f0xx_rcc.c **** 
1243:..\..\STM32F0-Discovery_FW_V1.0.0\Libraries\STM32F0xx_StdPeriph_Driver\src/stm32f0xx_rcc.c ****   if (NewState != DISABLE)
1244:..\..\STM32F0-Discovery_FW_V1.0.0\Libraries\STM32F0xx_StdPeriph_Driver\src/stm32f0xx_rcc.c ****   {
1245:..\..\STM32F0-Discovery_FW_V1.0.0\Libraries\STM32F0xx_StdPeriph_Driver\src/stm32f0xx_rcc.c ****     RCC->APB1ENR |= RCC_APB1Periph;
 1334              		.loc 1 1245 0
 1335 03ea DA69     		ldr	r2, [r3, #28]	@ D.5433,
1243:..\..\STM32F0-Discovery_FW_V1.0.0\Libraries\STM32F0xx_StdPeriph_Driver\src/stm32f0xx_rcc.c ****   {
 1336              		.loc 1 1243 0
 1337 03ec 0029     		cmp	r1, #0	@ NewState,
 1338 03ee 02D0     		beq	.L139	@,
 1339              		.loc 1 1245 0
 1340 03f0 1043     		orr	r0, r2	@ D.5433, D.5433
 1341              	.LVL87:
 1342 03f2 D861     		str	r0, [r3, #28]	@ D.5433, MEM[(struct RCC_TypeDef *)1073876992B].APB1ENR
 1343 03f4 01E0     		b	.L138	@
 1344              	.LVL88:
 1345              	.L139:
1246:..\..\STM32F0-Discovery_FW_V1.0.0\Libraries\STM32F0xx_StdPeriph_Driver\src/stm32f0xx_rcc.c ****   }
1247:..\..\STM32F0-Discovery_FW_V1.0.0\Libraries\STM32F0xx_StdPeriph_Driver\src/stm32f0xx_rcc.c ****   else
1248:..\..\STM32F0-Discovery_FW_V1.0.0\Libraries\STM32F0xx_StdPeriph_Driver\src/stm32f0xx_rcc.c ****   {
1249:..\..\STM32F0-Discovery_FW_V1.0.0\Libraries\STM32F0xx_StdPeriph_Driver\src/stm32f0xx_rcc.c ****     RCC->APB1ENR &= ~RCC_APB1Periph;
 1346              		.loc 1 1249 0
 1347 03f6 8243     		bic	r2, r0	@ D.5433, RCC_APB1Periph
 1348 03f8 DA61     		str	r2, [r3, #28]	@ D.5433, MEM[(struct RCC_TypeDef *)1073876992B].APB1ENR
 1349              	.LVL89:
ARM GAS  C:\Users\Doles\AppData\Local\Temp\ccw5cB6c.s 			page 48


 1350              	.L138:
1250:..\..\STM32F0-Discovery_FW_V1.0.0\Libraries\STM32F0xx_StdPeriph_Driver\src/stm32f0xx_rcc.c ****   }
1251:..\..\STM32F0-Discovery_FW_V1.0.0\Libraries\STM32F0xx_StdPeriph_Driver\src/stm32f0xx_rcc.c **** }
 1351              		.loc 1 1251 0
 1352              		@ sp needed	@
 1353 03fa 7047     		bx	lr
 1354              	.L142:
 1355              		.align	2
 1356              	.L141:
 1357 03fc 00100240 		.word	1073876992
 1358              		.cfi_endproc
 1359              	.LFE62:
 1360              		.size	RCC_APB1PeriphClockCmd, .-RCC_APB1PeriphClockCmd
 1361              		.align	1
 1362              		.global	RCC_AHBPeriphResetCmd
 1363              		.code	16
 1364              		.thumb_func
 1365              		.type	RCC_AHBPeriphResetCmd, %function
 1366              	RCC_AHBPeriphResetCmd:
 1367              	.LFB63:
1252:..\..\STM32F0-Discovery_FW_V1.0.0\Libraries\STM32F0xx_StdPeriph_Driver\src/stm32f0xx_rcc.c **** 
1253:..\..\STM32F0-Discovery_FW_V1.0.0\Libraries\STM32F0xx_StdPeriph_Driver\src/stm32f0xx_rcc.c **** /**
1254:..\..\STM32F0-Discovery_FW_V1.0.0\Libraries\STM32F0xx_StdPeriph_Driver\src/stm32f0xx_rcc.c ****   * @brief  Forces or releases AHB peripheral reset.
1255:..\..\STM32F0-Discovery_FW_V1.0.0\Libraries\STM32F0xx_StdPeriph_Driver\src/stm32f0xx_rcc.c ****   * @param  RCC_AHBPeriph: specifies the AHB peripheral to reset.
1256:..\..\STM32F0-Discovery_FW_V1.0.0\Libraries\STM32F0xx_StdPeriph_Driver\src/stm32f0xx_rcc.c ****   *         This parameter can be any combination of the following values:
1257:..\..\STM32F0-Discovery_FW_V1.0.0\Libraries\STM32F0xx_StdPeriph_Driver\src/stm32f0xx_rcc.c ****   *             @arg RCC_AHBPeriph_GPIOA:         GPIOA clock
1258:..\..\STM32F0-Discovery_FW_V1.0.0\Libraries\STM32F0xx_StdPeriph_Driver\src/stm32f0xx_rcc.c ****   *             @arg RCC_AHBPeriph_GPIOB:         GPIOB clock
1259:..\..\STM32F0-Discovery_FW_V1.0.0\Libraries\STM32F0xx_StdPeriph_Driver\src/stm32f0xx_rcc.c ****   *             @arg RCC_AHBPeriph_GPIOC:         GPIOC clock
1260:..\..\STM32F0-Discovery_FW_V1.0.0\Libraries\STM32F0xx_StdPeriph_Driver\src/stm32f0xx_rcc.c ****   *             @arg RCC_AHBPeriph_GPIOD:         GPIOD clock
1261:..\..\STM32F0-Discovery_FW_V1.0.0\Libraries\STM32F0xx_StdPeriph_Driver\src/stm32f0xx_rcc.c ****   *             @arg RCC_AHBPeriph_GPIOF:         GPIOF clock
1262:..\..\STM32F0-Discovery_FW_V1.0.0\Libraries\STM32F0xx_StdPeriph_Driver\src/stm32f0xx_rcc.c ****   *             @arg RCC_AHBPeriph_TS:            TS clock
1263:..\..\STM32F0-Discovery_FW_V1.0.0\Libraries\STM32F0xx_StdPeriph_Driver\src/stm32f0xx_rcc.c ****   * @param  NewState: new state of the specified peripheral reset.
1264:..\..\STM32F0-Discovery_FW_V1.0.0\Libraries\STM32F0xx_StdPeriph_Driver\src/stm32f0xx_rcc.c ****   *         This parameter can be: ENABLE or DISABLE.
1265:..\..\STM32F0-Discovery_FW_V1.0.0\Libraries\STM32F0xx_StdPeriph_Driver\src/stm32f0xx_rcc.c ****   * @retval None
1266:..\..\STM32F0-Discovery_FW_V1.0.0\Libraries\STM32F0xx_StdPeriph_Driver\src/stm32f0xx_rcc.c ****   */
1267:..\..\STM32F0-Discovery_FW_V1.0.0\Libraries\STM32F0xx_StdPeriph_Driver\src/stm32f0xx_rcc.c **** void RCC_AHBPeriphResetCmd(uint32_t RCC_AHBPeriph, FunctionalState NewState)
1268:..\..\STM32F0-Discovery_FW_V1.0.0\Libraries\STM32F0xx_StdPeriph_Driver\src/stm32f0xx_rcc.c **** {
 1368              		.loc 1 1268 0
 1369              		.cfi_startproc
 1370              	.LVL90:
 1371 0400 044B     		ldr	r3, .L146	@ tmp122,
1269:..\..\STM32F0-Discovery_FW_V1.0.0\Libraries\STM32F0xx_StdPeriph_Driver\src/stm32f0xx_rcc.c ****   /* Check the parameters */
1270:..\..\STM32F0-Discovery_FW_V1.0.0\Libraries\STM32F0xx_StdPeriph_Driver\src/stm32f0xx_rcc.c ****   assert_param(IS_RCC_AHB_RST_PERIPH(RCC_AHBPeriph));
1271:..\..\STM32F0-Discovery_FW_V1.0.0\Libraries\STM32F0xx_StdPeriph_Driver\src/stm32f0xx_rcc.c ****   assert_param(IS_FUNCTIONAL_STATE(NewState));
1272:..\..\STM32F0-Discovery_FW_V1.0.0\Libraries\STM32F0xx_StdPeriph_Driver\src/stm32f0xx_rcc.c **** 
1273:..\..\STM32F0-Discovery_FW_V1.0.0\Libraries\STM32F0xx_StdPeriph_Driver\src/stm32f0xx_rcc.c ****   if (NewState != DISABLE)
1274:..\..\STM32F0-Discovery_FW_V1.0.0\Libraries\STM32F0xx_StdPeriph_Driver\src/stm32f0xx_rcc.c ****   {
1275:..\..\STM32F0-Discovery_FW_V1.0.0\Libraries\STM32F0xx_StdPeriph_Driver\src/stm32f0xx_rcc.c ****     RCC->AHBRSTR |= RCC_AHBPeriph;
 1372              		.loc 1 1275 0
 1373 0402 9A6A     		ldr	r2, [r3, #40]	@ D.5436,
1273:..\..\STM32F0-Discovery_FW_V1.0.0\Libraries\STM32F0xx_StdPeriph_Driver\src/stm32f0xx_rcc.c ****   {
 1374              		.loc 1 1273 0
 1375 0404 0029     		cmp	r1, #0	@ NewState,
 1376 0406 02D0     		beq	.L144	@,
 1377              		.loc 1 1275 0
 1378 0408 1043     		orr	r0, r2	@ D.5436, D.5436
 1379              	.LVL91:
ARM GAS  C:\Users\Doles\AppData\Local\Temp\ccw5cB6c.s 			page 49


 1380 040a 9862     		str	r0, [r3, #40]	@ D.5436, MEM[(struct RCC_TypeDef *)1073876992B].AHBRSTR
 1381 040c 01E0     		b	.L143	@
 1382              	.LVL92:
 1383              	.L144:
1276:..\..\STM32F0-Discovery_FW_V1.0.0\Libraries\STM32F0xx_StdPeriph_Driver\src/stm32f0xx_rcc.c ****   }
1277:..\..\STM32F0-Discovery_FW_V1.0.0\Libraries\STM32F0xx_StdPeriph_Driver\src/stm32f0xx_rcc.c ****   else
1278:..\..\STM32F0-Discovery_FW_V1.0.0\Libraries\STM32F0xx_StdPeriph_Driver\src/stm32f0xx_rcc.c ****   {
1279:..\..\STM32F0-Discovery_FW_V1.0.0\Libraries\STM32F0xx_StdPeriph_Driver\src/stm32f0xx_rcc.c ****     RCC->AHBRSTR &= ~RCC_AHBPeriph;
 1384              		.loc 1 1279 0
 1385 040e 8243     		bic	r2, r0	@ D.5436, RCC_AHBPeriph
 1386 0410 9A62     		str	r2, [r3, #40]	@ D.5436, MEM[(struct RCC_TypeDef *)1073876992B].AHBRSTR
 1387              	.LVL93:
 1388              	.L143:
1280:..\..\STM32F0-Discovery_FW_V1.0.0\Libraries\STM32F0xx_StdPeriph_Driver\src/stm32f0xx_rcc.c ****   }
1281:..\..\STM32F0-Discovery_FW_V1.0.0\Libraries\STM32F0xx_StdPeriph_Driver\src/stm32f0xx_rcc.c **** }
 1389              		.loc 1 1281 0
 1390              		@ sp needed	@
 1391 0412 7047     		bx	lr
 1392              	.L147:
 1393              		.align	2
 1394              	.L146:
 1395 0414 00100240 		.word	1073876992
 1396              		.cfi_endproc
 1397              	.LFE63:
 1398              		.size	RCC_AHBPeriphResetCmd, .-RCC_AHBPeriphResetCmd
 1399              		.align	1
 1400              		.global	RCC_APB2PeriphResetCmd
 1401              		.code	16
 1402              		.thumb_func
 1403              		.type	RCC_APB2PeriphResetCmd, %function
 1404              	RCC_APB2PeriphResetCmd:
 1405              	.LFB64:
1282:..\..\STM32F0-Discovery_FW_V1.0.0\Libraries\STM32F0xx_StdPeriph_Driver\src/stm32f0xx_rcc.c **** 
1283:..\..\STM32F0-Discovery_FW_V1.0.0\Libraries\STM32F0xx_StdPeriph_Driver\src/stm32f0xx_rcc.c **** /**
1284:..\..\STM32F0-Discovery_FW_V1.0.0\Libraries\STM32F0xx_StdPeriph_Driver\src/stm32f0xx_rcc.c ****   * @brief  Forces or releases High Speed APB (APB2) peripheral reset.
1285:..\..\STM32F0-Discovery_FW_V1.0.0\Libraries\STM32F0xx_StdPeriph_Driver\src/stm32f0xx_rcc.c ****   * @param  RCC_APB2Periph: specifies the APB2 peripheral to reset.
1286:..\..\STM32F0-Discovery_FW_V1.0.0\Libraries\STM32F0xx_StdPeriph_Driver\src/stm32f0xx_rcc.c ****   *         This parameter can be any combination of the following values:
1287:..\..\STM32F0-Discovery_FW_V1.0.0\Libraries\STM32F0xx_StdPeriph_Driver\src/stm32f0xx_rcc.c ****   *             @arg RCC_APB2Periph_SYSCFG:      SYSCFG clock
1288:..\..\STM32F0-Discovery_FW_V1.0.0\Libraries\STM32F0xx_StdPeriph_Driver\src/stm32f0xx_rcc.c ****   *             @arg RCC_APB2Periph_ADC1:        ADC1 clock
1289:..\..\STM32F0-Discovery_FW_V1.0.0\Libraries\STM32F0xx_StdPeriph_Driver\src/stm32f0xx_rcc.c ****   *             @arg RCC_APB2Periph_TIM1:        TIM1 clock
1290:..\..\STM32F0-Discovery_FW_V1.0.0\Libraries\STM32F0xx_StdPeriph_Driver\src/stm32f0xx_rcc.c ****   *             @arg RCC_APB2Periph_SPI1:        SPI1 clock
1291:..\..\STM32F0-Discovery_FW_V1.0.0\Libraries\STM32F0xx_StdPeriph_Driver\src/stm32f0xx_rcc.c ****   *             @arg RCC_APB2Periph_USART1:      USART1 clock
1292:..\..\STM32F0-Discovery_FW_V1.0.0\Libraries\STM32F0xx_StdPeriph_Driver\src/stm32f0xx_rcc.c ****   *             @arg RCC_APB2Periph_TIM15:       TIM15 clock
1293:..\..\STM32F0-Discovery_FW_V1.0.0\Libraries\STM32F0xx_StdPeriph_Driver\src/stm32f0xx_rcc.c ****   *             @arg RCC_APB2Periph_TIM16:       TIM16 clock
1294:..\..\STM32F0-Discovery_FW_V1.0.0\Libraries\STM32F0xx_StdPeriph_Driver\src/stm32f0xx_rcc.c ****   *             @arg RCC_APB2Periph_TIM17:       TIM17 clock
1295:..\..\STM32F0-Discovery_FW_V1.0.0\Libraries\STM32F0xx_StdPeriph_Driver\src/stm32f0xx_rcc.c ****   *             @arg RCC_APB2Periph_DBGMCU:      DBGMCU clock
1296:..\..\STM32F0-Discovery_FW_V1.0.0\Libraries\STM32F0xx_StdPeriph_Driver\src/stm32f0xx_rcc.c ****   * @param  NewState: new state of the specified peripheral reset.
1297:..\..\STM32F0-Discovery_FW_V1.0.0\Libraries\STM32F0xx_StdPeriph_Driver\src/stm32f0xx_rcc.c ****   *         This parameter can be: ENABLE or DISABLE.
1298:..\..\STM32F0-Discovery_FW_V1.0.0\Libraries\STM32F0xx_StdPeriph_Driver\src/stm32f0xx_rcc.c ****   * @retval None
1299:..\..\STM32F0-Discovery_FW_V1.0.0\Libraries\STM32F0xx_StdPeriph_Driver\src/stm32f0xx_rcc.c ****   */
1300:..\..\STM32F0-Discovery_FW_V1.0.0\Libraries\STM32F0xx_StdPeriph_Driver\src/stm32f0xx_rcc.c **** void RCC_APB2PeriphResetCmd(uint32_t RCC_APB2Periph, FunctionalState NewState)
1301:..\..\STM32F0-Discovery_FW_V1.0.0\Libraries\STM32F0xx_StdPeriph_Driver\src/stm32f0xx_rcc.c **** {
 1406              		.loc 1 1301 0
 1407              		.cfi_startproc
 1408              	.LVL94:
 1409 0418 044B     		ldr	r3, .L151	@ tmp122,
1302:..\..\STM32F0-Discovery_FW_V1.0.0\Libraries\STM32F0xx_StdPeriph_Driver\src/stm32f0xx_rcc.c ****   /* Check the parameters */
ARM GAS  C:\Users\Doles\AppData\Local\Temp\ccw5cB6c.s 			page 50


1303:..\..\STM32F0-Discovery_FW_V1.0.0\Libraries\STM32F0xx_StdPeriph_Driver\src/stm32f0xx_rcc.c ****   assert_param(IS_RCC_APB2_PERIPH(RCC_APB2Periph));
1304:..\..\STM32F0-Discovery_FW_V1.0.0\Libraries\STM32F0xx_StdPeriph_Driver\src/stm32f0xx_rcc.c ****   assert_param(IS_FUNCTIONAL_STATE(NewState));
1305:..\..\STM32F0-Discovery_FW_V1.0.0\Libraries\STM32F0xx_StdPeriph_Driver\src/stm32f0xx_rcc.c **** 
1306:..\..\STM32F0-Discovery_FW_V1.0.0\Libraries\STM32F0xx_StdPeriph_Driver\src/stm32f0xx_rcc.c ****   if (NewState != DISABLE)
1307:..\..\STM32F0-Discovery_FW_V1.0.0\Libraries\STM32F0xx_StdPeriph_Driver\src/stm32f0xx_rcc.c ****   {
1308:..\..\STM32F0-Discovery_FW_V1.0.0\Libraries\STM32F0xx_StdPeriph_Driver\src/stm32f0xx_rcc.c ****     RCC->APB2RSTR |= RCC_APB2Periph;
 1410              		.loc 1 1308 0
 1411 041a DA68     		ldr	r2, [r3, #12]	@ D.5439,
1306:..\..\STM32F0-Discovery_FW_V1.0.0\Libraries\STM32F0xx_StdPeriph_Driver\src/stm32f0xx_rcc.c ****   {
 1412              		.loc 1 1306 0
 1413 041c 0029     		cmp	r1, #0	@ NewState,
 1414 041e 02D0     		beq	.L149	@,
 1415              		.loc 1 1308 0
 1416 0420 1043     		orr	r0, r2	@ D.5439, D.5439
 1417              	.LVL95:
 1418 0422 D860     		str	r0, [r3, #12]	@ D.5439, MEM[(struct RCC_TypeDef *)1073876992B].APB2RSTR
 1419 0424 01E0     		b	.L148	@
 1420              	.LVL96:
 1421              	.L149:
1309:..\..\STM32F0-Discovery_FW_V1.0.0\Libraries\STM32F0xx_StdPeriph_Driver\src/stm32f0xx_rcc.c ****   }
1310:..\..\STM32F0-Discovery_FW_V1.0.0\Libraries\STM32F0xx_StdPeriph_Driver\src/stm32f0xx_rcc.c ****   else
1311:..\..\STM32F0-Discovery_FW_V1.0.0\Libraries\STM32F0xx_StdPeriph_Driver\src/stm32f0xx_rcc.c ****   {
1312:..\..\STM32F0-Discovery_FW_V1.0.0\Libraries\STM32F0xx_StdPeriph_Driver\src/stm32f0xx_rcc.c ****     RCC->APB2RSTR &= ~RCC_APB2Periph;
 1422              		.loc 1 1312 0
 1423 0426 8243     		bic	r2, r0	@ D.5439, RCC_APB2Periph
 1424 0428 DA60     		str	r2, [r3, #12]	@ D.5439, MEM[(struct RCC_TypeDef *)1073876992B].APB2RSTR
 1425              	.LVL97:
 1426              	.L148:
1313:..\..\STM32F0-Discovery_FW_V1.0.0\Libraries\STM32F0xx_StdPeriph_Driver\src/stm32f0xx_rcc.c ****   }
1314:..\..\STM32F0-Discovery_FW_V1.0.0\Libraries\STM32F0xx_StdPeriph_Driver\src/stm32f0xx_rcc.c **** }
 1427              		.loc 1 1314 0
 1428              		@ sp needed	@
 1429 042a 7047     		bx	lr
 1430              	.L152:
 1431              		.align	2
 1432              	.L151:
 1433 042c 00100240 		.word	1073876992
 1434              		.cfi_endproc
 1435              	.LFE64:
 1436              		.size	RCC_APB2PeriphResetCmd, .-RCC_APB2PeriphResetCmd
 1437              		.align	1
 1438              		.global	RCC_APB1PeriphResetCmd
 1439              		.code	16
 1440              		.thumb_func
 1441              		.type	RCC_APB1PeriphResetCmd, %function
 1442              	RCC_APB1PeriphResetCmd:
 1443              	.LFB65:
1315:..\..\STM32F0-Discovery_FW_V1.0.0\Libraries\STM32F0xx_StdPeriph_Driver\src/stm32f0xx_rcc.c **** 
1316:..\..\STM32F0-Discovery_FW_V1.0.0\Libraries\STM32F0xx_StdPeriph_Driver\src/stm32f0xx_rcc.c **** /**
1317:..\..\STM32F0-Discovery_FW_V1.0.0\Libraries\STM32F0xx_StdPeriph_Driver\src/stm32f0xx_rcc.c ****   * @brief  Forces or releases Low Speed APB (APB1) peripheral reset.
1318:..\..\STM32F0-Discovery_FW_V1.0.0\Libraries\STM32F0xx_StdPeriph_Driver\src/stm32f0xx_rcc.c ****   * @param  RCC_APB1Periph: specifies the APB1 peripheral to reset.
1319:..\..\STM32F0-Discovery_FW_V1.0.0\Libraries\STM32F0xx_StdPeriph_Driver\src/stm32f0xx_rcc.c ****   *         This parameter can be any combination of the following values:
1320:..\..\STM32F0-Discovery_FW_V1.0.0\Libraries\STM32F0xx_StdPeriph_Driver\src/stm32f0xx_rcc.c ****   *           @arg RCC_APB1Periph_TIM2:      TIM2 clock
1321:..\..\STM32F0-Discovery_FW_V1.0.0\Libraries\STM32F0xx_StdPeriph_Driver\src/stm32f0xx_rcc.c ****   *           @arg RCC_APB1Periph_TIM3:      TIM3 clock
1322:..\..\STM32F0-Discovery_FW_V1.0.0\Libraries\STM32F0xx_StdPeriph_Driver\src/stm32f0xx_rcc.c ****   *           @arg RCC_APB1Periph_TIM6:      TIM6 clock
1323:..\..\STM32F0-Discovery_FW_V1.0.0\Libraries\STM32F0xx_StdPeriph_Driver\src/stm32f0xx_rcc.c ****   *           @arg RCC_APB1Periph_TIM14:     TIM14 clock
1324:..\..\STM32F0-Discovery_FW_V1.0.0\Libraries\STM32F0xx_StdPeriph_Driver\src/stm32f0xx_rcc.c ****   *           @arg RCC_APB1Periph_WWDG:      WWDG clock
ARM GAS  C:\Users\Doles\AppData\Local\Temp\ccw5cB6c.s 			page 51


1325:..\..\STM32F0-Discovery_FW_V1.0.0\Libraries\STM32F0xx_StdPeriph_Driver\src/stm32f0xx_rcc.c ****   *           @arg RCC_APB1Periph_SPI2:      SPI2 clock
1326:..\..\STM32F0-Discovery_FW_V1.0.0\Libraries\STM32F0xx_StdPeriph_Driver\src/stm32f0xx_rcc.c ****   *           @arg RCC_APB1Periph_USART2:    USART2 clock
1327:..\..\STM32F0-Discovery_FW_V1.0.0\Libraries\STM32F0xx_StdPeriph_Driver\src/stm32f0xx_rcc.c ****   *           @arg RCC_APB1Periph_I2C1:      I2C1 clock
1328:..\..\STM32F0-Discovery_FW_V1.0.0\Libraries\STM32F0xx_StdPeriph_Driver\src/stm32f0xx_rcc.c ****   *           @arg RCC_APB1Periph_I2C2:      I2C2 clock
1329:..\..\STM32F0-Discovery_FW_V1.0.0\Libraries\STM32F0xx_StdPeriph_Driver\src/stm32f0xx_rcc.c ****   *           @arg RCC_APB1Periph_PWR:       PWR clock
1330:..\..\STM32F0-Discovery_FW_V1.0.0\Libraries\STM32F0xx_StdPeriph_Driver\src/stm32f0xx_rcc.c ****   *           @arg RCC_APB1Periph_DAC:       DAC clock
1331:..\..\STM32F0-Discovery_FW_V1.0.0\Libraries\STM32F0xx_StdPeriph_Driver\src/stm32f0xx_rcc.c ****   *           @arg RCC_APB1Periph_CEC:       CEC clock
1332:..\..\STM32F0-Discovery_FW_V1.0.0\Libraries\STM32F0xx_StdPeriph_Driver\src/stm32f0xx_rcc.c ****   * @param  NewState: new state of the specified peripheral clock.
1333:..\..\STM32F0-Discovery_FW_V1.0.0\Libraries\STM32F0xx_StdPeriph_Driver\src/stm32f0xx_rcc.c ****   *         This parameter can be: ENABLE or DISABLE.
1334:..\..\STM32F0-Discovery_FW_V1.0.0\Libraries\STM32F0xx_StdPeriph_Driver\src/stm32f0xx_rcc.c ****   * @retval None
1335:..\..\STM32F0-Discovery_FW_V1.0.0\Libraries\STM32F0xx_StdPeriph_Driver\src/stm32f0xx_rcc.c ****   */
1336:..\..\STM32F0-Discovery_FW_V1.0.0\Libraries\STM32F0xx_StdPeriph_Driver\src/stm32f0xx_rcc.c **** void RCC_APB1PeriphResetCmd(uint32_t RCC_APB1Periph, FunctionalState NewState)
1337:..\..\STM32F0-Discovery_FW_V1.0.0\Libraries\STM32F0xx_StdPeriph_Driver\src/stm32f0xx_rcc.c **** {
 1444              		.loc 1 1337 0
 1445              		.cfi_startproc
 1446              	.LVL98:
 1447 0430 044B     		ldr	r3, .L156	@ tmp122,
1338:..\..\STM32F0-Discovery_FW_V1.0.0\Libraries\STM32F0xx_StdPeriph_Driver\src/stm32f0xx_rcc.c ****   /* Check the parameters */
1339:..\..\STM32F0-Discovery_FW_V1.0.0\Libraries\STM32F0xx_StdPeriph_Driver\src/stm32f0xx_rcc.c ****   assert_param(IS_RCC_APB1_PERIPH(RCC_APB1Periph));
1340:..\..\STM32F0-Discovery_FW_V1.0.0\Libraries\STM32F0xx_StdPeriph_Driver\src/stm32f0xx_rcc.c ****   assert_param(IS_FUNCTIONAL_STATE(NewState));
1341:..\..\STM32F0-Discovery_FW_V1.0.0\Libraries\STM32F0xx_StdPeriph_Driver\src/stm32f0xx_rcc.c **** 
1342:..\..\STM32F0-Discovery_FW_V1.0.0\Libraries\STM32F0xx_StdPeriph_Driver\src/stm32f0xx_rcc.c ****   if (NewState != DISABLE)
1343:..\..\STM32F0-Discovery_FW_V1.0.0\Libraries\STM32F0xx_StdPeriph_Driver\src/stm32f0xx_rcc.c ****   {
1344:..\..\STM32F0-Discovery_FW_V1.0.0\Libraries\STM32F0xx_StdPeriph_Driver\src/stm32f0xx_rcc.c ****     RCC->APB1RSTR |= RCC_APB1Periph;
 1448              		.loc 1 1344 0
 1449 0432 1A69     		ldr	r2, [r3, #16]	@ D.5442,
1342:..\..\STM32F0-Discovery_FW_V1.0.0\Libraries\STM32F0xx_StdPeriph_Driver\src/stm32f0xx_rcc.c ****   {
 1450              		.loc 1 1342 0
 1451 0434 0029     		cmp	r1, #0	@ NewState,
 1452 0436 02D0     		beq	.L154	@,
 1453              		.loc 1 1344 0
 1454 0438 1043     		orr	r0, r2	@ D.5442, D.5442
 1455              	.LVL99:
 1456 043a 1861     		str	r0, [r3, #16]	@ D.5442, MEM[(struct RCC_TypeDef *)1073876992B].APB1RSTR
 1457 043c 01E0     		b	.L153	@
 1458              	.LVL100:
 1459              	.L154:
1345:..\..\STM32F0-Discovery_FW_V1.0.0\Libraries\STM32F0xx_StdPeriph_Driver\src/stm32f0xx_rcc.c ****   }
1346:..\..\STM32F0-Discovery_FW_V1.0.0\Libraries\STM32F0xx_StdPeriph_Driver\src/stm32f0xx_rcc.c ****   else
1347:..\..\STM32F0-Discovery_FW_V1.0.0\Libraries\STM32F0xx_StdPeriph_Driver\src/stm32f0xx_rcc.c ****   {
1348:..\..\STM32F0-Discovery_FW_V1.0.0\Libraries\STM32F0xx_StdPeriph_Driver\src/stm32f0xx_rcc.c ****     RCC->APB1RSTR &= ~RCC_APB1Periph;
 1460              		.loc 1 1348 0
 1461 043e 8243     		bic	r2, r0	@ D.5442, RCC_APB1Periph
 1462 0440 1A61     		str	r2, [r3, #16]	@ D.5442, MEM[(struct RCC_TypeDef *)1073876992B].APB1RSTR
 1463              	.LVL101:
 1464              	.L153:
1349:..\..\STM32F0-Discovery_FW_V1.0.0\Libraries\STM32F0xx_StdPeriph_Driver\src/stm32f0xx_rcc.c ****   }
1350:..\..\STM32F0-Discovery_FW_V1.0.0\Libraries\STM32F0xx_StdPeriph_Driver\src/stm32f0xx_rcc.c **** }
 1465              		.loc 1 1350 0
 1466              		@ sp needed	@
 1467 0442 7047     		bx	lr
 1468              	.L157:
 1469              		.align	2
 1470              	.L156:
 1471 0444 00100240 		.word	1073876992
 1472              		.cfi_endproc
 1473              	.LFE65:
ARM GAS  C:\Users\Doles\AppData\Local\Temp\ccw5cB6c.s 			page 52


 1474              		.size	RCC_APB1PeriphResetCmd, .-RCC_APB1PeriphResetCmd
 1475              		.align	1
 1476              		.global	RCC_ITConfig
 1477              		.code	16
 1478              		.thumb_func
 1479              		.type	RCC_ITConfig, %function
 1480              	RCC_ITConfig:
 1481              	.LFB66:
1351:..\..\STM32F0-Discovery_FW_V1.0.0\Libraries\STM32F0xx_StdPeriph_Driver\src/stm32f0xx_rcc.c **** 
1352:..\..\STM32F0-Discovery_FW_V1.0.0\Libraries\STM32F0xx_StdPeriph_Driver\src/stm32f0xx_rcc.c **** /**
1353:..\..\STM32F0-Discovery_FW_V1.0.0\Libraries\STM32F0xx_StdPeriph_Driver\src/stm32f0xx_rcc.c ****   * @}
1354:..\..\STM32F0-Discovery_FW_V1.0.0\Libraries\STM32F0xx_StdPeriph_Driver\src/stm32f0xx_rcc.c ****   */
1355:..\..\STM32F0-Discovery_FW_V1.0.0\Libraries\STM32F0xx_StdPeriph_Driver\src/stm32f0xx_rcc.c **** 
1356:..\..\STM32F0-Discovery_FW_V1.0.0\Libraries\STM32F0xx_StdPeriph_Driver\src/stm32f0xx_rcc.c **** /** @defgroup RCC_Group4 Interrupts and flags management functions
1357:..\..\STM32F0-Discovery_FW_V1.0.0\Libraries\STM32F0xx_StdPeriph_Driver\src/stm32f0xx_rcc.c ****  *  @brief   Interrupts and flags management functions 
1358:..\..\STM32F0-Discovery_FW_V1.0.0\Libraries\STM32F0xx_StdPeriph_Driver\src/stm32f0xx_rcc.c ****  *
1359:..\..\STM32F0-Discovery_FW_V1.0.0\Libraries\STM32F0xx_StdPeriph_Driver\src/stm32f0xx_rcc.c **** @verbatim
1360:..\..\STM32F0-Discovery_FW_V1.0.0\Libraries\STM32F0xx_StdPeriph_Driver\src/stm32f0xx_rcc.c ****  ===============================================================================
1361:..\..\STM32F0-Discovery_FW_V1.0.0\Libraries\STM32F0xx_StdPeriph_Driver\src/stm32f0xx_rcc.c ****              ##### Interrupts and flags management functions #####
1362:..\..\STM32F0-Discovery_FW_V1.0.0\Libraries\STM32F0xx_StdPeriph_Driver\src/stm32f0xx_rcc.c ****  ===============================================================================
1363:..\..\STM32F0-Discovery_FW_V1.0.0\Libraries\STM32F0xx_StdPeriph_Driver\src/stm32f0xx_rcc.c **** @endverbatim
1364:..\..\STM32F0-Discovery_FW_V1.0.0\Libraries\STM32F0xx_StdPeriph_Driver\src/stm32f0xx_rcc.c ****   * @{
1365:..\..\STM32F0-Discovery_FW_V1.0.0\Libraries\STM32F0xx_StdPeriph_Driver\src/stm32f0xx_rcc.c ****   */
1366:..\..\STM32F0-Discovery_FW_V1.0.0\Libraries\STM32F0xx_StdPeriph_Driver\src/stm32f0xx_rcc.c **** 
1367:..\..\STM32F0-Discovery_FW_V1.0.0\Libraries\STM32F0xx_StdPeriph_Driver\src/stm32f0xx_rcc.c **** /**
1368:..\..\STM32F0-Discovery_FW_V1.0.0\Libraries\STM32F0xx_StdPeriph_Driver\src/stm32f0xx_rcc.c ****   * @brief  Enables or disables the specified RCC interrupts.
1369:..\..\STM32F0-Discovery_FW_V1.0.0\Libraries\STM32F0xx_StdPeriph_Driver\src/stm32f0xx_rcc.c ****   * @note   The CSS interrupt doesn't have an enable bit; once the CSS is enabled
1370:..\..\STM32F0-Discovery_FW_V1.0.0\Libraries\STM32F0xx_StdPeriph_Driver\src/stm32f0xx_rcc.c ****   *         and if the HSE clock fails, the CSS interrupt occurs and an NMI is
1371:..\..\STM32F0-Discovery_FW_V1.0.0\Libraries\STM32F0xx_StdPeriph_Driver\src/stm32f0xx_rcc.c ****   *         automatically generated. The NMI will be executed indefinitely, and 
1372:..\..\STM32F0-Discovery_FW_V1.0.0\Libraries\STM32F0xx_StdPeriph_Driver\src/stm32f0xx_rcc.c ****   *         since NMI has higher priority than any other IRQ (and main program)
1373:..\..\STM32F0-Discovery_FW_V1.0.0\Libraries\STM32F0xx_StdPeriph_Driver\src/stm32f0xx_rcc.c ****   *         the application will be stacked in the NMI ISR unless the CSS interrupt
1374:..\..\STM32F0-Discovery_FW_V1.0.0\Libraries\STM32F0xx_StdPeriph_Driver\src/stm32f0xx_rcc.c ****   *         pending bit is cleared.
1375:..\..\STM32F0-Discovery_FW_V1.0.0\Libraries\STM32F0xx_StdPeriph_Driver\src/stm32f0xx_rcc.c ****   * @param  RCC_IT: specifies the RCC interrupt sources to be enabled or disabled.
1376:..\..\STM32F0-Discovery_FW_V1.0.0\Libraries\STM32F0xx_StdPeriph_Driver\src/stm32f0xx_rcc.c ****   *         This parameter can be any combination of the following values:
1377:..\..\STM32F0-Discovery_FW_V1.0.0\Libraries\STM32F0xx_StdPeriph_Driver\src/stm32f0xx_rcc.c ****   *              @arg RCC_IT_LSIRDY: LSI ready interrupt
1378:..\..\STM32F0-Discovery_FW_V1.0.0\Libraries\STM32F0xx_StdPeriph_Driver\src/stm32f0xx_rcc.c ****   *              @arg RCC_IT_LSERDY: LSE ready interrupt
1379:..\..\STM32F0-Discovery_FW_V1.0.0\Libraries\STM32F0xx_StdPeriph_Driver\src/stm32f0xx_rcc.c ****   *              @arg RCC_IT_HSIRDY: HSI ready interrupt
1380:..\..\STM32F0-Discovery_FW_V1.0.0\Libraries\STM32F0xx_StdPeriph_Driver\src/stm32f0xx_rcc.c ****   *              @arg RCC_IT_HSERDY: HSE ready interrupt
1381:..\..\STM32F0-Discovery_FW_V1.0.0\Libraries\STM32F0xx_StdPeriph_Driver\src/stm32f0xx_rcc.c ****   *              @arg RCC_IT_PLLRDY: PLL ready interrupt
1382:..\..\STM32F0-Discovery_FW_V1.0.0\Libraries\STM32F0xx_StdPeriph_Driver\src/stm32f0xx_rcc.c ****   *              @arg RCC_IT_HSI14RDY: HSI14 ready interrupt
1383:..\..\STM32F0-Discovery_FW_V1.0.0\Libraries\STM32F0xx_StdPeriph_Driver\src/stm32f0xx_rcc.c ****   * @param  NewState: new state of the specified RCC interrupts.
1384:..\..\STM32F0-Discovery_FW_V1.0.0\Libraries\STM32F0xx_StdPeriph_Driver\src/stm32f0xx_rcc.c ****   *         This parameter can be: ENABLE or DISABLE.
1385:..\..\STM32F0-Discovery_FW_V1.0.0\Libraries\STM32F0xx_StdPeriph_Driver\src/stm32f0xx_rcc.c ****   * @retval None
1386:..\..\STM32F0-Discovery_FW_V1.0.0\Libraries\STM32F0xx_StdPeriph_Driver\src/stm32f0xx_rcc.c ****   */
1387:..\..\STM32F0-Discovery_FW_V1.0.0\Libraries\STM32F0xx_StdPeriph_Driver\src/stm32f0xx_rcc.c **** void RCC_ITConfig(uint8_t RCC_IT, FunctionalState NewState)
1388:..\..\STM32F0-Discovery_FW_V1.0.0\Libraries\STM32F0xx_StdPeriph_Driver\src/stm32f0xx_rcc.c **** {
 1482              		.loc 1 1388 0
 1483              		.cfi_startproc
 1484              	.LVL102:
 1485 0448 044B     		ldr	r3, .L161	@ tmp132,
1389:..\..\STM32F0-Discovery_FW_V1.0.0\Libraries\STM32F0xx_StdPeriph_Driver\src/stm32f0xx_rcc.c ****   /* Check the parameters */
1390:..\..\STM32F0-Discovery_FW_V1.0.0\Libraries\STM32F0xx_StdPeriph_Driver\src/stm32f0xx_rcc.c ****   assert_param(IS_RCC_IT(RCC_IT));
1391:..\..\STM32F0-Discovery_FW_V1.0.0\Libraries\STM32F0xx_StdPeriph_Driver\src/stm32f0xx_rcc.c ****   assert_param(IS_FUNCTIONAL_STATE(NewState));
1392:..\..\STM32F0-Discovery_FW_V1.0.0\Libraries\STM32F0xx_StdPeriph_Driver\src/stm32f0xx_rcc.c ****   
1393:..\..\STM32F0-Discovery_FW_V1.0.0\Libraries\STM32F0xx_StdPeriph_Driver\src/stm32f0xx_rcc.c ****   if (NewState != DISABLE)
1394:..\..\STM32F0-Discovery_FW_V1.0.0\Libraries\STM32F0xx_StdPeriph_Driver\src/stm32f0xx_rcc.c ****   {
1395:..\..\STM32F0-Discovery_FW_V1.0.0\Libraries\STM32F0xx_StdPeriph_Driver\src/stm32f0xx_rcc.c ****     /* Perform Byte access to RCC_CIR[13:8] bits to enable the selected interrupts */
ARM GAS  C:\Users\Doles\AppData\Local\Temp\ccw5cB6c.s 			page 53


1396:..\..\STM32F0-Discovery_FW_V1.0.0\Libraries\STM32F0xx_StdPeriph_Driver\src/stm32f0xx_rcc.c ****     *(__IO uint8_t *) CIR_BYTE1_ADDRESS |= RCC_IT;
 1486              		.loc 1 1396 0
 1487 044a 1A78     		ldrb	r2, [r3]	@ MEM[(volatile uint8_t *)1073877001B],
1393:..\..\STM32F0-Discovery_FW_V1.0.0\Libraries\STM32F0xx_StdPeriph_Driver\src/stm32f0xx_rcc.c ****   {
 1488              		.loc 1 1393 0
 1489 044c 0029     		cmp	r1, #0	@ NewState,
 1490 044e 02D0     		beq	.L159	@,
 1491              		.loc 1 1396 0
 1492 0450 1043     		orr	r0, r2	@ D.5445, MEM[(volatile uint8_t *)1073877001B]
 1493              	.LVL103:
 1494 0452 1870     		strb	r0, [r3]	@ D.5445, MEM[(volatile uint8_t *)1073877001B]
 1495 0454 01E0     		b	.L158	@
 1496              	.LVL104:
 1497              	.L159:
1397:..\..\STM32F0-Discovery_FW_V1.0.0\Libraries\STM32F0xx_StdPeriph_Driver\src/stm32f0xx_rcc.c ****   }
1398:..\..\STM32F0-Discovery_FW_V1.0.0\Libraries\STM32F0xx_StdPeriph_Driver\src/stm32f0xx_rcc.c ****   else
1399:..\..\STM32F0-Discovery_FW_V1.0.0\Libraries\STM32F0xx_StdPeriph_Driver\src/stm32f0xx_rcc.c ****   {
1400:..\..\STM32F0-Discovery_FW_V1.0.0\Libraries\STM32F0xx_StdPeriph_Driver\src/stm32f0xx_rcc.c ****     /* Perform Byte access to RCC_CIR[13:8] bits to disable the selected interrupts */
1401:..\..\STM32F0-Discovery_FW_V1.0.0\Libraries\STM32F0xx_StdPeriph_Driver\src/stm32f0xx_rcc.c ****     *(__IO uint8_t *) CIR_BYTE1_ADDRESS &= (uint8_t)~RCC_IT;
 1498              		.loc 1 1401 0
 1499 0456 8243     		bic	r2, r0	@ D.5445, RCC_IT
 1500 0458 1A70     		strb	r2, [r3]	@ D.5445, MEM[(volatile uint8_t *)1073877001B]
 1501              	.LVL105:
 1502              	.L158:
1402:..\..\STM32F0-Discovery_FW_V1.0.0\Libraries\STM32F0xx_StdPeriph_Driver\src/stm32f0xx_rcc.c ****   }
1403:..\..\STM32F0-Discovery_FW_V1.0.0\Libraries\STM32F0xx_StdPeriph_Driver\src/stm32f0xx_rcc.c **** }
 1503              		.loc 1 1403 0
 1504              		@ sp needed	@
 1505 045a 7047     		bx	lr
 1506              	.L162:
 1507              		.align	2
 1508              	.L161:
 1509 045c 09100240 		.word	1073877001
 1510              		.cfi_endproc
 1511              	.LFE66:
 1512              		.size	RCC_ITConfig, .-RCC_ITConfig
 1513              		.align	1
 1514              		.global	RCC_GetFlagStatus
 1515              		.code	16
 1516              		.thumb_func
 1517              		.type	RCC_GetFlagStatus, %function
 1518              	RCC_GetFlagStatus:
 1519              	.LFB67:
1404:..\..\STM32F0-Discovery_FW_V1.0.0\Libraries\STM32F0xx_StdPeriph_Driver\src/stm32f0xx_rcc.c **** 
1405:..\..\STM32F0-Discovery_FW_V1.0.0\Libraries\STM32F0xx_StdPeriph_Driver\src/stm32f0xx_rcc.c **** /**
1406:..\..\STM32F0-Discovery_FW_V1.0.0\Libraries\STM32F0xx_StdPeriph_Driver\src/stm32f0xx_rcc.c ****   * @brief  Checks whether the specified RCC flag is set or not.
1407:..\..\STM32F0-Discovery_FW_V1.0.0\Libraries\STM32F0xx_StdPeriph_Driver\src/stm32f0xx_rcc.c ****   * @param  RCC_FLAG: specifies the flag to check.
1408:..\..\STM32F0-Discovery_FW_V1.0.0\Libraries\STM32F0xx_StdPeriph_Driver\src/stm32f0xx_rcc.c ****   *         This parameter can be one of the following values:
1409:..\..\STM32F0-Discovery_FW_V1.0.0\Libraries\STM32F0xx_StdPeriph_Driver\src/stm32f0xx_rcc.c ****   *             @arg RCC_FLAG_HSIRDY: HSI oscillator clock ready  
1410:..\..\STM32F0-Discovery_FW_V1.0.0\Libraries\STM32F0xx_StdPeriph_Driver\src/stm32f0xx_rcc.c ****   *             @arg RCC_FLAG_HSERDY: HSE oscillator clock ready
1411:..\..\STM32F0-Discovery_FW_V1.0.0\Libraries\STM32F0xx_StdPeriph_Driver\src/stm32f0xx_rcc.c ****   *             @arg RCC_FLAG_PLLRDY: PLL clock ready
1412:..\..\STM32F0-Discovery_FW_V1.0.0\Libraries\STM32F0xx_StdPeriph_Driver\src/stm32f0xx_rcc.c ****   *             @arg RCC_FLAG_LSERDY: LSE oscillator clock ready
1413:..\..\STM32F0-Discovery_FW_V1.0.0\Libraries\STM32F0xx_StdPeriph_Driver\src/stm32f0xx_rcc.c ****   *             @arg RCC_FLAG_LSIRDY: LSI oscillator clock ready
1414:..\..\STM32F0-Discovery_FW_V1.0.0\Libraries\STM32F0xx_StdPeriph_Driver\src/stm32f0xx_rcc.c ****   *             @arg RCC_FLAG_OBLRST: Option Byte Loader (OBL) reset 
1415:..\..\STM32F0-Discovery_FW_V1.0.0\Libraries\STM32F0xx_StdPeriph_Driver\src/stm32f0xx_rcc.c ****   *             @arg RCC_FLAG_PINRST: Pin reset
1416:..\..\STM32F0-Discovery_FW_V1.0.0\Libraries\STM32F0xx_StdPeriph_Driver\src/stm32f0xx_rcc.c ****   *             @arg RCC_FLAG_V18PWRRSTF:  V1.8 power domain reset  
1417:..\..\STM32F0-Discovery_FW_V1.0.0\Libraries\STM32F0xx_StdPeriph_Driver\src/stm32f0xx_rcc.c ****   *             @arg RCC_FLAG_PORRST: POR/PDR reset
ARM GAS  C:\Users\Doles\AppData\Local\Temp\ccw5cB6c.s 			page 54


1418:..\..\STM32F0-Discovery_FW_V1.0.0\Libraries\STM32F0xx_StdPeriph_Driver\src/stm32f0xx_rcc.c ****   *             @arg RCC_FLAG_SFTRST: Software reset
1419:..\..\STM32F0-Discovery_FW_V1.0.0\Libraries\STM32F0xx_StdPeriph_Driver\src/stm32f0xx_rcc.c ****   *             @arg RCC_FLAG_IWDGRST: Independent Watchdog reset
1420:..\..\STM32F0-Discovery_FW_V1.0.0\Libraries\STM32F0xx_StdPeriph_Driver\src/stm32f0xx_rcc.c ****   *             @arg RCC_FLAG_WWDGRST: Window Watchdog reset
1421:..\..\STM32F0-Discovery_FW_V1.0.0\Libraries\STM32F0xx_StdPeriph_Driver\src/stm32f0xx_rcc.c ****   *             @arg RCC_FLAG_LPWRRST: Low Power reset
1422:..\..\STM32F0-Discovery_FW_V1.0.0\Libraries\STM32F0xx_StdPeriph_Driver\src/stm32f0xx_rcc.c ****   *             @arg RCC_FLAG_HSI14RDY: HSI14 oscillator clock ready  
1423:..\..\STM32F0-Discovery_FW_V1.0.0\Libraries\STM32F0xx_StdPeriph_Driver\src/stm32f0xx_rcc.c ****   * @retval The new state of RCC_FLAG (SET or RESET).
1424:..\..\STM32F0-Discovery_FW_V1.0.0\Libraries\STM32F0xx_StdPeriph_Driver\src/stm32f0xx_rcc.c ****   */
1425:..\..\STM32F0-Discovery_FW_V1.0.0\Libraries\STM32F0xx_StdPeriph_Driver\src/stm32f0xx_rcc.c **** FlagStatus RCC_GetFlagStatus(uint8_t RCC_FLAG)
1426:..\..\STM32F0-Discovery_FW_V1.0.0\Libraries\STM32F0xx_StdPeriph_Driver\src/stm32f0xx_rcc.c **** {
 1520              		.loc 1 1426 0
 1521              		.cfi_startproc
 1522              	.LVL106:
1427:..\..\STM32F0-Discovery_FW_V1.0.0\Libraries\STM32F0xx_StdPeriph_Driver\src/stm32f0xx_rcc.c ****   uint32_t tmp = 0;
1428:..\..\STM32F0-Discovery_FW_V1.0.0\Libraries\STM32F0xx_StdPeriph_Driver\src/stm32f0xx_rcc.c ****   uint32_t statusreg = 0;
1429:..\..\STM32F0-Discovery_FW_V1.0.0\Libraries\STM32F0xx_StdPeriph_Driver\src/stm32f0xx_rcc.c ****   FlagStatus bitstatus = RESET;
1430:..\..\STM32F0-Discovery_FW_V1.0.0\Libraries\STM32F0xx_StdPeriph_Driver\src/stm32f0xx_rcc.c **** 
1431:..\..\STM32F0-Discovery_FW_V1.0.0\Libraries\STM32F0xx_StdPeriph_Driver\src/stm32f0xx_rcc.c ****   /* Check the parameters */
1432:..\..\STM32F0-Discovery_FW_V1.0.0\Libraries\STM32F0xx_StdPeriph_Driver\src/stm32f0xx_rcc.c ****   assert_param(IS_RCC_FLAG(RCC_FLAG));
1433:..\..\STM32F0-Discovery_FW_V1.0.0\Libraries\STM32F0xx_StdPeriph_Driver\src/stm32f0xx_rcc.c **** 
1434:..\..\STM32F0-Discovery_FW_V1.0.0\Libraries\STM32F0xx_StdPeriph_Driver\src/stm32f0xx_rcc.c ****   /* Get the RCC register index */
1435:..\..\STM32F0-Discovery_FW_V1.0.0\Libraries\STM32F0xx_StdPeriph_Driver\src/stm32f0xx_rcc.c ****   tmp = RCC_FLAG >> 5;
 1523              		.loc 1 1435 0
 1524 0460 4109     		lsr	r1, r0, #5	@ D.5448, RCC_FLAG,
 1525              	.LVL107:
 1526 0462 094A     		ldr	r2, .L168	@ tmp132,
1436:..\..\STM32F0-Discovery_FW_V1.0.0\Libraries\STM32F0xx_StdPeriph_Driver\src/stm32f0xx_rcc.c **** 
1437:..\..\STM32F0-Discovery_FW_V1.0.0\Libraries\STM32F0xx_StdPeriph_Driver\src/stm32f0xx_rcc.c ****   if (tmp == 0)               /* The flag to check is in CR register */
 1527              		.loc 1 1437 0
 1528 0464 01D1     		bne	.L164	@,
1438:..\..\STM32F0-Discovery_FW_V1.0.0\Libraries\STM32F0xx_StdPeriph_Driver\src/stm32f0xx_rcc.c ****   {
1439:..\..\STM32F0-Discovery_FW_V1.0.0\Libraries\STM32F0xx_StdPeriph_Driver\src/stm32f0xx_rcc.c ****     statusreg = RCC->CR;
 1529              		.loc 1 1439 0
 1530 0466 1368     		ldr	r3, [r2]	@ statusreg, MEM[(struct RCC_TypeDef *)1073876992B].CR
 1531              	.LVL108:
 1532 0468 08E0     		b	.L165	@
 1533              	.LVL109:
 1534              	.L164:
1440:..\..\STM32F0-Discovery_FW_V1.0.0\Libraries\STM32F0xx_StdPeriph_Driver\src/stm32f0xx_rcc.c ****   }
1441:..\..\STM32F0-Discovery_FW_V1.0.0\Libraries\STM32F0xx_StdPeriph_Driver\src/stm32f0xx_rcc.c ****   else if (tmp == 1)          /* The flag to check is in BDCR register */
 1535              		.loc 1 1441 0
 1536 046a 0129     		cmp	r1, #1	@ D.5448,
 1537 046c 01D1     		bne	.L166	@,
1442:..\..\STM32F0-Discovery_FW_V1.0.0\Libraries\STM32F0xx_StdPeriph_Driver\src/stm32f0xx_rcc.c ****   {
1443:..\..\STM32F0-Discovery_FW_V1.0.0\Libraries\STM32F0xx_StdPeriph_Driver\src/stm32f0xx_rcc.c ****     statusreg = RCC->BDCR;
 1538              		.loc 1 1443 0
 1539 046e 136A     		ldr	r3, [r2, #32]	@ statusreg, MEM[(struct RCC_TypeDef *)1073876992B].BDCR
 1540              	.LVL110:
 1541 0470 04E0     		b	.L165	@
 1542              	.LVL111:
 1543              	.L166:
1444:..\..\STM32F0-Discovery_FW_V1.0.0\Libraries\STM32F0xx_StdPeriph_Driver\src/stm32f0xx_rcc.c ****   }
1445:..\..\STM32F0-Discovery_FW_V1.0.0\Libraries\STM32F0xx_StdPeriph_Driver\src/stm32f0xx_rcc.c ****   else if (tmp == 2)          /* The flag to check is in CSR register */
 1544              		.loc 1 1445 0
 1545 0472 0229     		cmp	r1, #2	@ D.5448,
 1546 0474 01D1     		bne	.L167	@,
1446:..\..\STM32F0-Discovery_FW_V1.0.0\Libraries\STM32F0xx_StdPeriph_Driver\src/stm32f0xx_rcc.c ****   {
1447:..\..\STM32F0-Discovery_FW_V1.0.0\Libraries\STM32F0xx_StdPeriph_Driver\src/stm32f0xx_rcc.c ****     statusreg = RCC->CSR;
ARM GAS  C:\Users\Doles\AppData\Local\Temp\ccw5cB6c.s 			page 55


 1547              		.loc 1 1447 0
 1548 0476 536A     		ldr	r3, [r2, #36]	@ statusreg, MEM[(struct RCC_TypeDef *)1073876992B].CSR
 1549              	.LVL112:
 1550 0478 00E0     		b	.L165	@
 1551              	.LVL113:
 1552              	.L167:
1448:..\..\STM32F0-Discovery_FW_V1.0.0\Libraries\STM32F0xx_StdPeriph_Driver\src/stm32f0xx_rcc.c ****   }
1449:..\..\STM32F0-Discovery_FW_V1.0.0\Libraries\STM32F0xx_StdPeriph_Driver\src/stm32f0xx_rcc.c ****   else                        /* The flag to check is in CR2 register */
1450:..\..\STM32F0-Discovery_FW_V1.0.0\Libraries\STM32F0xx_StdPeriph_Driver\src/stm32f0xx_rcc.c ****   {
1451:..\..\STM32F0-Discovery_FW_V1.0.0\Libraries\STM32F0xx_StdPeriph_Driver\src/stm32f0xx_rcc.c ****     statusreg = RCC->CR2;
 1553              		.loc 1 1451 0
 1554 047a 536B     		ldr	r3, [r2, #52]	@ statusreg, MEM[(struct RCC_TypeDef *)1073876992B].CR2
 1555              	.LVL114:
 1556              	.L165:
1452:..\..\STM32F0-Discovery_FW_V1.0.0\Libraries\STM32F0xx_StdPeriph_Driver\src/stm32f0xx_rcc.c ****   }    
1453:..\..\STM32F0-Discovery_FW_V1.0.0\Libraries\STM32F0xx_StdPeriph_Driver\src/stm32f0xx_rcc.c **** 
1454:..\..\STM32F0-Discovery_FW_V1.0.0\Libraries\STM32F0xx_StdPeriph_Driver\src/stm32f0xx_rcc.c ****   /* Get the flag position */
1455:..\..\STM32F0-Discovery_FW_V1.0.0\Libraries\STM32F0xx_StdPeriph_Driver\src/stm32f0xx_rcc.c ****   tmp = RCC_FLAG & FLAG_MASK;
1456:..\..\STM32F0-Discovery_FW_V1.0.0\Libraries\STM32F0xx_StdPeriph_Driver\src/stm32f0xx_rcc.c **** 
1457:..\..\STM32F0-Discovery_FW_V1.0.0\Libraries\STM32F0xx_StdPeriph_Driver\src/stm32f0xx_rcc.c ****   if ((statusreg & ((uint32_t)1 << tmp)) != (uint32_t)RESET)
 1557              		.loc 1 1457 0
 1558 047c 1F22     		mov	r2, #31	@ tmp126,
 1559 047e 1040     		and	r0, r2	@ D.5450, tmp126
 1560              	.LVL115:
 1561 0480 C340     		lsr	r3, r3, r0	@ D.5451, statusreg, D.5450
 1562              	.LVL116:
1458:..\..\STM32F0-Discovery_FW_V1.0.0\Libraries\STM32F0xx_StdPeriph_Driver\src/stm32f0xx_rcc.c ****   {
1459:..\..\STM32F0-Discovery_FW_V1.0.0\Libraries\STM32F0xx_StdPeriph_Driver\src/stm32f0xx_rcc.c ****     bitstatus = SET;
1460:..\..\STM32F0-Discovery_FW_V1.0.0\Libraries\STM32F0xx_StdPeriph_Driver\src/stm32f0xx_rcc.c ****   }
1461:..\..\STM32F0-Discovery_FW_V1.0.0\Libraries\STM32F0xx_StdPeriph_Driver\src/stm32f0xx_rcc.c ****   else
1462:..\..\STM32F0-Discovery_FW_V1.0.0\Libraries\STM32F0xx_StdPeriph_Driver\src/stm32f0xx_rcc.c ****   {
1463:..\..\STM32F0-Discovery_FW_V1.0.0\Libraries\STM32F0xx_StdPeriph_Driver\src/stm32f0xx_rcc.c ****     bitstatus = RESET;
1464:..\..\STM32F0-Discovery_FW_V1.0.0\Libraries\STM32F0xx_StdPeriph_Driver\src/stm32f0xx_rcc.c ****   }
1465:..\..\STM32F0-Discovery_FW_V1.0.0\Libraries\STM32F0xx_StdPeriph_Driver\src/stm32f0xx_rcc.c ****   /* Return the flag status */
1466:..\..\STM32F0-Discovery_FW_V1.0.0\Libraries\STM32F0xx_StdPeriph_Driver\src/stm32f0xx_rcc.c ****   return bitstatus;
 1563              		.loc 1 1466 0
 1564 0482 0120     		mov	r0, #1	@ tmp130,
1467:..\..\STM32F0-Discovery_FW_V1.0.0\Libraries\STM32F0xx_StdPeriph_Driver\src/stm32f0xx_rcc.c **** }
 1565              		.loc 1 1467 0
 1566              		@ sp needed	@
1466:..\..\STM32F0-Discovery_FW_V1.0.0\Libraries\STM32F0xx_StdPeriph_Driver\src/stm32f0xx_rcc.c **** }
 1567              		.loc 1 1466 0
 1568 0484 1840     		and	r0, r3	@ D.5452, D.5451
 1569              		.loc 1 1467 0
 1570 0486 7047     		bx	lr
 1571              	.L169:
 1572              		.align	2
 1573              	.L168:
 1574 0488 00100240 		.word	1073876992
 1575              		.cfi_endproc
 1576              	.LFE67:
 1577              		.size	RCC_GetFlagStatus, .-RCC_GetFlagStatus
 1578              		.align	1
 1579              		.global	RCC_WaitForHSEStartUp
 1580              		.code	16
 1581              		.thumb_func
 1582              		.type	RCC_WaitForHSEStartUp, %function
ARM GAS  C:\Users\Doles\AppData\Local\Temp\ccw5cB6c.s 			page 56


 1583              	RCC_WaitForHSEStartUp:
 1584              	.LFB34:
 223:..\..\STM32F0-Discovery_FW_V1.0.0\Libraries\STM32F0xx_StdPeriph_Driver\src/stm32f0xx_rcc.c ****   __IO uint32_t StartUpCounter = 0;
 1585              		.loc 1 223 0
 1586              		.cfi_startproc
 224:..\..\STM32F0-Discovery_FW_V1.0.0\Libraries\STM32F0xx_StdPeriph_Driver\src/stm32f0xx_rcc.c ****   ErrorStatus status = ERROR;
 1587              		.loc 1 224 0
 1588 048c 0023     		mov	r3, #0	@ tmp118,
 223:..\..\STM32F0-Discovery_FW_V1.0.0\Libraries\STM32F0xx_StdPeriph_Driver\src/stm32f0xx_rcc.c ****   __IO uint32_t StartUpCounter = 0;
 1589              		.loc 1 223 0
 1590 048e 07B5     		push	{r0, r1, r2, lr}	@
 1591              	.LCFI2:
 1592              		.cfi_def_cfa_offset 16
 1593              		.cfi_offset 0, -16
 1594              		.cfi_offset 1, -12
 1595              		.cfi_offset 2, -8
 1596              		.cfi_offset 14, -4
 224:..\..\STM32F0-Discovery_FW_V1.0.0\Libraries\STM32F0xx_StdPeriph_Driver\src/stm32f0xx_rcc.c ****   ErrorStatus status = ERROR;
 1597              		.loc 1 224 0
 1598 0490 0193     		str	r3, [sp, #4]	@ tmp118, StartUpCounter
 1599              	.LVL117:
 1600              	.L172:
 231:..\..\STM32F0-Discovery_FW_V1.0.0\Libraries\STM32F0xx_StdPeriph_Driver\src/stm32f0xx_rcc.c ****     StartUpCounter++;  
 1601              		.loc 1 231 0 discriminator 2
 1602 0492 1120     		mov	r0, #17	@,
 1603 0494 FFF7FEFF 		bl	RCC_GetFlagStatus	@
 1604              	.LVL118:
 232:..\..\STM32F0-Discovery_FW_V1.0.0\Libraries\STM32F0xx_StdPeriph_Driver\src/stm32f0xx_rcc.c ****   } while((StartUpCounter != HSE_STARTUP_TIMEOUT) && (HSEStatus == RESET));
 1605              		.loc 1 232 0 discriminator 2
 1606 0498 019B     		ldr	r3, [sp, #4]	@ D.5455, StartUpCounter
 1607 049a 0133     		add	r3, r3, #1	@ D.5455,
 1608 049c 0193     		str	r3, [sp, #4]	@ D.5455, StartUpCounter
 233:..\..\STM32F0-Discovery_FW_V1.0.0\Libraries\STM32F0xx_StdPeriph_Driver\src/stm32f0xx_rcc.c ****   
 1609              		.loc 1 233 0 discriminator 2
 1610 049e A023     		mov	r3, #160	@ tmp121,
 1611 04a0 019A     		ldr	r2, [sp, #4]	@ D.5455, StartUpCounter
 1612 04a2 DB00     		lsl	r3, r3, #3	@ tmp121, tmp121,
 1613 04a4 9A42     		cmp	r2, r3	@ D.5455, tmp121
 1614 04a6 01D0     		beq	.L171	@,
 233:..\..\STM32F0-Discovery_FW_V1.0.0\Libraries\STM32F0xx_StdPeriph_Driver\src/stm32f0xx_rcc.c ****   
 1615              		.loc 1 233 0 is_stmt 0 discriminator 1
 1616 04a8 0028     		cmp	r0, #0	@ tmp119,
 1617 04aa F2D0     		beq	.L172	@,
 1618              	.L171:
 235:..\..\STM32F0-Discovery_FW_V1.0.0\Libraries\STM32F0xx_StdPeriph_Driver\src/stm32f0xx_rcc.c ****   {
 1619              		.loc 1 235 0 is_stmt 1
 1620 04ac 1120     		mov	r0, #17	@,
 1621              	.LVL119:
 1622 04ae FFF7FEFF 		bl	RCC_GetFlagStatus	@
 1623              	.LVL120:
 1624 04b2 431E     		sub	r3, r0, #1	@ tmp126, tmp122
 1625 04b4 9841     		sbc	r0, r0, r3	@ tmp125, tmp122, tmp126
 1626              	.LVL121:
 244:..\..\STM32F0-Discovery_FW_V1.0.0\Libraries\STM32F0xx_StdPeriph_Driver\src/stm32f0xx_rcc.c **** 
 1627              		.loc 1 244 0
 1628              		@ sp needed	@
 243:..\..\STM32F0-Discovery_FW_V1.0.0\Libraries\STM32F0xx_StdPeriph_Driver\src/stm32f0xx_rcc.c **** }
ARM GAS  C:\Users\Doles\AppData\Local\Temp\ccw5cB6c.s 			page 57


 1629              		.loc 1 243 0
 1630 04b6 C0B2     		uxtb	r0, r0	@ D.5457, tmp125
 244:..\..\STM32F0-Discovery_FW_V1.0.0\Libraries\STM32F0xx_StdPeriph_Driver\src/stm32f0xx_rcc.c **** 
 1631              		.loc 1 244 0
 1632 04b8 0EBD     		pop	{r1, r2, r3, pc}
 1633              		.cfi_endproc
 1634              	.LFE34:
 1635              		.size	RCC_WaitForHSEStartUp, .-RCC_WaitForHSEStartUp
 1636              		.align	1
 1637              		.global	RCC_ClearFlag
 1638              		.code	16
 1639              		.thumb_func
 1640              		.type	RCC_ClearFlag, %function
 1641              	RCC_ClearFlag:
 1642              	.LFB68:
1468:..\..\STM32F0-Discovery_FW_V1.0.0\Libraries\STM32F0xx_StdPeriph_Driver\src/stm32f0xx_rcc.c **** 
1469:..\..\STM32F0-Discovery_FW_V1.0.0\Libraries\STM32F0xx_StdPeriph_Driver\src/stm32f0xx_rcc.c **** /**
1470:..\..\STM32F0-Discovery_FW_V1.0.0\Libraries\STM32F0xx_StdPeriph_Driver\src/stm32f0xx_rcc.c ****   * @brief  Clears the RCC reset flags.
1471:..\..\STM32F0-Discovery_FW_V1.0.0\Libraries\STM32F0xx_StdPeriph_Driver\src/stm32f0xx_rcc.c ****   *         The reset flags are: RCC_FLAG_OBLRST, RCC_FLAG_PINRST, RCC_FLAG_V18PWRRSTF,
1472:..\..\STM32F0-Discovery_FW_V1.0.0\Libraries\STM32F0xx_StdPeriph_Driver\src/stm32f0xx_rcc.c ****   *         RCC_FLAG_PORRST, RCC_FLAG_SFTRST, RCC_FLAG_IWDGRST, RCC_FLAG_WWDGRST,
1473:..\..\STM32F0-Discovery_FW_V1.0.0\Libraries\STM32F0xx_StdPeriph_Driver\src/stm32f0xx_rcc.c ****   *         RCC_FLAG_LPWRRST.
1474:..\..\STM32F0-Discovery_FW_V1.0.0\Libraries\STM32F0xx_StdPeriph_Driver\src/stm32f0xx_rcc.c ****   * @param  None
1475:..\..\STM32F0-Discovery_FW_V1.0.0\Libraries\STM32F0xx_StdPeriph_Driver\src/stm32f0xx_rcc.c ****   * @retval None
1476:..\..\STM32F0-Discovery_FW_V1.0.0\Libraries\STM32F0xx_StdPeriph_Driver\src/stm32f0xx_rcc.c ****   */
1477:..\..\STM32F0-Discovery_FW_V1.0.0\Libraries\STM32F0xx_StdPeriph_Driver\src/stm32f0xx_rcc.c **** void RCC_ClearFlag(void)
1478:..\..\STM32F0-Discovery_FW_V1.0.0\Libraries\STM32F0xx_StdPeriph_Driver\src/stm32f0xx_rcc.c **** {
 1643              		.loc 1 1478 0
 1644              		.cfi_startproc
1479:..\..\STM32F0-Discovery_FW_V1.0.0\Libraries\STM32F0xx_StdPeriph_Driver\src/stm32f0xx_rcc.c ****   /* Set RMVF bit to clear the reset flags */
1480:..\..\STM32F0-Discovery_FW_V1.0.0\Libraries\STM32F0xx_StdPeriph_Driver\src/stm32f0xx_rcc.c ****   RCC->CSR |= RCC_CSR_RMVF;
 1645              		.loc 1 1480 0
 1646 04ba 8021     		mov	r1, #128	@ tmp113,
 1647 04bc 024A     		ldr	r2, .L175	@ tmp112,
 1648 04be 4904     		lsl	r1, r1, #17	@ tmp113, tmp113,
 1649 04c0 536A     		ldr	r3, [r2, #36]	@ D.5461, MEM[(struct RCC_TypeDef *)1073876992B].CSR
1481:..\..\STM32F0-Discovery_FW_V1.0.0\Libraries\STM32F0xx_StdPeriph_Driver\src/stm32f0xx_rcc.c **** }
 1650              		.loc 1 1481 0
 1651              		@ sp needed	@
1480:..\..\STM32F0-Discovery_FW_V1.0.0\Libraries\STM32F0xx_StdPeriph_Driver\src/stm32f0xx_rcc.c **** }
 1652              		.loc 1 1480 0
 1653 04c2 0B43     		orr	r3, r1	@ D.5461, tmp113
 1654 04c4 5362     		str	r3, [r2, #36]	@ D.5461, MEM[(struct RCC_TypeDef *)1073876992B].CSR
 1655              		.loc 1 1481 0
 1656 04c6 7047     		bx	lr
 1657              	.L176:
 1658              		.align	2
 1659              	.L175:
 1660 04c8 00100240 		.word	1073876992
 1661              		.cfi_endproc
 1662              	.LFE68:
 1663              		.size	RCC_ClearFlag, .-RCC_ClearFlag
 1664              		.align	1
 1665              		.global	RCC_GetITStatus
 1666              		.code	16
 1667              		.thumb_func
 1668              		.type	RCC_GetITStatus, %function
 1669              	RCC_GetITStatus:
ARM GAS  C:\Users\Doles\AppData\Local\Temp\ccw5cB6c.s 			page 58


 1670              	.LFB69:
1482:..\..\STM32F0-Discovery_FW_V1.0.0\Libraries\STM32F0xx_StdPeriph_Driver\src/stm32f0xx_rcc.c **** 
1483:..\..\STM32F0-Discovery_FW_V1.0.0\Libraries\STM32F0xx_StdPeriph_Driver\src/stm32f0xx_rcc.c **** /**
1484:..\..\STM32F0-Discovery_FW_V1.0.0\Libraries\STM32F0xx_StdPeriph_Driver\src/stm32f0xx_rcc.c ****   * @brief  Checks whether the specified RCC interrupt has occurred or not.
1485:..\..\STM32F0-Discovery_FW_V1.0.0\Libraries\STM32F0xx_StdPeriph_Driver\src/stm32f0xx_rcc.c ****   * @param  RCC_IT: specifies the RCC interrupt source to check.
1486:..\..\STM32F0-Discovery_FW_V1.0.0\Libraries\STM32F0xx_StdPeriph_Driver\src/stm32f0xx_rcc.c ****   *         This parameter can be one of the following values:
1487:..\..\STM32F0-Discovery_FW_V1.0.0\Libraries\STM32F0xx_StdPeriph_Driver\src/stm32f0xx_rcc.c ****   *             @arg RCC_IT_LSIRDY: LSI ready interrupt
1488:..\..\STM32F0-Discovery_FW_V1.0.0\Libraries\STM32F0xx_StdPeriph_Driver\src/stm32f0xx_rcc.c ****   *             @arg RCC_IT_LSERDY: LSE ready interrupt
1489:..\..\STM32F0-Discovery_FW_V1.0.0\Libraries\STM32F0xx_StdPeriph_Driver\src/stm32f0xx_rcc.c ****   *             @arg RCC_IT_HSIRDY: HSI ready interrupt
1490:..\..\STM32F0-Discovery_FW_V1.0.0\Libraries\STM32F0xx_StdPeriph_Driver\src/stm32f0xx_rcc.c ****   *             @arg RCC_IT_HSERDY: HSE ready interrupt
1491:..\..\STM32F0-Discovery_FW_V1.0.0\Libraries\STM32F0xx_StdPeriph_Driver\src/stm32f0xx_rcc.c ****   *             @arg RCC_IT_PLLRDY: PLL ready interrupt
1492:..\..\STM32F0-Discovery_FW_V1.0.0\Libraries\STM32F0xx_StdPeriph_Driver\src/stm32f0xx_rcc.c ****   *             @arg RCC_IT_HSI14RDY: HSI14 ready interrupt 
1493:..\..\STM32F0-Discovery_FW_V1.0.0\Libraries\STM32F0xx_StdPeriph_Driver\src/stm32f0xx_rcc.c ****   *             @arg RCC_IT_CSS: Clock Security System interrupt
1494:..\..\STM32F0-Discovery_FW_V1.0.0\Libraries\STM32F0xx_StdPeriph_Driver\src/stm32f0xx_rcc.c ****   * @retval The new state of RCC_IT (SET or RESET).
1495:..\..\STM32F0-Discovery_FW_V1.0.0\Libraries\STM32F0xx_StdPeriph_Driver\src/stm32f0xx_rcc.c ****   */
1496:..\..\STM32F0-Discovery_FW_V1.0.0\Libraries\STM32F0xx_StdPeriph_Driver\src/stm32f0xx_rcc.c **** ITStatus RCC_GetITStatus(uint8_t RCC_IT)
1497:..\..\STM32F0-Discovery_FW_V1.0.0\Libraries\STM32F0xx_StdPeriph_Driver\src/stm32f0xx_rcc.c **** {
 1671              		.loc 1 1497 0
 1672              		.cfi_startproc
 1673              	.LVL122:
1498:..\..\STM32F0-Discovery_FW_V1.0.0\Libraries\STM32F0xx_StdPeriph_Driver\src/stm32f0xx_rcc.c ****   ITStatus bitstatus = RESET;
1499:..\..\STM32F0-Discovery_FW_V1.0.0\Libraries\STM32F0xx_StdPeriph_Driver\src/stm32f0xx_rcc.c ****   
1500:..\..\STM32F0-Discovery_FW_V1.0.0\Libraries\STM32F0xx_StdPeriph_Driver\src/stm32f0xx_rcc.c ****   /* Check the parameters */
1501:..\..\STM32F0-Discovery_FW_V1.0.0\Libraries\STM32F0xx_StdPeriph_Driver\src/stm32f0xx_rcc.c ****   assert_param(IS_RCC_GET_IT(RCC_IT));
1502:..\..\STM32F0-Discovery_FW_V1.0.0\Libraries\STM32F0xx_StdPeriph_Driver\src/stm32f0xx_rcc.c ****   
1503:..\..\STM32F0-Discovery_FW_V1.0.0\Libraries\STM32F0xx_StdPeriph_Driver\src/stm32f0xx_rcc.c ****   /* Check the status of the specified RCC interrupt */
1504:..\..\STM32F0-Discovery_FW_V1.0.0\Libraries\STM32F0xx_StdPeriph_Driver\src/stm32f0xx_rcc.c ****   if ((RCC->CIR & RCC_IT) != (uint32_t)RESET)
 1674              		.loc 1 1504 0
 1675 04cc 034B     		ldr	r3, .L178	@ tmp117,
1505:..\..\STM32F0-Discovery_FW_V1.0.0\Libraries\STM32F0xx_StdPeriph_Driver\src/stm32f0xx_rcc.c ****   {
1506:..\..\STM32F0-Discovery_FW_V1.0.0\Libraries\STM32F0xx_StdPeriph_Driver\src/stm32f0xx_rcc.c ****     bitstatus = SET;
1507:..\..\STM32F0-Discovery_FW_V1.0.0\Libraries\STM32F0xx_StdPeriph_Driver\src/stm32f0xx_rcc.c ****   }
1508:..\..\STM32F0-Discovery_FW_V1.0.0\Libraries\STM32F0xx_StdPeriph_Driver\src/stm32f0xx_rcc.c ****   else
1509:..\..\STM32F0-Discovery_FW_V1.0.0\Libraries\STM32F0xx_StdPeriph_Driver\src/stm32f0xx_rcc.c ****   {
1510:..\..\STM32F0-Discovery_FW_V1.0.0\Libraries\STM32F0xx_StdPeriph_Driver\src/stm32f0xx_rcc.c ****     bitstatus = RESET;
1511:..\..\STM32F0-Discovery_FW_V1.0.0\Libraries\STM32F0xx_StdPeriph_Driver\src/stm32f0xx_rcc.c ****   }
1512:..\..\STM32F0-Discovery_FW_V1.0.0\Libraries\STM32F0xx_StdPeriph_Driver\src/stm32f0xx_rcc.c ****   /* Return the RCC_IT status */
1513:..\..\STM32F0-Discovery_FW_V1.0.0\Libraries\STM32F0xx_StdPeriph_Driver\src/stm32f0xx_rcc.c ****   return  bitstatus;
1514:..\..\STM32F0-Discovery_FW_V1.0.0\Libraries\STM32F0xx_StdPeriph_Driver\src/stm32f0xx_rcc.c **** }
 1676              		.loc 1 1514 0
 1677              		@ sp needed	@
1504:..\..\STM32F0-Discovery_FW_V1.0.0\Libraries\STM32F0xx_StdPeriph_Driver\src/stm32f0xx_rcc.c ****   {
 1678              		.loc 1 1504 0
 1679 04ce 9B68     		ldr	r3, [r3, #8]	@ D.5464, MEM[(struct RCC_TypeDef *)1073876992B].CIR
 1680              	.LVL123:
 1681 04d0 1840     		and	r0, r3	@ D.5464, D.5464
 1682              	.LVL124:
 1683 04d2 431E     		sub	r3, r0, #1	@ tmp121, D.5464
 1684 04d4 9841     		sbc	r0, r0, r3	@ tmp120, D.5464, tmp121
 1685              	.LVL125:
1513:..\..\STM32F0-Discovery_FW_V1.0.0\Libraries\STM32F0xx_StdPeriph_Driver\src/stm32f0xx_rcc.c **** }
 1686              		.loc 1 1513 0
 1687 04d6 C0B2     		uxtb	r0, r0	@ D.5465, tmp120
 1688              		.loc 1 1514 0
 1689 04d8 7047     		bx	lr
 1690              	.L179:
 1691 04da C046     		.align	2
ARM GAS  C:\Users\Doles\AppData\Local\Temp\ccw5cB6c.s 			page 59


 1692              	.L178:
 1693 04dc 00100240 		.word	1073876992
 1694              		.cfi_endproc
 1695              	.LFE69:
 1696              		.size	RCC_GetITStatus, .-RCC_GetITStatus
 1697              		.align	1
 1698              		.global	RCC_ClearITPendingBit
 1699              		.code	16
 1700              		.thumb_func
 1701              		.type	RCC_ClearITPendingBit, %function
 1702              	RCC_ClearITPendingBit:
 1703              	.LFB70:
1515:..\..\STM32F0-Discovery_FW_V1.0.0\Libraries\STM32F0xx_StdPeriph_Driver\src/stm32f0xx_rcc.c **** 
1516:..\..\STM32F0-Discovery_FW_V1.0.0\Libraries\STM32F0xx_StdPeriph_Driver\src/stm32f0xx_rcc.c **** /**
1517:..\..\STM32F0-Discovery_FW_V1.0.0\Libraries\STM32F0xx_StdPeriph_Driver\src/stm32f0xx_rcc.c ****   * @brief  Clears the RCC's interrupt pending bits.
1518:..\..\STM32F0-Discovery_FW_V1.0.0\Libraries\STM32F0xx_StdPeriph_Driver\src/stm32f0xx_rcc.c ****   * @param  RCC_IT: specifies the interrupt pending bit to clear.
1519:..\..\STM32F0-Discovery_FW_V1.0.0\Libraries\STM32F0xx_StdPeriph_Driver\src/stm32f0xx_rcc.c ****   *         This parameter can be any combination of the following values:
1520:..\..\STM32F0-Discovery_FW_V1.0.0\Libraries\STM32F0xx_StdPeriph_Driver\src/stm32f0xx_rcc.c ****   *             @arg RCC_IT_LSIRDY: LSI ready interrupt
1521:..\..\STM32F0-Discovery_FW_V1.0.0\Libraries\STM32F0xx_StdPeriph_Driver\src/stm32f0xx_rcc.c ****   *             @arg RCC_IT_LSERDY: LSE ready interrupt
1522:..\..\STM32F0-Discovery_FW_V1.0.0\Libraries\STM32F0xx_StdPeriph_Driver\src/stm32f0xx_rcc.c ****   *             @arg RCC_IT_HSIRDY: HSI ready interrupt
1523:..\..\STM32F0-Discovery_FW_V1.0.0\Libraries\STM32F0xx_StdPeriph_Driver\src/stm32f0xx_rcc.c ****   *             @arg RCC_IT_HSERDY: HSE ready interrupt
1524:..\..\STM32F0-Discovery_FW_V1.0.0\Libraries\STM32F0xx_StdPeriph_Driver\src/stm32f0xx_rcc.c ****   *             @arg RCC_IT_PLLRDY: PLL ready interrupt
1525:..\..\STM32F0-Discovery_FW_V1.0.0\Libraries\STM32F0xx_StdPeriph_Driver\src/stm32f0xx_rcc.c ****   *             @arg RCC_IT_HSI14RDY: HSI14 ready interrupt  
1526:..\..\STM32F0-Discovery_FW_V1.0.0\Libraries\STM32F0xx_StdPeriph_Driver\src/stm32f0xx_rcc.c ****   *             @arg RCC_IT_CSS: Clock Security System interrupt
1527:..\..\STM32F0-Discovery_FW_V1.0.0\Libraries\STM32F0xx_StdPeriph_Driver\src/stm32f0xx_rcc.c ****   * @retval None
1528:..\..\STM32F0-Discovery_FW_V1.0.0\Libraries\STM32F0xx_StdPeriph_Driver\src/stm32f0xx_rcc.c ****   */
1529:..\..\STM32F0-Discovery_FW_V1.0.0\Libraries\STM32F0xx_StdPeriph_Driver\src/stm32f0xx_rcc.c **** void RCC_ClearITPendingBit(uint8_t RCC_IT)
1530:..\..\STM32F0-Discovery_FW_V1.0.0\Libraries\STM32F0xx_StdPeriph_Driver\src/stm32f0xx_rcc.c **** {
 1704              		.loc 1 1530 0
 1705              		.cfi_startproc
 1706              	.LVL126:
1531:..\..\STM32F0-Discovery_FW_V1.0.0\Libraries\STM32F0xx_StdPeriph_Driver\src/stm32f0xx_rcc.c ****   /* Check the parameters */
1532:..\..\STM32F0-Discovery_FW_V1.0.0\Libraries\STM32F0xx_StdPeriph_Driver\src/stm32f0xx_rcc.c ****   assert_param(IS_RCC_CLEAR_IT(RCC_IT));
1533:..\..\STM32F0-Discovery_FW_V1.0.0\Libraries\STM32F0xx_StdPeriph_Driver\src/stm32f0xx_rcc.c ****   
1534:..\..\STM32F0-Discovery_FW_V1.0.0\Libraries\STM32F0xx_StdPeriph_Driver\src/stm32f0xx_rcc.c ****   /* Perform Byte access to RCC_CIR[23:16] bits to clear the selected interrupt
1535:..\..\STM32F0-Discovery_FW_V1.0.0\Libraries\STM32F0xx_StdPeriph_Driver\src/stm32f0xx_rcc.c ****      pending bits */
1536:..\..\STM32F0-Discovery_FW_V1.0.0\Libraries\STM32F0xx_StdPeriph_Driver\src/stm32f0xx_rcc.c ****   *(__IO uint8_t *) CIR_BYTE2_ADDRESS = RCC_IT;
 1707              		.loc 1 1536 0
 1708 04e0 014B     		ldr	r3, .L181	@ tmp111,
1537:..\..\STM32F0-Discovery_FW_V1.0.0\Libraries\STM32F0xx_StdPeriph_Driver\src/stm32f0xx_rcc.c **** }
 1709              		.loc 1 1537 0
 1710              		@ sp needed	@
1536:..\..\STM32F0-Discovery_FW_V1.0.0\Libraries\STM32F0xx_StdPeriph_Driver\src/stm32f0xx_rcc.c **** }
 1711              		.loc 1 1536 0
 1712 04e2 1870     		strb	r0, [r3]	@ RCC_IT, MEM[(volatile uint8_t *)1073877002B]
 1713              		.loc 1 1537 0
 1714 04e4 7047     		bx	lr
 1715              	.L182:
 1716 04e6 C046     		.align	2
 1717              	.L181:
 1718 04e8 0A100240 		.word	1073877002
 1719              		.cfi_endproc
 1720              	.LFE70:
 1721              		.size	RCC_ClearITPendingBit, .-RCC_ClearITPendingBit
 1722              		.data
 1723              		.set	.LANCHOR0,. + 0
 1724              		.type	APBAHBPrescTable, %object
ARM GAS  C:\Users\Doles\AppData\Local\Temp\ccw5cB6c.s 			page 60


 1725              		.size	APBAHBPrescTable, 16
 1726              	APBAHBPrescTable:
 1727 0000 00       		.byte	0
 1728 0001 00       		.byte	0
 1729 0002 00       		.byte	0
 1730 0003 00       		.byte	0
 1731 0004 01       		.byte	1
 1732 0005 02       		.byte	2
 1733 0006 03       		.byte	3
 1734 0007 04       		.byte	4
 1735 0008 01       		.byte	1
 1736 0009 02       		.byte	2
 1737 000a 03       		.byte	3
 1738 000b 04       		.byte	4
 1739 000c 06       		.byte	6
 1740 000d 07       		.byte	7
 1741 000e 08       		.byte	8
 1742 000f 09       		.byte	9
 1743              		.text
 1744              	.Letext0:
 1745              		.file 2 "c:\\program files (x86)\\gnu tools arm embedded\\4.9 2014q4\\arm-none-eabi\\include\\mach
 1746              		.file 3 "c:\\program files (x86)\\gnu tools arm embedded\\4.9 2014q4\\arm-none-eabi\\include\\stdi
 1747              		.file 4 "..\\..\\STM32F0-Discovery_FW_V1.0.0\\Libraries\\CMSIS\\ST\\STM32F0xx\\Include/stm32f0xx.h
 1748              		.file 5 "..\\..\\STM32F0-Discovery_FW_V1.0.0\\Libraries\\STM32F0xx_StdPeriph_Driver\\inc/stm32f0xx
 1749              		.section	.debug_info,"",%progbits
 1750              	.Ldebug_info0:
 1751 0000 960A0000 		.4byte	0xa96
 1752 0004 0200     		.2byte	0x2
 1753 0006 00000000 		.4byte	.Ldebug_abbrev0
 1754 000a 04       		.byte	0x4
 1755 000b 01       		.uleb128 0x1
 1756 000c 66060000 		.4byte	.LASF117
 1757 0010 01       		.byte	0x1
 1758 0011 EA060000 		.4byte	.LASF118
 1759 0015 56050000 		.4byte	.LASF119
 1760 0019 00000000 		.4byte	.Ltext0
 1761 001d EC040000 		.4byte	.Letext0
 1762 0021 00000000 		.4byte	.Ldebug_line0
 1763 0025 02       		.uleb128 0x2
 1764 0026 01       		.byte	0x1
 1765 0027 06       		.byte	0x6
 1766 0028 07060000 		.4byte	.LASF0
 1767 002c 03       		.uleb128 0x3
 1768 002d BD040000 		.4byte	.LASF3
 1769 0031 02       		.byte	0x2
 1770 0032 1D       		.byte	0x1d
 1771 0033 37000000 		.4byte	0x37
 1772 0037 02       		.uleb128 0x2
 1773 0038 01       		.byte	0x1
 1774 0039 08       		.byte	0x8
 1775 003a 90050000 		.4byte	.LASF1
 1776 003e 02       		.uleb128 0x2
 1777 003f 02       		.byte	0x2
 1778 0040 05       		.byte	0x5
 1779 0041 59040000 		.4byte	.LASF2
 1780 0045 03       		.uleb128 0x3
 1781 0046 D7010000 		.4byte	.LASF4
ARM GAS  C:\Users\Doles\AppData\Local\Temp\ccw5cB6c.s 			page 61


 1782 004a 02       		.byte	0x2
 1783 004b 2B       		.byte	0x2b
 1784 004c 50000000 		.4byte	0x50
 1785 0050 02       		.uleb128 0x2
 1786 0051 02       		.byte	0x2
 1787 0052 07       		.byte	0x7
 1788 0053 13060000 		.4byte	.LASF5
 1789 0057 02       		.uleb128 0x2
 1790 0058 04       		.byte	0x4
 1791 0059 05       		.byte	0x5
 1792 005a 63040000 		.4byte	.LASF6
 1793 005e 03       		.uleb128 0x3
 1794 005f B5050000 		.4byte	.LASF7
 1795 0063 02       		.byte	0x2
 1796 0064 41       		.byte	0x41
 1797 0065 69000000 		.4byte	0x69
 1798 0069 02       		.uleb128 0x2
 1799 006a 04       		.byte	0x4
 1800 006b 07       		.byte	0x7
 1801 006c 0A050000 		.4byte	.LASF8
 1802 0070 02       		.uleb128 0x2
 1803 0071 08       		.byte	0x8
 1804 0072 05       		.byte	0x5
 1805 0073 86030000 		.4byte	.LASF9
 1806 0077 02       		.uleb128 0x2
 1807 0078 08       		.byte	0x8
 1808 0079 07       		.byte	0x7
 1809 007a A3010000 		.4byte	.LASF10
 1810 007e 04       		.uleb128 0x4
 1811 007f 04       		.byte	0x4
 1812 0080 05       		.byte	0x5
 1813 0081 696E7400 		.ascii	"int\000"
 1814 0085 02       		.uleb128 0x2
 1815 0086 04       		.byte	0x4
 1816 0087 07       		.byte	0x7
 1817 0088 90000000 		.4byte	.LASF11
 1818 008c 03       		.uleb128 0x3
 1819 008d 4E030000 		.4byte	.LASF12
 1820 0091 03       		.byte	0x3
 1821 0092 15       		.byte	0x15
 1822 0093 2C000000 		.4byte	0x2c
 1823 0097 03       		.uleb128 0x3
 1824 0098 0F040000 		.4byte	.LASF13
 1825 009c 03       		.byte	0x3
 1826 009d 21       		.byte	0x21
 1827 009e 45000000 		.4byte	0x45
 1828 00a2 03       		.uleb128 0x3
 1829 00a3 5B010000 		.4byte	.LASF14
 1830 00a7 03       		.byte	0x3
 1831 00a8 2D       		.byte	0x2d
 1832 00a9 5E000000 		.4byte	0x5e
 1833 00ad 02       		.uleb128 0x2
 1834 00ae 04       		.byte	0x4
 1835 00af 07       		.byte	0x7
 1836 00b0 01050000 		.4byte	.LASF15
 1837 00b4 05       		.uleb128 0x5
 1838 00b5 A2000000 		.4byte	0xa2
ARM GAS  C:\Users\Doles\AppData\Local\Temp\ccw5cB6c.s 			page 62


 1839 00b9 06       		.uleb128 0x6
 1840 00ba 01       		.byte	0x1
 1841 00bb 04       		.byte	0x4
 1842 00bc DF       		.byte	0xdf
 1843 00bd CE000000 		.4byte	0xce
 1844 00c1 07       		.uleb128 0x7
 1845 00c2 7A040000 		.4byte	.LASF16
 1846 00c6 00       		.sleb128 0
 1847 00c7 08       		.uleb128 0x8
 1848 00c8 53455400 		.ascii	"SET\000"
 1849 00cc 01       		.sleb128 1
 1850 00cd 00       		.byte	0
 1851 00ce 03       		.uleb128 0x3
 1852 00cf 03010000 		.4byte	.LASF17
 1853 00d3 04       		.byte	0x4
 1854 00d4 DF       		.byte	0xdf
 1855 00d5 B9000000 		.4byte	0xb9
 1856 00d9 03       		.uleb128 0x3
 1857 00da 71020000 		.4byte	.LASF18
 1858 00de 04       		.byte	0x4
 1859 00df DF       		.byte	0xdf
 1860 00e0 B9000000 		.4byte	0xb9
 1861 00e4 06       		.uleb128 0x6
 1862 00e5 01       		.byte	0x1
 1863 00e6 04       		.byte	0x4
 1864 00e7 E1       		.byte	0xe1
 1865 00e8 F9000000 		.4byte	0xf9
 1866 00ec 07       		.uleb128 0x7
 1867 00ed F7020000 		.4byte	.LASF19
 1868 00f1 00       		.sleb128 0
 1869 00f2 07       		.uleb128 0x7
 1870 00f3 FA040000 		.4byte	.LASF20
 1871 00f7 01       		.sleb128 1
 1872 00f8 00       		.byte	0
 1873 00f9 03       		.uleb128 0x3
 1874 00fa 9D000000 		.4byte	.LASF21
 1875 00fe 04       		.byte	0x4
 1876 00ff E1       		.byte	0xe1
 1877 0100 E4000000 		.4byte	0xe4
 1878 0104 06       		.uleb128 0x6
 1879 0105 01       		.byte	0x1
 1880 0106 04       		.byte	0x4
 1881 0107 E4       		.byte	0xe4
 1882 0108 19010000 		.4byte	0x119
 1883 010c 07       		.uleb128 0x7
 1884 010d 2F000000 		.4byte	.LASF22
 1885 0111 00       		.sleb128 0
 1886 0112 07       		.uleb128 0x7
 1887 0113 EF020000 		.4byte	.LASF23
 1888 0117 01       		.sleb128 1
 1889 0118 00       		.byte	0
 1890 0119 03       		.uleb128 0x3
 1891 011a B8000000 		.4byte	.LASF24
 1892 011e 04       		.byte	0x4
 1893 011f E4       		.byte	0xe4
 1894 0120 04010000 		.4byte	0x104
 1895 0124 09       		.uleb128 0x9
ARM GAS  C:\Users\Doles\AppData\Local\Temp\ccw5cB6c.s 			page 63


 1896 0125 38       		.byte	0x38
 1897 0126 04       		.byte	0x4
 1898 0127 D801     		.2byte	0x1d8
 1899 0129 FF010000 		.4byte	0x1ff
 1900 012d 0A       		.uleb128 0xa
 1901 012e 435200   		.ascii	"CR\000"
 1902 0131 04       		.byte	0x4
 1903 0132 DA01     		.2byte	0x1da
 1904 0134 B4000000 		.4byte	0xb4
 1905 0138 02       		.byte	0x2
 1906 0139 23       		.byte	0x23
 1907 013a 00       		.uleb128 0
 1908 013b 0B       		.uleb128 0xb
 1909 013c 96040000 		.4byte	.LASF25
 1910 0140 04       		.byte	0x4
 1911 0141 DB01     		.2byte	0x1db
 1912 0143 B4000000 		.4byte	0xb4
 1913 0147 02       		.byte	0x2
 1914 0148 23       		.byte	0x23
 1915 0149 04       		.uleb128 0x4
 1916 014a 0A       		.uleb128 0xa
 1917 014b 43495200 		.ascii	"CIR\000"
 1918 014f 04       		.byte	0x4
 1919 0150 DC01     		.2byte	0x1dc
 1920 0152 B4000000 		.4byte	0xb4
 1921 0156 02       		.byte	0x2
 1922 0157 23       		.byte	0x23
 1923 0158 08       		.uleb128 0x8
 1924 0159 0B       		.uleb128 0xb
 1925 015a 7C000000 		.4byte	.LASF26
 1926 015e 04       		.byte	0x4
 1927 015f DD01     		.2byte	0x1dd
 1928 0161 B4000000 		.4byte	0xb4
 1929 0165 02       		.byte	0x2
 1930 0166 23       		.byte	0x23
 1931 0167 0C       		.uleb128 0xc
 1932 0168 0B       		.uleb128 0xb
 1933 0169 E6020000 		.4byte	.LASF27
 1934 016d 04       		.byte	0x4
 1935 016e DE01     		.2byte	0x1de
 1936 0170 B4000000 		.4byte	0xb4
 1937 0174 02       		.byte	0x2
 1938 0175 23       		.byte	0x23
 1939 0176 10       		.uleb128 0x10
 1940 0177 0B       		.uleb128 0xb
 1941 0178 47030000 		.4byte	.LASF28
 1942 017c 04       		.byte	0x4
 1943 017d DF01     		.2byte	0x1df
 1944 017f B4000000 		.4byte	0xb4
 1945 0183 02       		.byte	0x2
 1946 0184 23       		.byte	0x23
 1947 0185 14       		.uleb128 0x14
 1948 0186 0B       		.uleb128 0xb
 1949 0187 EF030000 		.4byte	.LASF29
 1950 018b 04       		.byte	0x4
 1951 018c E001     		.2byte	0x1e0
 1952 018e B4000000 		.4byte	0xb4
ARM GAS  C:\Users\Doles\AppData\Local\Temp\ccw5cB6c.s 			page 64


 1953 0192 02       		.byte	0x2
 1954 0193 23       		.byte	0x23
 1955 0194 18       		.uleb128 0x18
 1956 0195 0B       		.uleb128 0xb
 1957 0196 46000000 		.4byte	.LASF30
 1958 019a 04       		.byte	0x4
 1959 019b E101     		.2byte	0x1e1
 1960 019d B4000000 		.4byte	0xb4
 1961 01a1 02       		.byte	0x2
 1962 01a2 23       		.byte	0x23
 1963 01a3 1C       		.uleb128 0x1c
 1964 01a4 0B       		.uleb128 0xb
 1965 01a5 14000000 		.4byte	.LASF31
 1966 01a9 04       		.byte	0x4
 1967 01aa E201     		.2byte	0x1e2
 1968 01ac B4000000 		.4byte	0xb4
 1969 01b0 02       		.byte	0x2
 1970 01b1 23       		.byte	0x23
 1971 01b2 20       		.uleb128 0x20
 1972 01b3 0A       		.uleb128 0xa
 1973 01b4 43535200 		.ascii	"CSR\000"
 1974 01b8 04       		.byte	0x4
 1975 01b9 E301     		.2byte	0x1e3
 1976 01bb B4000000 		.4byte	0xb4
 1977 01bf 02       		.byte	0x2
 1978 01c0 23       		.byte	0x23
 1979 01c1 24       		.uleb128 0x24
 1980 01c2 0B       		.uleb128 0xb
 1981 01c3 72010000 		.4byte	.LASF32
 1982 01c7 04       		.byte	0x4
 1983 01c8 E401     		.2byte	0x1e4
 1984 01ca B4000000 		.4byte	0xb4
 1985 01ce 02       		.byte	0x2
 1986 01cf 23       		.byte	0x23
 1987 01d0 28       		.uleb128 0x28
 1988 01d1 0B       		.uleb128 0xb
 1989 01d2 E3030000 		.4byte	.LASF33
 1990 01d6 04       		.byte	0x4
 1991 01d7 E501     		.2byte	0x1e5
 1992 01d9 B4000000 		.4byte	0xb4
 1993 01dd 02       		.byte	0x2
 1994 01de 23       		.byte	0x23
 1995 01df 2C       		.uleb128 0x2c
 1996 01e0 0B       		.uleb128 0xb
 1997 01e1 E9030000 		.4byte	.LASF34
 1998 01e5 04       		.byte	0x4
 1999 01e6 E601     		.2byte	0x1e6
 2000 01e8 B4000000 		.4byte	0xb4
 2001 01ec 02       		.byte	0x2
 2002 01ed 23       		.byte	0x23
 2003 01ee 30       		.uleb128 0x30
 2004 01ef 0A       		.uleb128 0xa
 2005 01f0 43523200 		.ascii	"CR2\000"
 2006 01f4 04       		.byte	0x4
 2007 01f5 E701     		.2byte	0x1e7
 2008 01f7 B4000000 		.4byte	0xb4
 2009 01fb 02       		.byte	0x2
ARM GAS  C:\Users\Doles\AppData\Local\Temp\ccw5cB6c.s 			page 65


 2010 01fc 23       		.byte	0x23
 2011 01fd 34       		.uleb128 0x34
 2012 01fe 00       		.byte	0
 2013 01ff 0C       		.uleb128 0xc
 2014 0200 65020000 		.4byte	.LASF35
 2015 0204 04       		.byte	0x4
 2016 0205 E801     		.2byte	0x1e8
 2017 0207 24010000 		.4byte	0x124
 2018 020b 0D       		.uleb128 0xd
 2019 020c 1C       		.byte	0x1c
 2020 020d 05       		.byte	0x5
 2021 020e 32       		.byte	0x32
 2022 020f 76020000 		.4byte	0x276
 2023 0213 0E       		.uleb128 0xe
 2024 0214 ED010000 		.4byte	.LASF36
 2025 0218 05       		.byte	0x5
 2026 0219 34       		.byte	0x34
 2027 021a A2000000 		.4byte	0xa2
 2028 021e 02       		.byte	0x2
 2029 021f 23       		.byte	0x23
 2030 0220 00       		.uleb128 0
 2031 0221 0E       		.uleb128 0xe
 2032 0222 91020000 		.4byte	.LASF37
 2033 0226 05       		.byte	0x5
 2034 0227 35       		.byte	0x35
 2035 0228 A2000000 		.4byte	0xa2
 2036 022c 02       		.byte	0x2
 2037 022d 23       		.byte	0x23
 2038 022e 04       		.uleb128 0x4
 2039 022f 0E       		.uleb128 0xe
 2040 0230 24010000 		.4byte	.LASF38
 2041 0234 05       		.byte	0x5
 2042 0235 36       		.byte	0x36
 2043 0236 A2000000 		.4byte	0xa2
 2044 023a 02       		.byte	0x2
 2045 023b 23       		.byte	0x23
 2046 023c 08       		.uleb128 0x8
 2047 023d 0E       		.uleb128 0xe
 2048 023e 0E020000 		.4byte	.LASF39
 2049 0242 05       		.byte	0x5
 2050 0243 37       		.byte	0x37
 2051 0244 A2000000 		.4byte	0xa2
 2052 0248 02       		.byte	0x2
 2053 0249 23       		.byte	0x23
 2054 024a 0C       		.uleb128 0xc
 2055 024b 0E       		.uleb128 0xe
 2056 024c AC040000 		.4byte	.LASF40
 2057 0250 05       		.byte	0x5
 2058 0251 38       		.byte	0x38
 2059 0252 A2000000 		.4byte	0xa2
 2060 0256 02       		.byte	0x2
 2061 0257 23       		.byte	0x23
 2062 0258 10       		.uleb128 0x10
 2063 0259 0E       		.uleb128 0xe
 2064 025a 4E000000 		.4byte	.LASF41
 2065 025e 05       		.byte	0x5
 2066 025f 39       		.byte	0x39
ARM GAS  C:\Users\Doles\AppData\Local\Temp\ccw5cB6c.s 			page 66


 2067 0260 A2000000 		.4byte	0xa2
 2068 0264 02       		.byte	0x2
 2069 0265 23       		.byte	0x23
 2070 0266 14       		.uleb128 0x14
 2071 0267 0E       		.uleb128 0xe
 2072 0268 18040000 		.4byte	.LASF42
 2073 026c 05       		.byte	0x5
 2074 026d 3A       		.byte	0x3a
 2075 026e A2000000 		.4byte	0xa2
 2076 0272 02       		.byte	0x2
 2077 0273 23       		.byte	0x23
 2078 0274 18       		.uleb128 0x18
 2079 0275 00       		.byte	0
 2080 0276 03       		.uleb128 0x3
 2081 0277 E3000000 		.4byte	.LASF43
 2082 027b 05       		.byte	0x5
 2083 027c 3B       		.byte	0x3b
 2084 027d 0B020000 		.4byte	0x20b
 2085 0281 0F       		.uleb128 0xf
 2086 0282 01       		.byte	0x1
 2087 0283 AD000000 		.4byte	.LASF112
 2088 0287 01       		.byte	0x1
 2089 0288 92       		.byte	0x92
 2090 0289 01       		.byte	0x1
 2091 028a 00000000 		.4byte	.LFB32
 2092 028e 60000000 		.4byte	.LFE32
 2093 0292 02       		.byte	0x2
 2094 0293 7D       		.byte	0x7d
 2095 0294 00       		.sleb128 0
 2096 0295 01       		.byte	0x1
 2097 0296 10       		.uleb128 0x10
 2098 0297 01       		.byte	0x1
 2099 0298 78030000 		.4byte	.LASF44
 2100 029c 01       		.byte	0x1
 2101 029d C4       		.byte	0xc4
 2102 029e 01       		.byte	0x1
 2103 029f 60000000 		.4byte	.LFB33
 2104 02a3 70000000 		.4byte	.LFE33
 2105 02a7 02       		.byte	0x2
 2106 02a8 7D       		.byte	0x7d
 2107 02a9 00       		.sleb128 0
 2108 02aa 01       		.byte	0x1
 2109 02ab BD020000 		.4byte	0x2bd
 2110 02af 11       		.uleb128 0x11
 2111 02b0 3E020000 		.4byte	.LASF46
 2112 02b4 01       		.byte	0x1
 2113 02b5 C4       		.byte	0xc4
 2114 02b6 8C000000 		.4byte	0x8c
 2115 02ba 01       		.byte	0x1
 2116 02bb 50       		.byte	0x50
 2117 02bc 00       		.byte	0
 2118 02bd 12       		.uleb128 0x12
 2119 02be 01       		.byte	0x1
 2120 02bf A0020000 		.4byte	.LASF45
 2121 02c3 01       		.byte	0x1
 2122 02c4 0001     		.2byte	0x100
 2123 02c6 01       		.byte	0x1
ARM GAS  C:\Users\Doles\AppData\Local\Temp\ccw5cB6c.s 			page 67


 2124 02c7 70000000 		.4byte	.LFB35
 2125 02cb 84000000 		.4byte	.LFE35
 2126 02cf 02       		.byte	0x2
 2127 02d0 7D       		.byte	0x7d
 2128 02d1 00       		.sleb128 0
 2129 02d2 01       		.byte	0x1
 2130 02d3 F8020000 		.4byte	0x2f8
 2131 02d7 13       		.uleb128 0x13
 2132 02d8 00000000 		.4byte	.LASF47
 2133 02dc 01       		.byte	0x1
 2134 02dd 0001     		.2byte	0x100
 2135 02df 8C000000 		.4byte	0x8c
 2136 02e3 00000000 		.4byte	.LLST0
 2137 02e7 14       		.uleb128 0x14
 2138 02e8 5E020000 		.4byte	.LASF52
 2139 02ec 01       		.byte	0x1
 2140 02ed 0201     		.2byte	0x102
 2141 02ef A2000000 		.4byte	0xa2
 2142 02f3 21000000 		.4byte	.LLST1
 2143 02f7 00       		.byte	0
 2144 02f8 12       		.uleb128 0x12
 2145 02f9 01       		.byte	0x1
 2146 02fa 85050000 		.4byte	.LASF48
 2147 02fe 01       		.byte	0x1
 2148 02ff 2201     		.2byte	0x122
 2149 0301 01       		.byte	0x1
 2150 0302 84000000 		.4byte	.LFB36
 2151 0306 9C000000 		.4byte	.LFE36
 2152 030a 02       		.byte	0x2
 2153 030b 7D       		.byte	0x7d
 2154 030c 00       		.sleb128 0
 2155 030d 01       		.byte	0x1
 2156 030e 21030000 		.4byte	0x321
 2157 0312 15       		.uleb128 0x15
 2158 0313 CC020000 		.4byte	.LASF49
 2159 0317 01       		.byte	0x1
 2160 0318 2201     		.2byte	0x122
 2161 031a F9000000 		.4byte	0xf9
 2162 031e 01       		.byte	0x1
 2163 031f 50       		.byte	0x50
 2164 0320 00       		.byte	0
 2165 0321 12       		.uleb128 0x12
 2166 0322 01       		.byte	0x1
 2167 0323 27030000 		.4byte	.LASF50
 2168 0327 01       		.byte	0x1
 2169 0328 3C01     		.2byte	0x13c
 2170 032a 01       		.byte	0x1
 2171 032b 9C000000 		.4byte	.LFB37
 2172 032f B0000000 		.4byte	.LFE37
 2173 0333 02       		.byte	0x2
 2174 0334 7D       		.byte	0x7d
 2175 0335 00       		.sleb128 0
 2176 0336 01       		.byte	0x1
 2177 0337 5C030000 		.4byte	0x35c
 2178 033b 13       		.uleb128 0x13
 2179 033c 19000000 		.4byte	.LASF51
 2180 0340 01       		.byte	0x1
ARM GAS  C:\Users\Doles\AppData\Local\Temp\ccw5cB6c.s 			page 68


 2181 0341 3C01     		.2byte	0x13c
 2182 0343 8C000000 		.4byte	0x8c
 2183 0347 4B000000 		.4byte	.LLST2
 2184 034b 14       		.uleb128 0x14
 2185 034c 5E020000 		.4byte	.LASF52
 2186 0350 01       		.byte	0x1
 2187 0351 3E01     		.2byte	0x13e
 2188 0353 A2000000 		.4byte	0xa2
 2189 0357 6C000000 		.4byte	.LLST3
 2190 035b 00       		.byte	0
 2191 035c 12       		.uleb128 0x12
 2192 035d 01       		.byte	0x1
 2193 035e 49060000 		.4byte	.LASF53
 2194 0362 01       		.byte	0x1
 2195 0363 5B01     		.2byte	0x15b
 2196 0365 01       		.byte	0x1
 2197 0366 B0000000 		.4byte	.LFB38
 2198 036a C8000000 		.4byte	.LFE38
 2199 036e 02       		.byte	0x2
 2200 036f 7D       		.byte	0x7d
 2201 0370 00       		.sleb128 0
 2202 0371 01       		.byte	0x1
 2203 0372 85030000 		.4byte	0x385
 2204 0376 15       		.uleb128 0x15
 2205 0377 CC020000 		.4byte	.LASF49
 2206 037b 01       		.byte	0x1
 2207 037c 5B01     		.2byte	0x15b
 2208 037e F9000000 		.4byte	0xf9
 2209 0382 01       		.byte	0x1
 2210 0383 50       		.byte	0x50
 2211 0384 00       		.byte	0
 2212 0385 12       		.uleb128 0x12
 2213 0386 01       		.byte	0x1
 2214 0387 7A020000 		.4byte	.LASF54
 2215 038b 01       		.byte	0x1
 2216 038c 7001     		.2byte	0x170
 2217 038e 01       		.byte	0x1
 2218 038f C8000000 		.4byte	.LFB39
 2219 0393 E0000000 		.4byte	.LFE39
 2220 0397 02       		.byte	0x2
 2221 0398 7D       		.byte	0x7d
 2222 0399 00       		.sleb128 0
 2223 039a 01       		.byte	0x1
 2224 039b AE030000 		.4byte	0x3ae
 2225 039f 15       		.uleb128 0x15
 2226 03a0 CC020000 		.4byte	.LASF49
 2227 03a4 01       		.byte	0x1
 2228 03a5 7001     		.2byte	0x170
 2229 03a7 F9000000 		.4byte	0xf9
 2230 03ab 01       		.byte	0x1
 2231 03ac 50       		.byte	0x50
 2232 03ad 00       		.byte	0
 2233 03ae 12       		.uleb128 0x12
 2234 03af 01       		.byte	0x1
 2235 03b0 2C040000 		.4byte	.LASF55
 2236 03b4 01       		.byte	0x1
 2237 03b5 9001     		.2byte	0x190
ARM GAS  C:\Users\Doles\AppData\Local\Temp\ccw5cB6c.s 			page 69


 2238 03b7 01       		.byte	0x1
 2239 03b8 E0000000 		.4byte	.LFB40
 2240 03bc 00010000 		.4byte	.LFE40
 2241 03c0 02       		.byte	0x2
 2242 03c1 7D       		.byte	0x7d
 2243 03c2 00       		.sleb128 0
 2244 03c3 01       		.byte	0x1
 2245 03c4 D9030000 		.4byte	0x3d9
 2246 03c8 13       		.uleb128 0x13
 2247 03c9 FF050000 		.4byte	.LASF56
 2248 03cd 01       		.byte	0x1
 2249 03ce 9001     		.2byte	0x190
 2250 03d0 A2000000 		.4byte	0xa2
 2251 03d4 96000000 		.4byte	.LLST4
 2252 03d8 00       		.byte	0
 2253 03d9 12       		.uleb128 0x12
 2254 03da 01       		.byte	0x1
 2255 03db C0050000 		.4byte	.LASF57
 2256 03df 01       		.byte	0x1
 2257 03e0 AA01     		.2byte	0x1aa
 2258 03e2 01       		.byte	0x1
 2259 03e3 00010000 		.4byte	.LFB41
 2260 03e7 18010000 		.4byte	.LFE41
 2261 03eb 02       		.byte	0x2
 2262 03ec 7D       		.byte	0x7d
 2263 03ed 00       		.sleb128 0
 2264 03ee 01       		.byte	0x1
 2265 03ef 04040000 		.4byte	0x404
 2266 03f3 13       		.uleb128 0x13
 2267 03f4 3A040000 		.4byte	.LASF58
 2268 03f8 01       		.byte	0x1
 2269 03f9 AA01     		.2byte	0x1aa
 2270 03fb A2000000 		.4byte	0xa2
 2271 03ff B7000000 		.4byte	.LLST5
 2272 0403 00       		.byte	0
 2273 0404 12       		.uleb128 0x12
 2274 0405 01       		.byte	0x1
 2275 0406 E2010000 		.4byte	.LASF59
 2276 040a 01       		.byte	0x1
 2277 040b C201     		.2byte	0x1c2
 2278 040d 01       		.byte	0x1
 2279 040e 18010000 		.4byte	.LFB42
 2280 0412 30010000 		.4byte	.LFE42
 2281 0416 02       		.byte	0x2
 2282 0417 7D       		.byte	0x7d
 2283 0418 00       		.sleb128 0
 2284 0419 01       		.byte	0x1
 2285 041a 2D040000 		.4byte	0x42d
 2286 041e 15       		.uleb128 0x15
 2287 041f CC020000 		.4byte	.LASF49
 2288 0423 01       		.byte	0x1
 2289 0424 C201     		.2byte	0x1c2
 2290 0426 F9000000 		.4byte	0xf9
 2291 042a 01       		.byte	0x1
 2292 042b 50       		.byte	0x50
 2293 042c 00       		.byte	0
 2294 042d 16       		.uleb128 0x16
ARM GAS  C:\Users\Doles\AppData\Local\Temp\ccw5cB6c.s 			page 70


 2295 042e 01       		.byte	0x1
 2296 042f F5000000 		.4byte	.LASF60
 2297 0433 01       		.byte	0x1
 2298 0434 E101     		.2byte	0x1e1
 2299 0436 01       		.byte	0x1
 2300 0437 30010000 		.4byte	.LFB43
 2301 043b 50010000 		.4byte	.LFE43
 2302 043f D8000000 		.4byte	.LLST6
 2303 0443 01       		.byte	0x1
 2304 0444 69040000 		.4byte	0x469
 2305 0448 13       		.uleb128 0x13
 2306 0449 64010000 		.4byte	.LASF61
 2307 044d 01       		.byte	0x1
 2308 044e E101     		.2byte	0x1e1
 2309 0450 A2000000 		.4byte	0xa2
 2310 0454 F8000000 		.4byte	.LLST7
 2311 0458 13       		.uleb128 0x13
 2312 0459 DB020000 		.4byte	.LASF62
 2313 045d 01       		.byte	0x1
 2314 045e E101     		.2byte	0x1e1
 2315 0460 A2000000 		.4byte	0xa2
 2316 0464 19010000 		.4byte	.LLST8
 2317 0468 00       		.byte	0
 2318 0469 12       		.uleb128 0x12
 2319 046a 01       		.byte	0x1
 2320 046b F4050000 		.4byte	.LASF63
 2321 046f 01       		.byte	0x1
 2322 0470 F901     		.2byte	0x1f9
 2323 0472 01       		.byte	0x1
 2324 0473 50010000 		.4byte	.LFB44
 2325 0477 74010000 		.4byte	.LFE44
 2326 047b 02       		.byte	0x2
 2327 047c 7D       		.byte	0x7d
 2328 047d 00       		.sleb128 0
 2329 047e 01       		.byte	0x1
 2330 047f 92040000 		.4byte	0x492
 2331 0483 15       		.uleb128 0x15
 2332 0484 CC020000 		.4byte	.LASF49
 2333 0488 01       		.byte	0x1
 2334 0489 F901     		.2byte	0x1f9
 2335 048b F9000000 		.4byte	0xf9
 2336 048f 01       		.byte	0x1
 2337 0490 50       		.byte	0x50
 2338 0491 00       		.byte	0
 2339 0492 12       		.uleb128 0x12
 2340 0493 01       		.byte	0x1
 2341 0494 33010000 		.4byte	.LASF64
 2342 0498 01       		.byte	0x1
 2343 0499 0F02     		.2byte	0x20f
 2344 049b 01       		.byte	0x1
 2345 049c 74010000 		.4byte	.LFB45
 2346 04a0 88010000 		.4byte	.LFE45
 2347 04a4 02       		.byte	0x2
 2348 04a5 7D       		.byte	0x7d
 2349 04a6 00       		.sleb128 0
 2350 04a7 01       		.byte	0x1
 2351 04a8 CD040000 		.4byte	0x4cd
ARM GAS  C:\Users\Doles\AppData\Local\Temp\ccw5cB6c.s 			page 71


 2352 04ac 13       		.uleb128 0x13
 2353 04ad 2F050000 		.4byte	.LASF65
 2354 04b1 01       		.byte	0x1
 2355 04b2 0F02     		.2byte	0x20f
 2356 04b4 A2000000 		.4byte	0xa2
 2357 04b8 3A010000 		.4byte	.LLST9
 2358 04bc 14       		.uleb128 0x14
 2359 04bd 5E020000 		.4byte	.LASF52
 2360 04c1 01       		.byte	0x1
 2361 04c2 1102     		.2byte	0x211
 2362 04c4 A2000000 		.4byte	0xa2
 2363 04c8 5B010000 		.4byte	.LLST10
 2364 04cc 00       		.byte	0
 2365 04cd 12       		.uleb128 0x12
 2366 04ce 01       		.byte	0x1
 2367 04cf 5D030000 		.4byte	.LASF66
 2368 04d3 01       		.byte	0x1
 2369 04d4 2A02     		.2byte	0x22a
 2370 04d6 01       		.byte	0x1
 2371 04d7 88010000 		.4byte	.LFB46
 2372 04db AC010000 		.4byte	.LFE46
 2373 04df 02       		.byte	0x2
 2374 04e0 7D       		.byte	0x7d
 2375 04e1 00       		.sleb128 0
 2376 04e2 01       		.byte	0x1
 2377 04e3 F6040000 		.4byte	0x4f6
 2378 04e7 15       		.uleb128 0x15
 2379 04e8 CC020000 		.4byte	.LASF49
 2380 04ec 01       		.byte	0x1
 2381 04ed 2A02     		.2byte	0x22a
 2382 04ef F9000000 		.4byte	0xf9
 2383 04f3 01       		.byte	0x1
 2384 04f4 50       		.byte	0x50
 2385 04f5 00       		.byte	0
 2386 04f6 12       		.uleb128 0x12
 2387 04f7 01       		.byte	0x1
 2388 04f8 BE020000 		.4byte	.LASF67
 2389 04fc 01       		.byte	0x1
 2390 04fd 4802     		.2byte	0x248
 2391 04ff 01       		.byte	0x1
 2392 0500 AC010000 		.4byte	.LFB47
 2393 0504 B8010000 		.4byte	.LFE47
 2394 0508 02       		.byte	0x2
 2395 0509 7D       		.byte	0x7d
 2396 050a 00       		.sleb128 0
 2397 050b 01       		.byte	0x1
 2398 050c 1F050000 		.4byte	0x51f
 2399 0510 15       		.uleb128 0x15
 2400 0511 D8040000 		.4byte	.LASF68
 2401 0515 01       		.byte	0x1
 2402 0516 4802     		.2byte	0x248
 2403 0518 8C000000 		.4byte	0x8c
 2404 051c 01       		.byte	0x1
 2405 051d 50       		.byte	0x50
 2406 051e 00       		.byte	0
 2407 051f 12       		.uleb128 0x12
 2408 0520 01       		.byte	0x1
ARM GAS  C:\Users\Doles\AppData\Local\Temp\ccw5cB6c.s 			page 72


 2409 0521 35000000 		.4byte	.LASF69
 2410 0525 01       		.byte	0x1
 2411 0526 B102     		.2byte	0x2b1
 2412 0528 01       		.byte	0x1
 2413 0529 B8010000 		.4byte	.LFB48
 2414 052d CC010000 		.4byte	.LFE48
 2415 0531 02       		.byte	0x2
 2416 0532 7D       		.byte	0x7d
 2417 0533 00       		.sleb128 0
 2418 0534 01       		.byte	0x1
 2419 0535 5A050000 		.4byte	0x55a
 2420 0539 13       		.uleb128 0x13
 2421 053a D2000000 		.4byte	.LASF70
 2422 053e 01       		.byte	0x1
 2423 053f B102     		.2byte	0x2b1
 2424 0541 A2000000 		.4byte	0xa2
 2425 0545 85010000 		.4byte	.LLST11
 2426 0549 14       		.uleb128 0x14
 2427 054a 5E020000 		.4byte	.LASF52
 2428 054e 01       		.byte	0x1
 2429 054f B302     		.2byte	0x2b3
 2430 0551 A2000000 		.4byte	0xa2
 2431 0555 A6010000 		.4byte	.LLST12
 2432 0559 00       		.byte	0
 2433 055a 17       		.uleb128 0x17
 2434 055b 01       		.byte	0x1
 2435 055c E6040000 		.4byte	.LASF120
 2436 0560 01       		.byte	0x1
 2437 0561 CD02     		.2byte	0x2cd
 2438 0563 01       		.byte	0x1
 2439 0564 8C000000 		.4byte	0x8c
 2440 0568 CC010000 		.4byte	.LFB49
 2441 056c DC010000 		.4byte	.LFE49
 2442 0570 02       		.byte	0x2
 2443 0571 7D       		.byte	0x7d
 2444 0572 00       		.sleb128 0
 2445 0573 01       		.byte	0x1
 2446 0574 12       		.uleb128 0x12
 2447 0575 01       		.byte	0x1
 2448 0576 C3030000 		.4byte	.LASF71
 2449 057a 01       		.byte	0x1
 2450 057b E202     		.2byte	0x2e2
 2451 057d 01       		.byte	0x1
 2452 057e DC010000 		.4byte	.LFB50
 2453 0582 F0010000 		.4byte	.LFE50
 2454 0586 02       		.byte	0x2
 2455 0587 7D       		.byte	0x7d
 2456 0588 00       		.sleb128 0
 2457 0589 01       		.byte	0x1
 2458 058a AF050000 		.4byte	0x5af
 2459 058e 13       		.uleb128 0x13
 2460 058f 60000000 		.4byte	.LASF72
 2461 0593 01       		.byte	0x1
 2462 0594 E202     		.2byte	0x2e2
 2463 0596 A2000000 		.4byte	0xa2
 2464 059a D0010000 		.4byte	.LLST13
 2465 059e 14       		.uleb128 0x14
ARM GAS  C:\Users\Doles\AppData\Local\Temp\ccw5cB6c.s 			page 73


 2466 059f 5E020000 		.4byte	.LASF52
 2467 05a3 01       		.byte	0x1
 2468 05a4 E402     		.2byte	0x2e4
 2469 05a6 A2000000 		.4byte	0xa2
 2470 05aa F1010000 		.4byte	.LLST14
 2471 05ae 00       		.byte	0
 2472 05af 12       		.uleb128 0x12
 2473 05b0 01       		.byte	0x1
 2474 05b1 94030000 		.4byte	.LASF73
 2475 05b5 01       		.byte	0x1
 2476 05b6 0103     		.2byte	0x301
 2477 05b8 01       		.byte	0x1
 2478 05b9 F0010000 		.4byte	.LFB51
 2479 05bd 08020000 		.4byte	.LFE51
 2480 05c1 02       		.byte	0x2
 2481 05c2 7D       		.byte	0x7d
 2482 05c3 00       		.sleb128 0
 2483 05c4 01       		.byte	0x1
 2484 05c5 EA050000 		.4byte	0x5ea
 2485 05c9 13       		.uleb128 0x13
 2486 05ca 1F020000 		.4byte	.LASF74
 2487 05ce 01       		.byte	0x1
 2488 05cf 0103     		.2byte	0x301
 2489 05d1 A2000000 		.4byte	0xa2
 2490 05d5 1B020000 		.4byte	.LLST15
 2491 05d9 14       		.uleb128 0x14
 2492 05da 5E020000 		.4byte	.LASF52
 2493 05de 01       		.byte	0x1
 2494 05df 0303     		.2byte	0x303
 2495 05e1 A2000000 		.4byte	0xa2
 2496 05e5 3C020000 		.4byte	.LLST16
 2497 05e9 00       		.byte	0
 2498 05ea 12       		.uleb128 0x12
 2499 05eb 01       		.byte	0x1
 2500 05ec B2030000 		.4byte	.LASF75
 2501 05f0 01       		.byte	0x1
 2502 05f1 1E03     		.2byte	0x31e
 2503 05f3 01       		.byte	0x1
 2504 05f4 08020000 		.4byte	.LFB52
 2505 05f8 38020000 		.4byte	.LFE52
 2506 05fc 02       		.byte	0x2
 2507 05fd 7D       		.byte	0x7d
 2508 05fe 00       		.sleb128 0
 2509 05ff 01       		.byte	0x1
 2510 0600 15060000 		.4byte	0x615
 2511 0604 13       		.uleb128 0x13
 2512 0605 BA010000 		.4byte	.LASF76
 2513 0609 01       		.byte	0x1
 2514 060a 1E03     		.2byte	0x31e
 2515 060c A2000000 		.4byte	0xa2
 2516 0610 71020000 		.4byte	.LLST17
 2517 0614 00       		.byte	0
 2518 0615 12       		.uleb128 0x12
 2519 0616 01       		.byte	0x1
 2520 0617 6B000000 		.4byte	.LASF77
 2521 061b 01       		.byte	0x1
 2522 061c 3703     		.2byte	0x337
ARM GAS  C:\Users\Doles\AppData\Local\Temp\ccw5cB6c.s 			page 74


 2523 061e 01       		.byte	0x1
 2524 061f 38020000 		.4byte	.LFB53
 2525 0623 50020000 		.4byte	.LFE53
 2526 0627 02       		.byte	0x2
 2527 0628 7D       		.byte	0x7d
 2528 0629 00       		.sleb128 0
 2529 062a 01       		.byte	0x1
 2530 062b 40060000 		.4byte	0x640
 2531 062f 13       		.uleb128 0x13
 2532 0630 85000000 		.4byte	.LASF78
 2533 0634 01       		.byte	0x1
 2534 0635 3703     		.2byte	0x337
 2535 0637 A2000000 		.4byte	0xa2
 2536 063b 92020000 		.4byte	.LLST18
 2537 063f 00       		.byte	0
 2538 0640 12       		.uleb128 0x12
 2539 0641 01       		.byte	0x1
 2540 0642 16030000 		.4byte	.LASF79
 2541 0646 01       		.byte	0x1
 2542 0647 4B03     		.2byte	0x34b
 2543 0649 01       		.byte	0x1
 2544 064a 50020000 		.4byte	.LFB54
 2545 064e 68020000 		.4byte	.LFE54
 2546 0652 02       		.byte	0x2
 2547 0653 7D       		.byte	0x7d
 2548 0654 00       		.sleb128 0
 2549 0655 01       		.byte	0x1
 2550 0656 6B060000 		.4byte	0x66b
 2551 065a 13       		.uleb128 0x13
 2552 065b 46020000 		.4byte	.LASF80
 2553 065f 01       		.byte	0x1
 2554 0660 4B03     		.2byte	0x34b
 2555 0662 A2000000 		.4byte	0xa2
 2556 0666 B3020000 		.4byte	.LLST19
 2557 066a 00       		.byte	0
 2558 066b 12       		.uleb128 0x12
 2559 066c 01       		.byte	0x1
 2560 066d 90010000 		.4byte	.LASF81
 2561 0671 01       		.byte	0x1
 2562 0672 6103     		.2byte	0x361
 2563 0674 01       		.byte	0x1
 2564 0675 68020000 		.4byte	.LFB55
 2565 0679 80020000 		.4byte	.LFE55
 2566 067d 02       		.byte	0x2
 2567 067e 7D       		.byte	0x7d
 2568 067f 00       		.sleb128 0
 2569 0680 01       		.byte	0x1
 2570 0681 96060000 		.4byte	0x696
 2571 0685 13       		.uleb128 0x13
 2572 0686 F7030000 		.4byte	.LASF82
 2573 068a 01       		.byte	0x1
 2574 068b 6103     		.2byte	0x361
 2575 068d A2000000 		.4byte	0xa2
 2576 0691 D4020000 		.4byte	.LLST20
 2577 0695 00       		.byte	0
 2578 0696 18       		.uleb128 0x18
 2579 0697 01       		.byte	0x1
ARM GAS  C:\Users\Doles\AppData\Local\Temp\ccw5cB6c.s 			page 75


 2580 0698 C5010000 		.4byte	.LASF83
 2581 069c 01       		.byte	0x1
 2582 069d 9003     		.2byte	0x390
 2583 069f 01       		.byte	0x1
 2584 06a0 80020000 		.4byte	.LFB56
 2585 06a4 60030000 		.4byte	.LFE56
 2586 06a8 F5020000 		.4byte	.LLST21
 2587 06ac 01       		.byte	0x1
 2588 06ad 12070000 		.4byte	0x712
 2589 06b1 13       		.uleb128 0x13
 2590 06b2 04040000 		.4byte	.LASF84
 2591 06b6 01       		.byte	0x1
 2592 06b7 9003     		.2byte	0x390
 2593 06b9 12070000 		.4byte	0x712
 2594 06bd 15030000 		.4byte	.LLST22
 2595 06c1 19       		.uleb128 0x19
 2596 06c2 746D7000 		.ascii	"tmp\000"
 2597 06c6 01       		.byte	0x1
 2598 06c7 9203     		.2byte	0x392
 2599 06c9 A2000000 		.4byte	0xa2
 2600 06cd 57030000 		.4byte	.LLST23
 2601 06d1 14       		.uleb128 0x14
 2602 06d2 0E010000 		.4byte	.LASF85
 2603 06d6 01       		.byte	0x1
 2604 06d7 9203     		.2byte	0x392
 2605 06d9 A2000000 		.4byte	0xa2
 2606 06dd C4030000 		.4byte	.LLST24
 2607 06e1 14       		.uleb128 0x14
 2608 06e2 D3050000 		.4byte	.LASF86
 2609 06e6 01       		.byte	0x1
 2610 06e7 9203     		.2byte	0x392
 2611 06e9 A2000000 		.4byte	0xa2
 2612 06ed F4030000 		.4byte	.LLST25
 2613 06f1 14       		.uleb128 0x14
 2614 06f2 6C040000 		.4byte	.LASF87
 2615 06f6 01       		.byte	0x1
 2616 06f7 9203     		.2byte	0x392
 2617 06f9 A2000000 		.4byte	0xa2
 2618 06fd 19040000 		.4byte	.LLST26
 2619 0701 14       		.uleb128 0x14
 2620 0702 D5020000 		.4byte	.LASF88
 2621 0706 01       		.byte	0x1
 2622 0707 9203     		.2byte	0x392
 2623 0709 A2000000 		.4byte	0xa2
 2624 070d 49040000 		.4byte	.LLST27
 2625 0711 00       		.byte	0
 2626 0712 1A       		.uleb128 0x1a
 2627 0713 04       		.byte	0x4
 2628 0714 76020000 		.4byte	0x276
 2629 0718 12       		.uleb128 0x12
 2630 0719 01       		.byte	0x1
 2631 071a C7040000 		.4byte	.LASF89
 2632 071e 01       		.byte	0x1
 2633 071f 3E04     		.2byte	0x43e
 2634 0721 01       		.byte	0x1
 2635 0722 60030000 		.4byte	.LFB57
 2636 0726 70030000 		.4byte	.LFE57
ARM GAS  C:\Users\Doles\AppData\Local\Temp\ccw5cB6c.s 			page 76


 2637 072a 02       		.byte	0x2
 2638 072b 7D       		.byte	0x7d
 2639 072c 00       		.sleb128 0
 2640 072d 01       		.byte	0x1
 2641 072e 43070000 		.4byte	0x743
 2642 0732 13       		.uleb128 0x13
 2643 0733 9B040000 		.4byte	.LASF90
 2644 0737 01       		.byte	0x1
 2645 0738 3E04     		.2byte	0x43e
 2646 073a A2000000 		.4byte	0xa2
 2647 073e 73040000 		.4byte	.LLST28
 2648 0742 00       		.byte	0
 2649 0743 12       		.uleb128 0x12
 2650 0744 01       		.byte	0x1
 2651 0745 54070000 		.4byte	.LASF91
 2652 0749 01       		.byte	0x1
 2653 074a 4F04     		.2byte	0x44f
 2654 074c 01       		.byte	0x1
 2655 074d 70030000 		.4byte	.LFB58
 2656 0751 94030000 		.4byte	.LFE58
 2657 0755 02       		.byte	0x2
 2658 0756 7D       		.byte	0x7d
 2659 0757 00       		.sleb128 0
 2660 0758 01       		.byte	0x1
 2661 0759 6C070000 		.4byte	0x76c
 2662 075d 15       		.uleb128 0x15
 2663 075e CC020000 		.4byte	.LASF49
 2664 0762 01       		.byte	0x1
 2665 0763 4F04     		.2byte	0x44f
 2666 0765 F9000000 		.4byte	0xf9
 2667 0769 01       		.byte	0x1
 2668 076a 50       		.byte	0x50
 2669 076b 00       		.byte	0
 2670 076c 12       		.uleb128 0x12
 2671 076d 01       		.byte	0x1
 2672 076e 1C050000 		.4byte	.LASF92
 2673 0772 01       		.byte	0x1
 2674 0773 6604     		.2byte	0x466
 2675 0775 01       		.byte	0x1
 2676 0776 94030000 		.4byte	.LFB59
 2677 077a B8030000 		.4byte	.LFE59
 2678 077e 02       		.byte	0x2
 2679 077f 7D       		.byte	0x7d
 2680 0780 00       		.sleb128 0
 2681 0781 01       		.byte	0x1
 2682 0782 95070000 		.4byte	0x795
 2683 0786 15       		.uleb128 0x15
 2684 0787 CC020000 		.4byte	.LASF49
 2685 078b 01       		.byte	0x1
 2686 078c 6604     		.2byte	0x466
 2687 078e F9000000 		.4byte	0xf9
 2688 0792 01       		.byte	0x1
 2689 0793 50       		.byte	0x50
 2690 0794 00       		.byte	0
 2691 0795 12       		.uleb128 0x12
 2692 0796 01       		.byte	0x1
 2693 0797 28020000 		.4byte	.LASF93
ARM GAS  C:\Users\Doles\AppData\Local\Temp\ccw5cB6c.s 			page 77


 2694 079b 01       		.byte	0x1
 2695 079c 8A04     		.2byte	0x48a
 2696 079e 01       		.byte	0x1
 2697 079f B8030000 		.4byte	.LFB60
 2698 07a3 D0030000 		.4byte	.LFE60
 2699 07a7 02       		.byte	0x2
 2700 07a8 7D       		.byte	0x7d
 2701 07a9 00       		.sleb128 0
 2702 07aa 01       		.byte	0x1
 2703 07ab CE070000 		.4byte	0x7ce
 2704 07af 13       		.uleb128 0x13
 2705 07b0 C4000000 		.4byte	.LASF94
 2706 07b4 01       		.byte	0x1
 2707 07b5 8A04     		.2byte	0x48a
 2708 07b7 A2000000 		.4byte	0xa2
 2709 07bb 94040000 		.4byte	.LLST29
 2710 07bf 15       		.uleb128 0x15
 2711 07c0 CC020000 		.4byte	.LASF49
 2712 07c4 01       		.byte	0x1
 2713 07c5 8A04     		.2byte	0x48a
 2714 07c7 F9000000 		.4byte	0xf9
 2715 07cb 01       		.byte	0x1
 2716 07cc 51       		.byte	0x51
 2717 07cd 00       		.byte	0
 2718 07ce 12       		.uleb128 0x12
 2719 07cf 01       		.byte	0x1
 2720 07d0 DD050000 		.4byte	.LASF95
 2721 07d4 01       		.byte	0x1
 2722 07d5 AE04     		.2byte	0x4ae
 2723 07d7 01       		.byte	0x1
 2724 07d8 D0030000 		.4byte	.LFB61
 2725 07dc E8030000 		.4byte	.LFE61
 2726 07e0 02       		.byte	0x2
 2727 07e1 7D       		.byte	0x7d
 2728 07e2 00       		.sleb128 0
 2729 07e3 01       		.byte	0x1
 2730 07e4 07080000 		.4byte	0x807
 2731 07e8 13       		.uleb128 0x13
 2732 07e9 A3030000 		.4byte	.LASF96
 2733 07ed 01       		.byte	0x1
 2734 07ee AE04     		.2byte	0x4ae
 2735 07f0 A2000000 		.4byte	0xa2
 2736 07f4 CE040000 		.4byte	.LLST30
 2737 07f8 15       		.uleb128 0x15
 2738 07f9 CC020000 		.4byte	.LASF49
 2739 07fd 01       		.byte	0x1
 2740 07fe AE04     		.2byte	0x4ae
 2741 0800 F9000000 		.4byte	0xf9
 2742 0804 01       		.byte	0x1
 2743 0805 51       		.byte	0x51
 2744 0806 00       		.byte	0
 2745 0807 12       		.uleb128 0x12
 2746 0808 01       		.byte	0x1
 2747 0809 FF020000 		.4byte	.LASF97
 2748 080d 01       		.byte	0x1
 2749 080e D504     		.2byte	0x4d5
 2750 0810 01       		.byte	0x1
ARM GAS  C:\Users\Doles\AppData\Local\Temp\ccw5cB6c.s 			page 78


 2751 0811 E8030000 		.4byte	.LFB62
 2752 0815 00040000 		.4byte	.LFE62
 2753 0819 02       		.byte	0x2
 2754 081a 7D       		.byte	0x7d
 2755 081b 00       		.sleb128 0
 2756 081c 01       		.byte	0x1
 2757 081d 40080000 		.4byte	0x840
 2758 0821 13       		.uleb128 0x13
 2759 0822 26060000 		.4byte	.LASF98
 2760 0826 01       		.byte	0x1
 2761 0827 D504     		.2byte	0x4d5
 2762 0829 A2000000 		.4byte	0xa2
 2763 082d 08050000 		.4byte	.LLST31
 2764 0831 15       		.uleb128 0x15
 2765 0832 CC020000 		.4byte	.LASF49
 2766 0836 01       		.byte	0x1
 2767 0837 D504     		.2byte	0x4d5
 2768 0839 F9000000 		.4byte	0xf9
 2769 083d 01       		.byte	0x1
 2770 083e 51       		.byte	0x51
 2771 083f 00       		.byte	0
 2772 0840 12       		.uleb128 0x12
 2773 0841 01       		.byte	0x1
 2774 0842 80040000 		.4byte	.LASF99
 2775 0846 01       		.byte	0x1
 2776 0847 F304     		.2byte	0x4f3
 2777 0849 01       		.byte	0x1
 2778 084a 00040000 		.4byte	.LFB63
 2779 084e 18040000 		.4byte	.LFE63
 2780 0852 02       		.byte	0x2
 2781 0853 7D       		.byte	0x7d
 2782 0854 00       		.sleb128 0
 2783 0855 01       		.byte	0x1
 2784 0856 79080000 		.4byte	0x879
 2785 085a 13       		.uleb128 0x13
 2786 085b C4000000 		.4byte	.LASF94
 2787 085f 01       		.byte	0x1
 2788 0860 F304     		.2byte	0x4f3
 2789 0862 A2000000 		.4byte	0xa2
 2790 0866 42050000 		.4byte	.LLST32
 2791 086a 15       		.uleb128 0x15
 2792 086b CC020000 		.4byte	.LASF49
 2793 086f 01       		.byte	0x1
 2794 0870 F304     		.2byte	0x4f3
 2795 0872 F9000000 		.4byte	0xf9
 2796 0876 01       		.byte	0x1
 2797 0877 51       		.byte	0x51
 2798 0878 00       		.byte	0
 2799 0879 12       		.uleb128 0x12
 2800 087a 01       		.byte	0x1
 2801 087b 3F050000 		.4byte	.LASF100
 2802 087f 01       		.byte	0x1
 2803 0880 1405     		.2byte	0x514
 2804 0882 01       		.byte	0x1
 2805 0883 18040000 		.4byte	.LFB64
 2806 0887 30040000 		.4byte	.LFE64
 2807 088b 02       		.byte	0x2
ARM GAS  C:\Users\Doles\AppData\Local\Temp\ccw5cB6c.s 			page 79


 2808 088c 7D       		.byte	0x7d
 2809 088d 00       		.sleb128 0
 2810 088e 01       		.byte	0x1
 2811 088f B2080000 		.4byte	0x8b2
 2812 0893 13       		.uleb128 0x13
 2813 0894 A3030000 		.4byte	.LASF96
 2814 0898 01       		.byte	0x1
 2815 0899 1405     		.2byte	0x514
 2816 089b A2000000 		.4byte	0xa2
 2817 089f 7C050000 		.4byte	.LLST33
 2818 08a3 15       		.uleb128 0x15
 2819 08a4 CC020000 		.4byte	.LASF49
 2820 08a8 01       		.byte	0x1
 2821 08a9 1405     		.2byte	0x514
 2822 08ab F9000000 		.4byte	0xf9
 2823 08af 01       		.byte	0x1
 2824 08b0 51       		.byte	0x51
 2825 08b1 00       		.byte	0
 2826 08b2 12       		.uleb128 0x12
 2827 08b3 01       		.byte	0x1
 2828 08b4 9E050000 		.4byte	.LASF101
 2829 08b8 01       		.byte	0x1
 2830 08b9 3805     		.2byte	0x538
 2831 08bb 01       		.byte	0x1
 2832 08bc 30040000 		.4byte	.LFB65
 2833 08c0 48040000 		.4byte	.LFE65
 2834 08c4 02       		.byte	0x2
 2835 08c5 7D       		.byte	0x7d
 2836 08c6 00       		.sleb128 0
 2837 08c7 01       		.byte	0x1
 2838 08c8 EB080000 		.4byte	0x8eb
 2839 08cc 13       		.uleb128 0x13
 2840 08cd 26060000 		.4byte	.LASF98
 2841 08d1 01       		.byte	0x1
 2842 08d2 3805     		.2byte	0x538
 2843 08d4 A2000000 		.4byte	0xa2
 2844 08d8 B6050000 		.4byte	.LLST34
 2845 08dc 15       		.uleb128 0x15
 2846 08dd CC020000 		.4byte	.LASF49
 2847 08e1 01       		.byte	0x1
 2848 08e2 3805     		.2byte	0x538
 2849 08e4 F9000000 		.4byte	0xf9
 2850 08e8 01       		.byte	0x1
 2851 08e9 51       		.byte	0x51
 2852 08ea 00       		.byte	0
 2853 08eb 12       		.uleb128 0x12
 2854 08ec 01       		.byte	0x1
 2855 08ed 51020000 		.4byte	.LASF102
 2856 08f1 01       		.byte	0x1
 2857 08f2 6B05     		.2byte	0x56b
 2858 08f4 01       		.byte	0x1
 2859 08f5 48040000 		.4byte	.LFB66
 2860 08f9 60040000 		.4byte	.LFE66
 2861 08fd 02       		.byte	0x2
 2862 08fe 7D       		.byte	0x7d
 2863 08ff 00       		.sleb128 0
 2864 0900 01       		.byte	0x1
ARM GAS  C:\Users\Doles\AppData\Local\Temp\ccw5cB6c.s 			page 80


 2865 0901 24090000 		.4byte	0x924
 2866 0905 13       		.uleb128 0x13
 2867 0906 56060000 		.4byte	.LASF103
 2868 090a 01       		.byte	0x1
 2869 090b 6B05     		.2byte	0x56b
 2870 090d 8C000000 		.4byte	0x8c
 2871 0911 F0050000 		.4byte	.LLST35
 2872 0915 15       		.uleb128 0x15
 2873 0916 CC020000 		.4byte	.LASF49
 2874 091a 01       		.byte	0x1
 2875 091b 6B05     		.2byte	0x56b
 2876 091d F9000000 		.4byte	0xf9
 2877 0921 01       		.byte	0x1
 2878 0922 51       		.byte	0x51
 2879 0923 00       		.byte	0
 2880 0924 1B       		.uleb128 0x1b
 2881 0925 01       		.byte	0x1
 2882 0926 47040000 		.4byte	.LASF107
 2883 092a 01       		.byte	0x1
 2884 092b 9105     		.2byte	0x591
 2885 092d 01       		.byte	0x1
 2886 092e CE000000 		.4byte	0xce
 2887 0932 60040000 		.4byte	.LFB67
 2888 0936 8C040000 		.4byte	.LFE67
 2889 093a 02       		.byte	0x2
 2890 093b 7D       		.byte	0x7d
 2891 093c 00       		.sleb128 0
 2892 093d 01       		.byte	0x1
 2893 093e 83090000 		.4byte	0x983
 2894 0942 13       		.uleb128 0x13
 2895 0943 5D060000 		.4byte	.LASF104
 2896 0947 01       		.byte	0x1
 2897 0948 9105     		.2byte	0x591
 2898 094a 8C000000 		.4byte	0x8c
 2899 094e 2A060000 		.4byte	.LLST36
 2900 0952 19       		.uleb128 0x19
 2901 0953 746D7000 		.ascii	"tmp\000"
 2902 0957 01       		.byte	0x1
 2903 0958 9305     		.2byte	0x593
 2904 095a A2000000 		.4byte	0xa2
 2905 095e 4B060000 		.4byte	.LLST37
 2906 0962 14       		.uleb128 0x14
 2907 0963 35060000 		.4byte	.LASF105
 2908 0967 01       		.byte	0x1
 2909 0968 9405     		.2byte	0x594
 2910 096a A2000000 		.4byte	0xa2
 2911 096e 94060000 		.4byte	.LLST38
 2912 0972 14       		.uleb128 0x14
 2913 0973 3F060000 		.4byte	.LASF106
 2914 0977 01       		.byte	0x1
 2915 0978 9505     		.2byte	0x595
 2916 097a CE000000 		.4byte	0xce
 2917 097e F8060000 		.4byte	.LLST39
 2918 0982 00       		.byte	0
 2919 0983 1C       		.uleb128 0x1c
 2920 0984 01       		.byte	0x1
 2921 0985 45010000 		.4byte	.LASF108
ARM GAS  C:\Users\Doles\AppData\Local\Temp\ccw5cB6c.s 			page 81


 2922 0989 01       		.byte	0x1
 2923 098a DE       		.byte	0xde
 2924 098b 01       		.byte	0x1
 2925 098c 19010000 		.4byte	0x119
 2926 0990 8C040000 		.4byte	.LFB34
 2927 0994 BA040000 		.4byte	.LFE34
 2928 0998 3B070000 		.4byte	.LLST40
 2929 099c 01       		.byte	0x1
 2930 099d F0090000 		.4byte	0x9f0
 2931 09a1 1D       		.uleb128 0x1d
 2932 09a2 45070000 		.4byte	.LASF109
 2933 09a6 01       		.byte	0x1
 2934 09a7 E0       		.byte	0xe0
 2935 09a8 B4000000 		.4byte	0xb4
 2936 09ac 02       		.byte	0x2
 2937 09ad 91       		.byte	0x91
 2938 09ae 74       		.sleb128 -12
 2939 09af 1E       		.uleb128 0x1e
 2940 09b0 56030000 		.4byte	.LASF110
 2941 09b4 01       		.byte	0x1
 2942 09b5 E1       		.byte	0xe1
 2943 09b6 19010000 		.4byte	0x119
 2944 09ba 5B070000 		.4byte	.LLST41
 2945 09be 1E       		.uleb128 0x1e
 2946 09bf 7B050000 		.4byte	.LASF111
 2947 09c3 01       		.byte	0x1
 2948 09c4 E2       		.byte	0xe2
 2949 09c5 CE000000 		.4byte	0xce
 2950 09c9 80070000 		.4byte	.LLST42
 2951 09cd 1F       		.uleb128 0x1f
 2952 09ce 98040000 		.4byte	.LVL118
 2953 09d2 24090000 		.4byte	0x924
 2954 09d6 E0090000 		.4byte	0x9e0
 2955 09da 20       		.uleb128 0x20
 2956 09db 01       		.byte	0x1
 2957 09dc 50       		.byte	0x50
 2958 09dd 01       		.byte	0x1
 2959 09de 41       		.byte	0x41
 2960 09df 00       		.byte	0
 2961 09e0 21       		.uleb128 0x21
 2962 09e1 B2040000 		.4byte	.LVL120
 2963 09e5 24090000 		.4byte	0x924
 2964 09e9 20       		.uleb128 0x20
 2965 09ea 01       		.byte	0x1
 2966 09eb 50       		.byte	0x50
 2967 09ec 01       		.byte	0x1
 2968 09ed 41       		.byte	0x41
 2969 09ee 00       		.byte	0
 2970 09ef 00       		.byte	0
 2971 09f0 22       		.uleb128 0x22
 2972 09f1 01       		.byte	0x1
 2973 09f2 16010000 		.4byte	.LASF113
 2974 09f6 01       		.byte	0x1
 2975 09f7 C505     		.2byte	0x5c5
 2976 09f9 01       		.byte	0x1
 2977 09fa BA040000 		.4byte	.LFB68
 2978 09fe CC040000 		.4byte	.LFE68
ARM GAS  C:\Users\Doles\AppData\Local\Temp\ccw5cB6c.s 			page 82


 2979 0a02 02       		.byte	0x2
 2980 0a03 7D       		.byte	0x7d
 2981 0a04 00       		.sleb128 0
 2982 0a05 01       		.byte	0x1
 2983 0a06 1B       		.uleb128 0x1b
 2984 0a07 01       		.byte	0x1
 2985 0a08 FE010000 		.4byte	.LASF114
 2986 0a0c 01       		.byte	0x1
 2987 0a0d D805     		.2byte	0x5d8
 2988 0a0f 01       		.byte	0x1
 2989 0a10 D9000000 		.4byte	0xd9
 2990 0a14 CC040000 		.4byte	.LFB69
 2991 0a18 E0040000 		.4byte	.LFE69
 2992 0a1c 02       		.byte	0x2
 2993 0a1d 7D       		.byte	0x7d
 2994 0a1e 00       		.sleb128 0
 2995 0a1f 01       		.byte	0x1
 2996 0a20 450A0000 		.4byte	0xa45
 2997 0a24 13       		.uleb128 0x13
 2998 0a25 56060000 		.4byte	.LASF103
 2999 0a29 01       		.byte	0x1
 3000 0a2a D805     		.2byte	0x5d8
 3001 0a2c 8C000000 		.4byte	0x8c
 3002 0a30 93070000 		.4byte	.LLST43
 3003 0a34 14       		.uleb128 0x14
 3004 0a35 3F060000 		.4byte	.LASF106
 3005 0a39 01       		.byte	0x1
 3006 0a3a DA05     		.2byte	0x5da
 3007 0a3c D9000000 		.4byte	0xd9
 3008 0a40 B4070000 		.4byte	.LLST44
 3009 0a44 00       		.byte	0
 3010 0a45 12       		.uleb128 0x12
 3011 0a46 01       		.byte	0x1
 3012 0a47 7A010000 		.4byte	.LASF115
 3013 0a4b 01       		.byte	0x1
 3014 0a4c F905     		.2byte	0x5f9
 3015 0a4e 01       		.byte	0x1
 3016 0a4f E0040000 		.4byte	.LFB70
 3017 0a53 EC040000 		.4byte	.LFE70
 3018 0a57 02       		.byte	0x2
 3019 0a58 7D       		.byte	0x7d
 3020 0a59 00       		.sleb128 0
 3021 0a5a 01       		.byte	0x1
 3022 0a5b 6E0A0000 		.4byte	0xa6e
 3023 0a5f 15       		.uleb128 0x15
 3024 0a60 56060000 		.4byte	.LASF103
 3025 0a64 01       		.byte	0x1
 3026 0a65 F905     		.2byte	0x5f9
 3027 0a67 8C000000 		.4byte	0x8c
 3028 0a6b 01       		.byte	0x1
 3029 0a6c 50       		.byte	0x50
 3030 0a6d 00       		.byte	0
 3031 0a6e 23       		.uleb128 0x23
 3032 0a6f 8C000000 		.4byte	0x8c
 3033 0a73 7E0A0000 		.4byte	0xa7e
 3034 0a77 24       		.uleb128 0x24
 3035 0a78 AD000000 		.4byte	0xad
ARM GAS  C:\Users\Doles\AppData\Local\Temp\ccw5cB6c.s 			page 83


 3036 0a7c 0F       		.byte	0xf
 3037 0a7d 00       		.byte	0
 3038 0a7e 1D       		.uleb128 0x1d
 3039 0a7f D2030000 		.4byte	.LASF116
 3040 0a83 01       		.byte	0x1
 3041 0a84 5A       		.byte	0x5a
 3042 0a85 8F0A0000 		.4byte	0xa8f
 3043 0a89 05       		.byte	0x5
 3044 0a8a 03       		.byte	0x3
 3045 0a8b 00000000 		.4byte	APBAHBPrescTable
 3046 0a8f 25       		.uleb128 0x25
 3047 0a90 940A0000 		.4byte	0xa94
 3048 0a94 05       		.uleb128 0x5
 3049 0a95 6E0A0000 		.4byte	0xa6e
 3050 0a99 00       		.byte	0
 3051              		.section	.debug_abbrev,"",%progbits
 3052              	.Ldebug_abbrev0:
 3053 0000 01       		.uleb128 0x1
 3054 0001 11       		.uleb128 0x11
 3055 0002 01       		.byte	0x1
 3056 0003 25       		.uleb128 0x25
 3057 0004 0E       		.uleb128 0xe
 3058 0005 13       		.uleb128 0x13
 3059 0006 0B       		.uleb128 0xb
 3060 0007 03       		.uleb128 0x3
 3061 0008 0E       		.uleb128 0xe
 3062 0009 1B       		.uleb128 0x1b
 3063 000a 0E       		.uleb128 0xe
 3064 000b 11       		.uleb128 0x11
 3065 000c 01       		.uleb128 0x1
 3066 000d 12       		.uleb128 0x12
 3067 000e 01       		.uleb128 0x1
 3068 000f 10       		.uleb128 0x10
 3069 0010 06       		.uleb128 0x6
 3070 0011 00       		.byte	0
 3071 0012 00       		.byte	0
 3072 0013 02       		.uleb128 0x2
 3073 0014 24       		.uleb128 0x24
 3074 0015 00       		.byte	0
 3075 0016 0B       		.uleb128 0xb
 3076 0017 0B       		.uleb128 0xb
 3077 0018 3E       		.uleb128 0x3e
 3078 0019 0B       		.uleb128 0xb
 3079 001a 03       		.uleb128 0x3
 3080 001b 0E       		.uleb128 0xe
 3081 001c 00       		.byte	0
 3082 001d 00       		.byte	0
 3083 001e 03       		.uleb128 0x3
 3084 001f 16       		.uleb128 0x16
 3085 0020 00       		.byte	0
 3086 0021 03       		.uleb128 0x3
 3087 0022 0E       		.uleb128 0xe
 3088 0023 3A       		.uleb128 0x3a
 3089 0024 0B       		.uleb128 0xb
 3090 0025 3B       		.uleb128 0x3b
 3091 0026 0B       		.uleb128 0xb
 3092 0027 49       		.uleb128 0x49
ARM GAS  C:\Users\Doles\AppData\Local\Temp\ccw5cB6c.s 			page 84


 3093 0028 13       		.uleb128 0x13
 3094 0029 00       		.byte	0
 3095 002a 00       		.byte	0
 3096 002b 04       		.uleb128 0x4
 3097 002c 24       		.uleb128 0x24
 3098 002d 00       		.byte	0
 3099 002e 0B       		.uleb128 0xb
 3100 002f 0B       		.uleb128 0xb
 3101 0030 3E       		.uleb128 0x3e
 3102 0031 0B       		.uleb128 0xb
 3103 0032 03       		.uleb128 0x3
 3104 0033 08       		.uleb128 0x8
 3105 0034 00       		.byte	0
 3106 0035 00       		.byte	0
 3107 0036 05       		.uleb128 0x5
 3108 0037 35       		.uleb128 0x35
 3109 0038 00       		.byte	0
 3110 0039 49       		.uleb128 0x49
 3111 003a 13       		.uleb128 0x13
 3112 003b 00       		.byte	0
 3113 003c 00       		.byte	0
 3114 003d 06       		.uleb128 0x6
 3115 003e 04       		.uleb128 0x4
 3116 003f 01       		.byte	0x1
 3117 0040 0B       		.uleb128 0xb
 3118 0041 0B       		.uleb128 0xb
 3119 0042 3A       		.uleb128 0x3a
 3120 0043 0B       		.uleb128 0xb
 3121 0044 3B       		.uleb128 0x3b
 3122 0045 0B       		.uleb128 0xb
 3123 0046 01       		.uleb128 0x1
 3124 0047 13       		.uleb128 0x13
 3125 0048 00       		.byte	0
 3126 0049 00       		.byte	0
 3127 004a 07       		.uleb128 0x7
 3128 004b 28       		.uleb128 0x28
 3129 004c 00       		.byte	0
 3130 004d 03       		.uleb128 0x3
 3131 004e 0E       		.uleb128 0xe
 3132 004f 1C       		.uleb128 0x1c
 3133 0050 0D       		.uleb128 0xd
 3134 0051 00       		.byte	0
 3135 0052 00       		.byte	0
 3136 0053 08       		.uleb128 0x8
 3137 0054 28       		.uleb128 0x28
 3138 0055 00       		.byte	0
 3139 0056 03       		.uleb128 0x3
 3140 0057 08       		.uleb128 0x8
 3141 0058 1C       		.uleb128 0x1c
 3142 0059 0D       		.uleb128 0xd
 3143 005a 00       		.byte	0
 3144 005b 00       		.byte	0
 3145 005c 09       		.uleb128 0x9
 3146 005d 13       		.uleb128 0x13
 3147 005e 01       		.byte	0x1
 3148 005f 0B       		.uleb128 0xb
 3149 0060 0B       		.uleb128 0xb
ARM GAS  C:\Users\Doles\AppData\Local\Temp\ccw5cB6c.s 			page 85


 3150 0061 3A       		.uleb128 0x3a
 3151 0062 0B       		.uleb128 0xb
 3152 0063 3B       		.uleb128 0x3b
 3153 0064 05       		.uleb128 0x5
 3154 0065 01       		.uleb128 0x1
 3155 0066 13       		.uleb128 0x13
 3156 0067 00       		.byte	0
 3157 0068 00       		.byte	0
 3158 0069 0A       		.uleb128 0xa
 3159 006a 0D       		.uleb128 0xd
 3160 006b 00       		.byte	0
 3161 006c 03       		.uleb128 0x3
 3162 006d 08       		.uleb128 0x8
 3163 006e 3A       		.uleb128 0x3a
 3164 006f 0B       		.uleb128 0xb
 3165 0070 3B       		.uleb128 0x3b
 3166 0071 05       		.uleb128 0x5
 3167 0072 49       		.uleb128 0x49
 3168 0073 13       		.uleb128 0x13
 3169 0074 38       		.uleb128 0x38
 3170 0075 0A       		.uleb128 0xa
 3171 0076 00       		.byte	0
 3172 0077 00       		.byte	0
 3173 0078 0B       		.uleb128 0xb
 3174 0079 0D       		.uleb128 0xd
 3175 007a 00       		.byte	0
 3176 007b 03       		.uleb128 0x3
 3177 007c 0E       		.uleb128 0xe
 3178 007d 3A       		.uleb128 0x3a
 3179 007e 0B       		.uleb128 0xb
 3180 007f 3B       		.uleb128 0x3b
 3181 0080 05       		.uleb128 0x5
 3182 0081 49       		.uleb128 0x49
 3183 0082 13       		.uleb128 0x13
 3184 0083 38       		.uleb128 0x38
 3185 0084 0A       		.uleb128 0xa
 3186 0085 00       		.byte	0
 3187 0086 00       		.byte	0
 3188 0087 0C       		.uleb128 0xc
 3189 0088 16       		.uleb128 0x16
 3190 0089 00       		.byte	0
 3191 008a 03       		.uleb128 0x3
 3192 008b 0E       		.uleb128 0xe
 3193 008c 3A       		.uleb128 0x3a
 3194 008d 0B       		.uleb128 0xb
 3195 008e 3B       		.uleb128 0x3b
 3196 008f 05       		.uleb128 0x5
 3197 0090 49       		.uleb128 0x49
 3198 0091 13       		.uleb128 0x13
 3199 0092 00       		.byte	0
 3200 0093 00       		.byte	0
 3201 0094 0D       		.uleb128 0xd
 3202 0095 13       		.uleb128 0x13
 3203 0096 01       		.byte	0x1
 3204 0097 0B       		.uleb128 0xb
 3205 0098 0B       		.uleb128 0xb
 3206 0099 3A       		.uleb128 0x3a
ARM GAS  C:\Users\Doles\AppData\Local\Temp\ccw5cB6c.s 			page 86


 3207 009a 0B       		.uleb128 0xb
 3208 009b 3B       		.uleb128 0x3b
 3209 009c 0B       		.uleb128 0xb
 3210 009d 01       		.uleb128 0x1
 3211 009e 13       		.uleb128 0x13
 3212 009f 00       		.byte	0
 3213 00a0 00       		.byte	0
 3214 00a1 0E       		.uleb128 0xe
 3215 00a2 0D       		.uleb128 0xd
 3216 00a3 00       		.byte	0
 3217 00a4 03       		.uleb128 0x3
 3218 00a5 0E       		.uleb128 0xe
 3219 00a6 3A       		.uleb128 0x3a
 3220 00a7 0B       		.uleb128 0xb
 3221 00a8 3B       		.uleb128 0x3b
 3222 00a9 0B       		.uleb128 0xb
 3223 00aa 49       		.uleb128 0x49
 3224 00ab 13       		.uleb128 0x13
 3225 00ac 38       		.uleb128 0x38
 3226 00ad 0A       		.uleb128 0xa
 3227 00ae 00       		.byte	0
 3228 00af 00       		.byte	0
 3229 00b0 0F       		.uleb128 0xf
 3230 00b1 2E       		.uleb128 0x2e
 3231 00b2 00       		.byte	0
 3232 00b3 3F       		.uleb128 0x3f
 3233 00b4 0C       		.uleb128 0xc
 3234 00b5 03       		.uleb128 0x3
 3235 00b6 0E       		.uleb128 0xe
 3236 00b7 3A       		.uleb128 0x3a
 3237 00b8 0B       		.uleb128 0xb
 3238 00b9 3B       		.uleb128 0x3b
 3239 00ba 0B       		.uleb128 0xb
 3240 00bb 27       		.uleb128 0x27
 3241 00bc 0C       		.uleb128 0xc
 3242 00bd 11       		.uleb128 0x11
 3243 00be 01       		.uleb128 0x1
 3244 00bf 12       		.uleb128 0x12
 3245 00c0 01       		.uleb128 0x1
 3246 00c1 40       		.uleb128 0x40
 3247 00c2 0A       		.uleb128 0xa
 3248 00c3 9742     		.uleb128 0x2117
 3249 00c5 0C       		.uleb128 0xc
 3250 00c6 00       		.byte	0
 3251 00c7 00       		.byte	0
 3252 00c8 10       		.uleb128 0x10
 3253 00c9 2E       		.uleb128 0x2e
 3254 00ca 01       		.byte	0x1
 3255 00cb 3F       		.uleb128 0x3f
 3256 00cc 0C       		.uleb128 0xc
 3257 00cd 03       		.uleb128 0x3
 3258 00ce 0E       		.uleb128 0xe
 3259 00cf 3A       		.uleb128 0x3a
 3260 00d0 0B       		.uleb128 0xb
 3261 00d1 3B       		.uleb128 0x3b
 3262 00d2 0B       		.uleb128 0xb
 3263 00d3 27       		.uleb128 0x27
ARM GAS  C:\Users\Doles\AppData\Local\Temp\ccw5cB6c.s 			page 87


 3264 00d4 0C       		.uleb128 0xc
 3265 00d5 11       		.uleb128 0x11
 3266 00d6 01       		.uleb128 0x1
 3267 00d7 12       		.uleb128 0x12
 3268 00d8 01       		.uleb128 0x1
 3269 00d9 40       		.uleb128 0x40
 3270 00da 0A       		.uleb128 0xa
 3271 00db 9742     		.uleb128 0x2117
 3272 00dd 0C       		.uleb128 0xc
 3273 00de 01       		.uleb128 0x1
 3274 00df 13       		.uleb128 0x13
 3275 00e0 00       		.byte	0
 3276 00e1 00       		.byte	0
 3277 00e2 11       		.uleb128 0x11
 3278 00e3 05       		.uleb128 0x5
 3279 00e4 00       		.byte	0
 3280 00e5 03       		.uleb128 0x3
 3281 00e6 0E       		.uleb128 0xe
 3282 00e7 3A       		.uleb128 0x3a
 3283 00e8 0B       		.uleb128 0xb
 3284 00e9 3B       		.uleb128 0x3b
 3285 00ea 0B       		.uleb128 0xb
 3286 00eb 49       		.uleb128 0x49
 3287 00ec 13       		.uleb128 0x13
 3288 00ed 02       		.uleb128 0x2
 3289 00ee 0A       		.uleb128 0xa
 3290 00ef 00       		.byte	0
 3291 00f0 00       		.byte	0
 3292 00f1 12       		.uleb128 0x12
 3293 00f2 2E       		.uleb128 0x2e
 3294 00f3 01       		.byte	0x1
 3295 00f4 3F       		.uleb128 0x3f
 3296 00f5 0C       		.uleb128 0xc
 3297 00f6 03       		.uleb128 0x3
 3298 00f7 0E       		.uleb128 0xe
 3299 00f8 3A       		.uleb128 0x3a
 3300 00f9 0B       		.uleb128 0xb
 3301 00fa 3B       		.uleb128 0x3b
 3302 00fb 05       		.uleb128 0x5
 3303 00fc 27       		.uleb128 0x27
 3304 00fd 0C       		.uleb128 0xc
 3305 00fe 11       		.uleb128 0x11
 3306 00ff 01       		.uleb128 0x1
 3307 0100 12       		.uleb128 0x12
 3308 0101 01       		.uleb128 0x1
 3309 0102 40       		.uleb128 0x40
 3310 0103 0A       		.uleb128 0xa
 3311 0104 9742     		.uleb128 0x2117
 3312 0106 0C       		.uleb128 0xc
 3313 0107 01       		.uleb128 0x1
 3314 0108 13       		.uleb128 0x13
 3315 0109 00       		.byte	0
 3316 010a 00       		.byte	0
 3317 010b 13       		.uleb128 0x13
 3318 010c 05       		.uleb128 0x5
 3319 010d 00       		.byte	0
 3320 010e 03       		.uleb128 0x3
ARM GAS  C:\Users\Doles\AppData\Local\Temp\ccw5cB6c.s 			page 88


 3321 010f 0E       		.uleb128 0xe
 3322 0110 3A       		.uleb128 0x3a
 3323 0111 0B       		.uleb128 0xb
 3324 0112 3B       		.uleb128 0x3b
 3325 0113 05       		.uleb128 0x5
 3326 0114 49       		.uleb128 0x49
 3327 0115 13       		.uleb128 0x13
 3328 0116 02       		.uleb128 0x2
 3329 0117 06       		.uleb128 0x6
 3330 0118 00       		.byte	0
 3331 0119 00       		.byte	0
 3332 011a 14       		.uleb128 0x14
 3333 011b 34       		.uleb128 0x34
 3334 011c 00       		.byte	0
 3335 011d 03       		.uleb128 0x3
 3336 011e 0E       		.uleb128 0xe
 3337 011f 3A       		.uleb128 0x3a
 3338 0120 0B       		.uleb128 0xb
 3339 0121 3B       		.uleb128 0x3b
 3340 0122 05       		.uleb128 0x5
 3341 0123 49       		.uleb128 0x49
 3342 0124 13       		.uleb128 0x13
 3343 0125 02       		.uleb128 0x2
 3344 0126 06       		.uleb128 0x6
 3345 0127 00       		.byte	0
 3346 0128 00       		.byte	0
 3347 0129 15       		.uleb128 0x15
 3348 012a 05       		.uleb128 0x5
 3349 012b 00       		.byte	0
 3350 012c 03       		.uleb128 0x3
 3351 012d 0E       		.uleb128 0xe
 3352 012e 3A       		.uleb128 0x3a
 3353 012f 0B       		.uleb128 0xb
 3354 0130 3B       		.uleb128 0x3b
 3355 0131 05       		.uleb128 0x5
 3356 0132 49       		.uleb128 0x49
 3357 0133 13       		.uleb128 0x13
 3358 0134 02       		.uleb128 0x2
 3359 0135 0A       		.uleb128 0xa
 3360 0136 00       		.byte	0
 3361 0137 00       		.byte	0
 3362 0138 16       		.uleb128 0x16
 3363 0139 2E       		.uleb128 0x2e
 3364 013a 01       		.byte	0x1
 3365 013b 3F       		.uleb128 0x3f
 3366 013c 0C       		.uleb128 0xc
 3367 013d 03       		.uleb128 0x3
 3368 013e 0E       		.uleb128 0xe
 3369 013f 3A       		.uleb128 0x3a
 3370 0140 0B       		.uleb128 0xb
 3371 0141 3B       		.uleb128 0x3b
 3372 0142 05       		.uleb128 0x5
 3373 0143 27       		.uleb128 0x27
 3374 0144 0C       		.uleb128 0xc
 3375 0145 11       		.uleb128 0x11
 3376 0146 01       		.uleb128 0x1
 3377 0147 12       		.uleb128 0x12
ARM GAS  C:\Users\Doles\AppData\Local\Temp\ccw5cB6c.s 			page 89


 3378 0148 01       		.uleb128 0x1
 3379 0149 40       		.uleb128 0x40
 3380 014a 06       		.uleb128 0x6
 3381 014b 9742     		.uleb128 0x2117
 3382 014d 0C       		.uleb128 0xc
 3383 014e 01       		.uleb128 0x1
 3384 014f 13       		.uleb128 0x13
 3385 0150 00       		.byte	0
 3386 0151 00       		.byte	0
 3387 0152 17       		.uleb128 0x17
 3388 0153 2E       		.uleb128 0x2e
 3389 0154 00       		.byte	0
 3390 0155 3F       		.uleb128 0x3f
 3391 0156 0C       		.uleb128 0xc
 3392 0157 03       		.uleb128 0x3
 3393 0158 0E       		.uleb128 0xe
 3394 0159 3A       		.uleb128 0x3a
 3395 015a 0B       		.uleb128 0xb
 3396 015b 3B       		.uleb128 0x3b
 3397 015c 05       		.uleb128 0x5
 3398 015d 27       		.uleb128 0x27
 3399 015e 0C       		.uleb128 0xc
 3400 015f 49       		.uleb128 0x49
 3401 0160 13       		.uleb128 0x13
 3402 0161 11       		.uleb128 0x11
 3403 0162 01       		.uleb128 0x1
 3404 0163 12       		.uleb128 0x12
 3405 0164 01       		.uleb128 0x1
 3406 0165 40       		.uleb128 0x40
 3407 0166 0A       		.uleb128 0xa
 3408 0167 9742     		.uleb128 0x2117
 3409 0169 0C       		.uleb128 0xc
 3410 016a 00       		.byte	0
 3411 016b 00       		.byte	0
 3412 016c 18       		.uleb128 0x18
 3413 016d 2E       		.uleb128 0x2e
 3414 016e 01       		.byte	0x1
 3415 016f 3F       		.uleb128 0x3f
 3416 0170 0C       		.uleb128 0xc
 3417 0171 03       		.uleb128 0x3
 3418 0172 0E       		.uleb128 0xe
 3419 0173 3A       		.uleb128 0x3a
 3420 0174 0B       		.uleb128 0xb
 3421 0175 3B       		.uleb128 0x3b
 3422 0176 05       		.uleb128 0x5
 3423 0177 27       		.uleb128 0x27
 3424 0178 0C       		.uleb128 0xc
 3425 0179 11       		.uleb128 0x11
 3426 017a 01       		.uleb128 0x1
 3427 017b 12       		.uleb128 0x12
 3428 017c 01       		.uleb128 0x1
 3429 017d 40       		.uleb128 0x40
 3430 017e 06       		.uleb128 0x6
 3431 017f 9642     		.uleb128 0x2116
 3432 0181 0C       		.uleb128 0xc
 3433 0182 01       		.uleb128 0x1
 3434 0183 13       		.uleb128 0x13
ARM GAS  C:\Users\Doles\AppData\Local\Temp\ccw5cB6c.s 			page 90


 3435 0184 00       		.byte	0
 3436 0185 00       		.byte	0
 3437 0186 19       		.uleb128 0x19
 3438 0187 34       		.uleb128 0x34
 3439 0188 00       		.byte	0
 3440 0189 03       		.uleb128 0x3
 3441 018a 08       		.uleb128 0x8
 3442 018b 3A       		.uleb128 0x3a
 3443 018c 0B       		.uleb128 0xb
 3444 018d 3B       		.uleb128 0x3b
 3445 018e 05       		.uleb128 0x5
 3446 018f 49       		.uleb128 0x49
 3447 0190 13       		.uleb128 0x13
 3448 0191 02       		.uleb128 0x2
 3449 0192 06       		.uleb128 0x6
 3450 0193 00       		.byte	0
 3451 0194 00       		.byte	0
 3452 0195 1A       		.uleb128 0x1a
 3453 0196 0F       		.uleb128 0xf
 3454 0197 00       		.byte	0
 3455 0198 0B       		.uleb128 0xb
 3456 0199 0B       		.uleb128 0xb
 3457 019a 49       		.uleb128 0x49
 3458 019b 13       		.uleb128 0x13
 3459 019c 00       		.byte	0
 3460 019d 00       		.byte	0
 3461 019e 1B       		.uleb128 0x1b
 3462 019f 2E       		.uleb128 0x2e
 3463 01a0 01       		.byte	0x1
 3464 01a1 3F       		.uleb128 0x3f
 3465 01a2 0C       		.uleb128 0xc
 3466 01a3 03       		.uleb128 0x3
 3467 01a4 0E       		.uleb128 0xe
 3468 01a5 3A       		.uleb128 0x3a
 3469 01a6 0B       		.uleb128 0xb
 3470 01a7 3B       		.uleb128 0x3b
 3471 01a8 05       		.uleb128 0x5
 3472 01a9 27       		.uleb128 0x27
 3473 01aa 0C       		.uleb128 0xc
 3474 01ab 49       		.uleb128 0x49
 3475 01ac 13       		.uleb128 0x13
 3476 01ad 11       		.uleb128 0x11
 3477 01ae 01       		.uleb128 0x1
 3478 01af 12       		.uleb128 0x12
 3479 01b0 01       		.uleb128 0x1
 3480 01b1 40       		.uleb128 0x40
 3481 01b2 0A       		.uleb128 0xa
 3482 01b3 9742     		.uleb128 0x2117
 3483 01b5 0C       		.uleb128 0xc
 3484 01b6 01       		.uleb128 0x1
 3485 01b7 13       		.uleb128 0x13
 3486 01b8 00       		.byte	0
 3487 01b9 00       		.byte	0
 3488 01ba 1C       		.uleb128 0x1c
 3489 01bb 2E       		.uleb128 0x2e
 3490 01bc 01       		.byte	0x1
 3491 01bd 3F       		.uleb128 0x3f
ARM GAS  C:\Users\Doles\AppData\Local\Temp\ccw5cB6c.s 			page 91


 3492 01be 0C       		.uleb128 0xc
 3493 01bf 03       		.uleb128 0x3
 3494 01c0 0E       		.uleb128 0xe
 3495 01c1 3A       		.uleb128 0x3a
 3496 01c2 0B       		.uleb128 0xb
 3497 01c3 3B       		.uleb128 0x3b
 3498 01c4 0B       		.uleb128 0xb
 3499 01c5 27       		.uleb128 0x27
 3500 01c6 0C       		.uleb128 0xc
 3501 01c7 49       		.uleb128 0x49
 3502 01c8 13       		.uleb128 0x13
 3503 01c9 11       		.uleb128 0x11
 3504 01ca 01       		.uleb128 0x1
 3505 01cb 12       		.uleb128 0x12
 3506 01cc 01       		.uleb128 0x1
 3507 01cd 40       		.uleb128 0x40
 3508 01ce 06       		.uleb128 0x6
 3509 01cf 9742     		.uleb128 0x2117
 3510 01d1 0C       		.uleb128 0xc
 3511 01d2 01       		.uleb128 0x1
 3512 01d3 13       		.uleb128 0x13
 3513 01d4 00       		.byte	0
 3514 01d5 00       		.byte	0
 3515 01d6 1D       		.uleb128 0x1d
 3516 01d7 34       		.uleb128 0x34
 3517 01d8 00       		.byte	0
 3518 01d9 03       		.uleb128 0x3
 3519 01da 0E       		.uleb128 0xe
 3520 01db 3A       		.uleb128 0x3a
 3521 01dc 0B       		.uleb128 0xb
 3522 01dd 3B       		.uleb128 0x3b
 3523 01de 0B       		.uleb128 0xb
 3524 01df 49       		.uleb128 0x49
 3525 01e0 13       		.uleb128 0x13
 3526 01e1 02       		.uleb128 0x2
 3527 01e2 0A       		.uleb128 0xa
 3528 01e3 00       		.byte	0
 3529 01e4 00       		.byte	0
 3530 01e5 1E       		.uleb128 0x1e
 3531 01e6 34       		.uleb128 0x34
 3532 01e7 00       		.byte	0
 3533 01e8 03       		.uleb128 0x3
 3534 01e9 0E       		.uleb128 0xe
 3535 01ea 3A       		.uleb128 0x3a
 3536 01eb 0B       		.uleb128 0xb
 3537 01ec 3B       		.uleb128 0x3b
 3538 01ed 0B       		.uleb128 0xb
 3539 01ee 49       		.uleb128 0x49
 3540 01ef 13       		.uleb128 0x13
 3541 01f0 02       		.uleb128 0x2
 3542 01f1 06       		.uleb128 0x6
 3543 01f2 00       		.byte	0
 3544 01f3 00       		.byte	0
 3545 01f4 1F       		.uleb128 0x1f
 3546 01f5 898201   		.uleb128 0x4109
 3547 01f8 01       		.byte	0x1
 3548 01f9 11       		.uleb128 0x11
ARM GAS  C:\Users\Doles\AppData\Local\Temp\ccw5cB6c.s 			page 92


 3549 01fa 01       		.uleb128 0x1
 3550 01fb 31       		.uleb128 0x31
 3551 01fc 13       		.uleb128 0x13
 3552 01fd 01       		.uleb128 0x1
 3553 01fe 13       		.uleb128 0x13
 3554 01ff 00       		.byte	0
 3555 0200 00       		.byte	0
 3556 0201 20       		.uleb128 0x20
 3557 0202 8A8201   		.uleb128 0x410a
 3558 0205 00       		.byte	0
 3559 0206 02       		.uleb128 0x2
 3560 0207 0A       		.uleb128 0xa
 3561 0208 9142     		.uleb128 0x2111
 3562 020a 0A       		.uleb128 0xa
 3563 020b 00       		.byte	0
 3564 020c 00       		.byte	0
 3565 020d 21       		.uleb128 0x21
 3566 020e 898201   		.uleb128 0x4109
 3567 0211 01       		.byte	0x1
 3568 0212 11       		.uleb128 0x11
 3569 0213 01       		.uleb128 0x1
 3570 0214 31       		.uleb128 0x31
 3571 0215 13       		.uleb128 0x13
 3572 0216 00       		.byte	0
 3573 0217 00       		.byte	0
 3574 0218 22       		.uleb128 0x22
 3575 0219 2E       		.uleb128 0x2e
 3576 021a 00       		.byte	0
 3577 021b 3F       		.uleb128 0x3f
 3578 021c 0C       		.uleb128 0xc
 3579 021d 03       		.uleb128 0x3
 3580 021e 0E       		.uleb128 0xe
 3581 021f 3A       		.uleb128 0x3a
 3582 0220 0B       		.uleb128 0xb
 3583 0221 3B       		.uleb128 0x3b
 3584 0222 05       		.uleb128 0x5
 3585 0223 27       		.uleb128 0x27
 3586 0224 0C       		.uleb128 0xc
 3587 0225 11       		.uleb128 0x11
 3588 0226 01       		.uleb128 0x1
 3589 0227 12       		.uleb128 0x12
 3590 0228 01       		.uleb128 0x1
 3591 0229 40       		.uleb128 0x40
 3592 022a 0A       		.uleb128 0xa
 3593 022b 9742     		.uleb128 0x2117
 3594 022d 0C       		.uleb128 0xc
 3595 022e 00       		.byte	0
 3596 022f 00       		.byte	0
 3597 0230 23       		.uleb128 0x23
 3598 0231 01       		.uleb128 0x1
 3599 0232 01       		.byte	0x1
 3600 0233 49       		.uleb128 0x49
 3601 0234 13       		.uleb128 0x13
 3602 0235 01       		.uleb128 0x1
 3603 0236 13       		.uleb128 0x13
 3604 0237 00       		.byte	0
 3605 0238 00       		.byte	0
ARM GAS  C:\Users\Doles\AppData\Local\Temp\ccw5cB6c.s 			page 93


 3606 0239 24       		.uleb128 0x24
 3607 023a 21       		.uleb128 0x21
 3608 023b 00       		.byte	0
 3609 023c 49       		.uleb128 0x49
 3610 023d 13       		.uleb128 0x13
 3611 023e 2F       		.uleb128 0x2f
 3612 023f 0B       		.uleb128 0xb
 3613 0240 00       		.byte	0
 3614 0241 00       		.byte	0
 3615 0242 25       		.uleb128 0x25
 3616 0243 26       		.uleb128 0x26
 3617 0244 00       		.byte	0
 3618 0245 49       		.uleb128 0x49
 3619 0246 13       		.uleb128 0x13
 3620 0247 00       		.byte	0
 3621 0248 00       		.byte	0
 3622 0249 00       		.byte	0
 3623              		.section	.debug_loc,"",%progbits
 3624              	.Ldebug_loc0:
 3625              	.LLST0:
 3626 0000 70000000 		.4byte	.LVL1-.Ltext0
 3627 0004 76000000 		.4byte	.LVL2-.Ltext0
 3628 0008 0100     		.2byte	0x1
 3629 000a 50       		.byte	0x50
 3630 000b 76000000 		.4byte	.LVL2-.Ltext0
 3631 000f 84000000 		.4byte	.LFE35-.Ltext0
 3632 0013 0400     		.2byte	0x4
 3633 0015 F3       		.byte	0xf3
 3634 0016 01       		.uleb128 0x1
 3635 0017 50       		.byte	0x50
 3636 0018 9F       		.byte	0x9f
 3637 0019 00000000 		.4byte	0
 3638 001d 00000000 		.4byte	0
 3639              	.LLST1:
 3640 0021 70000000 		.4byte	.LVL1-.Ltext0
 3641 0025 78000000 		.4byte	.LVL3-.Ltext0
 3642 0029 0200     		.2byte	0x2
 3643 002b 30       		.byte	0x30
 3644 002c 9F       		.byte	0x9f
 3645 002d 78000000 		.4byte	.LVL3-.Ltext0
 3646 0031 7C000000 		.4byte	.LVL5-.Ltext0
 3647 0035 0100     		.2byte	0x1
 3648 0037 53       		.byte	0x53
 3649 0038 7C000000 		.4byte	.LVL5-.Ltext0
 3650 003c 84000000 		.4byte	.LFE35-.Ltext0
 3651 0040 0100     		.2byte	0x1
 3652 0042 50       		.byte	0x50
 3653 0043 00000000 		.4byte	0
 3654 0047 00000000 		.4byte	0
 3655              	.LLST2:
 3656 004b 9C000000 		.4byte	.LVL7-.Ltext0
 3657 004f A2000000 		.4byte	.LVL8-.Ltext0
 3658 0053 0100     		.2byte	0x1
 3659 0055 50       		.byte	0x50
 3660 0056 A2000000 		.4byte	.LVL8-.Ltext0
 3661 005a B0000000 		.4byte	.LFE37-.Ltext0
 3662 005e 0400     		.2byte	0x4
ARM GAS  C:\Users\Doles\AppData\Local\Temp\ccw5cB6c.s 			page 94


 3663 0060 F3       		.byte	0xf3
 3664 0061 01       		.uleb128 0x1
 3665 0062 50       		.byte	0x50
 3666 0063 9F       		.byte	0x9f
 3667 0064 00000000 		.4byte	0
 3668 0068 00000000 		.4byte	0
 3669              	.LLST3:
 3670 006c 9C000000 		.4byte	.LVL7-.Ltext0
 3671 0070 A4000000 		.4byte	.LVL9-.Ltext0
 3672 0074 0200     		.2byte	0x2
 3673 0076 30       		.byte	0x30
 3674 0077 9F       		.byte	0x9f
 3675 0078 A4000000 		.4byte	.LVL9-.Ltext0
 3676 007c A8000000 		.4byte	.LVL11-.Ltext0
 3677 0080 0100     		.2byte	0x1
 3678 0082 53       		.byte	0x53
 3679 0083 A8000000 		.4byte	.LVL11-.Ltext0
 3680 0087 B0000000 		.4byte	.LFE37-.Ltext0
 3681 008b 0100     		.2byte	0x1
 3682 008d 50       		.byte	0x50
 3683 008e 00000000 		.4byte	0
 3684 0092 00000000 		.4byte	0
 3685              	.LLST4:
 3686 0096 E0000000 		.4byte	.LVL14-.Ltext0
 3687 009a F6000000 		.4byte	.LVL15-.Ltext0
 3688 009e 0100     		.2byte	0x1
 3689 00a0 50       		.byte	0x50
 3690 00a1 F6000000 		.4byte	.LVL15-.Ltext0
 3691 00a5 00010000 		.4byte	.LFE40-.Ltext0
 3692 00a9 0400     		.2byte	0x4
 3693 00ab F3       		.byte	0xf3
 3694 00ac 01       		.uleb128 0x1
 3695 00ad 50       		.byte	0x50
 3696 00ae 9F       		.byte	0x9f
 3697 00af 00000000 		.4byte	0
 3698 00b3 00000000 		.4byte	0
 3699              	.LLST5:
 3700 00b7 00010000 		.4byte	.LVL16-.Ltext0
 3701 00bb 0E010000 		.4byte	.LVL17-.Ltext0
 3702 00bf 0100     		.2byte	0x1
 3703 00c1 50       		.byte	0x50
 3704 00c2 0E010000 		.4byte	.LVL17-.Ltext0
 3705 00c6 18010000 		.4byte	.LFE41-.Ltext0
 3706 00ca 0400     		.2byte	0x4
 3707 00cc F3       		.byte	0xf3
 3708 00cd 01       		.uleb128 0x1
 3709 00ce 50       		.byte	0x50
 3710 00cf 9F       		.byte	0x9f
 3711 00d0 00000000 		.4byte	0
 3712 00d4 00000000 		.4byte	0
 3713              	.LLST6:
 3714 00d8 30010000 		.4byte	.LFB43-.Ltext0
 3715 00dc 34010000 		.4byte	.LCFI0-.Ltext0
 3716 00e0 0200     		.2byte	0x2
 3717 00e2 7D       		.byte	0x7d
 3718 00e3 00       		.sleb128 0
 3719 00e4 34010000 		.4byte	.LCFI0-.Ltext0
ARM GAS  C:\Users\Doles\AppData\Local\Temp\ccw5cB6c.s 			page 95


 3720 00e8 50010000 		.4byte	.LFE43-.Ltext0
 3721 00ec 0200     		.2byte	0x2
 3722 00ee 7D       		.byte	0x7d
 3723 00ef 08       		.sleb128 8
 3724 00f0 00000000 		.4byte	0
 3725 00f4 00000000 		.4byte	0
 3726              	.LLST7:
 3727 00f8 30010000 		.4byte	.LVL19-.Ltext0
 3728 00fc 42010000 		.4byte	.LVL21-.Ltext0
 3729 0100 0100     		.2byte	0x1
 3730 0102 50       		.byte	0x50
 3731 0103 42010000 		.4byte	.LVL21-.Ltext0
 3732 0107 50010000 		.4byte	.LFE43-.Ltext0
 3733 010b 0400     		.2byte	0x4
 3734 010d F3       		.byte	0xf3
 3735 010e 01       		.uleb128 0x1
 3736 010f 50       		.byte	0x50
 3737 0110 9F       		.byte	0x9f
 3738 0111 00000000 		.4byte	0
 3739 0115 00000000 		.4byte	0
 3740              	.LLST8:
 3741 0119 30010000 		.4byte	.LVL19-.Ltext0
 3742 011d 40010000 		.4byte	.LVL20-.Ltext0
 3743 0121 0100     		.2byte	0x1
 3744 0123 51       		.byte	0x51
 3745 0124 40010000 		.4byte	.LVL20-.Ltext0
 3746 0128 50010000 		.4byte	.LFE43-.Ltext0
 3747 012c 0400     		.2byte	0x4
 3748 012e F3       		.byte	0xf3
 3749 012f 01       		.uleb128 0x1
 3750 0130 51       		.byte	0x51
 3751 0131 9F       		.byte	0x9f
 3752 0132 00000000 		.4byte	0
 3753 0136 00000000 		.4byte	0
 3754              	.LLST9:
 3755 013a 74010000 		.4byte	.LVL23-.Ltext0
 3756 013e 7E010000 		.4byte	.LVL26-.Ltext0
 3757 0142 0100     		.2byte	0x1
 3758 0144 50       		.byte	0x50
 3759 0145 7E010000 		.4byte	.LVL26-.Ltext0
 3760 0149 88010000 		.4byte	.LFE45-.Ltext0
 3761 014d 0400     		.2byte	0x4
 3762 014f F3       		.byte	0xf3
 3763 0150 01       		.uleb128 0x1
 3764 0151 50       		.byte	0x50
 3765 0152 9F       		.byte	0x9f
 3766 0153 00000000 		.4byte	0
 3767 0157 00000000 		.4byte	0
 3768              	.LLST10:
 3769 015b 74010000 		.4byte	.LVL23-.Ltext0
 3770 015f 7A010000 		.4byte	.LVL24-.Ltext0
 3771 0163 0200     		.2byte	0x2
 3772 0165 30       		.byte	0x30
 3773 0166 9F       		.byte	0x9f
 3774 0167 7A010000 		.4byte	.LVL24-.Ltext0
 3775 016b 7E010000 		.4byte	.LVL26-.Ltext0
 3776 016f 0100     		.2byte	0x1
ARM GAS  C:\Users\Doles\AppData\Local\Temp\ccw5cB6c.s 			page 96


 3777 0171 53       		.byte	0x53
 3778 0172 7E010000 		.4byte	.LVL26-.Ltext0
 3779 0176 88010000 		.4byte	.LFE45-.Ltext0
 3780 017a 0100     		.2byte	0x1
 3781 017c 50       		.byte	0x50
 3782 017d 00000000 		.4byte	0
 3783 0181 00000000 		.4byte	0
 3784              	.LLST11:
 3785 0185 B8010000 		.4byte	.LVL29-.Ltext0
 3786 0189 C2010000 		.4byte	.LVL32-.Ltext0
 3787 018d 0100     		.2byte	0x1
 3788 018f 50       		.byte	0x50
 3789 0190 C2010000 		.4byte	.LVL32-.Ltext0
 3790 0194 CC010000 		.4byte	.LFE48-.Ltext0
 3791 0198 0400     		.2byte	0x4
 3792 019a F3       		.byte	0xf3
 3793 019b 01       		.uleb128 0x1
 3794 019c 50       		.byte	0x50
 3795 019d 9F       		.byte	0x9f
 3796 019e 00000000 		.4byte	0
 3797 01a2 00000000 		.4byte	0
 3798              	.LLST12:
 3799 01a6 B8010000 		.4byte	.LVL29-.Ltext0
 3800 01aa BE010000 		.4byte	.LVL30-.Ltext0
 3801 01ae 0200     		.2byte	0x2
 3802 01b0 30       		.byte	0x30
 3803 01b1 9F       		.byte	0x9f
 3804 01b2 BE010000 		.4byte	.LVL30-.Ltext0
 3805 01b6 C2010000 		.4byte	.LVL32-.Ltext0
 3806 01ba 0100     		.2byte	0x1
 3807 01bc 53       		.byte	0x53
 3808 01bd C2010000 		.4byte	.LVL32-.Ltext0
 3809 01c1 CC010000 		.4byte	.LFE48-.Ltext0
 3810 01c5 0100     		.2byte	0x1
 3811 01c7 50       		.byte	0x50
 3812 01c8 00000000 		.4byte	0
 3813 01cc 00000000 		.4byte	0
 3814              	.LLST13:
 3815 01d0 DC010000 		.4byte	.LVL33-.Ltext0
 3816 01d4 E6010000 		.4byte	.LVL36-.Ltext0
 3817 01d8 0100     		.2byte	0x1
 3818 01da 50       		.byte	0x50
 3819 01db E6010000 		.4byte	.LVL36-.Ltext0
 3820 01df F0010000 		.4byte	.LFE50-.Ltext0
 3821 01e3 0400     		.2byte	0x4
 3822 01e5 F3       		.byte	0xf3
 3823 01e6 01       		.uleb128 0x1
 3824 01e7 50       		.byte	0x50
 3825 01e8 9F       		.byte	0x9f
 3826 01e9 00000000 		.4byte	0
 3827 01ed 00000000 		.4byte	0
 3828              	.LLST14:
 3829 01f1 DC010000 		.4byte	.LVL33-.Ltext0
 3830 01f5 E2010000 		.4byte	.LVL34-.Ltext0
 3831 01f9 0200     		.2byte	0x2
 3832 01fb 30       		.byte	0x30
 3833 01fc 9F       		.byte	0x9f
ARM GAS  C:\Users\Doles\AppData\Local\Temp\ccw5cB6c.s 			page 97


 3834 01fd E2010000 		.4byte	.LVL34-.Ltext0
 3835 0201 E6010000 		.4byte	.LVL36-.Ltext0
 3836 0205 0100     		.2byte	0x1
 3837 0207 53       		.byte	0x53
 3838 0208 E6010000 		.4byte	.LVL36-.Ltext0
 3839 020c F0010000 		.4byte	.LFE50-.Ltext0
 3840 0210 0100     		.2byte	0x1
 3841 0212 50       		.byte	0x50
 3842 0213 00000000 		.4byte	0
 3843 0217 00000000 		.4byte	0
 3844              	.LLST15:
 3845 021b F0010000 		.4byte	.LVL37-.Ltext0
 3846 021f FA010000 		.4byte	.LVL40-.Ltext0
 3847 0223 0100     		.2byte	0x1
 3848 0225 50       		.byte	0x50
 3849 0226 FA010000 		.4byte	.LVL40-.Ltext0
 3850 022a 08020000 		.4byte	.LFE51-.Ltext0
 3851 022e 0400     		.2byte	0x4
 3852 0230 F3       		.byte	0xf3
 3853 0231 01       		.uleb128 0x1
 3854 0232 50       		.byte	0x50
 3855 0233 9F       		.byte	0x9f
 3856 0234 00000000 		.4byte	0
 3857 0238 00000000 		.4byte	0
 3858              	.LLST16:
 3859 023c F0010000 		.4byte	.LVL37-.Ltext0
 3860 0240 F6010000 		.4byte	.LVL38-.Ltext0
 3861 0244 0200     		.2byte	0x2
 3862 0246 30       		.byte	0x30
 3863 0247 9F       		.byte	0x9f
 3864 0248 F6010000 		.4byte	.LVL38-.Ltext0
 3865 024c F8010000 		.4byte	.LVL39-.Ltext0
 3866 0250 0100     		.2byte	0x1
 3867 0252 51       		.byte	0x51
 3868 0253 F8010000 		.4byte	.LVL39-.Ltext0
 3869 0257 FA010000 		.4byte	.LVL40-.Ltext0
 3870 025b 0100     		.2byte	0x1
 3871 025d 53       		.byte	0x53
 3872 025e FA010000 		.4byte	.LVL40-.Ltext0
 3873 0262 08020000 		.4byte	.LFE51-.Ltext0
 3874 0266 0100     		.2byte	0x1
 3875 0268 50       		.byte	0x50
 3876 0269 00000000 		.4byte	0
 3877 026d 00000000 		.4byte	0
 3878              	.LLST17:
 3879 0271 08020000 		.4byte	.LVL41-.Ltext0
 3880 0275 20020000 		.4byte	.LVL42-.Ltext0
 3881 0279 0100     		.2byte	0x1
 3882 027b 50       		.byte	0x50
 3883 027c 20020000 		.4byte	.LVL42-.Ltext0
 3884 0280 38020000 		.4byte	.LFE52-.Ltext0
 3885 0284 0400     		.2byte	0x4
 3886 0286 F3       		.byte	0xf3
 3887 0287 01       		.uleb128 0x1
 3888 0288 50       		.byte	0x50
 3889 0289 9F       		.byte	0x9f
 3890 028a 00000000 		.4byte	0
ARM GAS  C:\Users\Doles\AppData\Local\Temp\ccw5cB6c.s 			page 98


 3891 028e 00000000 		.4byte	0
 3892              	.LLST18:
 3893 0292 38020000 		.4byte	.LVL43-.Ltext0
 3894 0296 46020000 		.4byte	.LVL44-.Ltext0
 3895 029a 0100     		.2byte	0x1
 3896 029c 50       		.byte	0x50
 3897 029d 46020000 		.4byte	.LVL44-.Ltext0
 3898 02a1 50020000 		.4byte	.LFE53-.Ltext0
 3899 02a5 0400     		.2byte	0x4
 3900 02a7 F3       		.byte	0xf3
 3901 02a8 01       		.uleb128 0x1
 3902 02a9 50       		.byte	0x50
 3903 02aa 9F       		.byte	0x9f
 3904 02ab 00000000 		.4byte	0
 3905 02af 00000000 		.4byte	0
 3906              	.LLST19:
 3907 02b3 50020000 		.4byte	.LVL45-.Ltext0
 3908 02b7 5E020000 		.4byte	.LVL46-.Ltext0
 3909 02bb 0100     		.2byte	0x1
 3910 02bd 50       		.byte	0x50
 3911 02be 5E020000 		.4byte	.LVL46-.Ltext0
 3912 02c2 68020000 		.4byte	.LFE54-.Ltext0
 3913 02c6 0400     		.2byte	0x4
 3914 02c8 F3       		.byte	0xf3
 3915 02c9 01       		.uleb128 0x1
 3916 02ca 50       		.byte	0x50
 3917 02cb 9F       		.byte	0x9f
 3918 02cc 00000000 		.4byte	0
 3919 02d0 00000000 		.4byte	0
 3920              	.LLST20:
 3921 02d4 68020000 		.4byte	.LVL47-.Ltext0
 3922 02d8 76020000 		.4byte	.LVL48-.Ltext0
 3923 02dc 0100     		.2byte	0x1
 3924 02de 50       		.byte	0x50
 3925 02df 76020000 		.4byte	.LVL48-.Ltext0
 3926 02e3 80020000 		.4byte	.LFE55-.Ltext0
 3927 02e7 0400     		.2byte	0x4
 3928 02e9 F3       		.byte	0xf3
 3929 02ea 01       		.uleb128 0x1
 3930 02eb 50       		.byte	0x50
 3931 02ec 9F       		.byte	0x9f
 3932 02ed 00000000 		.4byte	0
 3933 02f1 00000000 		.4byte	0
 3934              	.LLST21:
 3935 02f5 80020000 		.4byte	.LFB56-.Ltext0
 3936 02f9 84020000 		.4byte	.LCFI1-.Ltext0
 3937 02fd 0200     		.2byte	0x2
 3938 02ff 7D       		.byte	0x7d
 3939 0300 00       		.sleb128 0
 3940 0301 84020000 		.4byte	.LCFI1-.Ltext0
 3941 0305 60030000 		.4byte	.LFE56-.Ltext0
 3942 0309 0200     		.2byte	0x2
 3943 030b 7D       		.byte	0x7d
 3944 030c 10       		.sleb128 16
 3945 030d 00000000 		.4byte	0
 3946 0311 00000000 		.4byte	0
 3947              	.LLST22:
ARM GAS  C:\Users\Doles\AppData\Local\Temp\ccw5cB6c.s 			page 99


 3948 0315 80020000 		.4byte	.LVL49-.Ltext0
 3949 0319 AA020000 		.4byte	.LVL59-.Ltext0
 3950 031d 0100     		.2byte	0x1
 3951 031f 50       		.byte	0x50
 3952 0320 AA020000 		.4byte	.LVL59-.Ltext0
 3953 0324 AC020000 		.4byte	.LVL60-.Ltext0
 3954 0328 0100     		.2byte	0x1
 3955 032a 54       		.byte	0x54
 3956 032b AC020000 		.4byte	.LVL60-.Ltext0
 3957 032f B2020000 		.4byte	.LVL62-.Ltext0
 3958 0333 0100     		.2byte	0x1
 3959 0335 50       		.byte	0x50
 3960 0336 B2020000 		.4byte	.LVL62-.Ltext0
 3961 033a 46030000 		.4byte	.LVL73-.Ltext0
 3962 033e 0100     		.2byte	0x1
 3963 0340 54       		.byte	0x54
 3964 0341 46030000 		.4byte	.LVL73-.Ltext0
 3965 0345 60030000 		.4byte	.LFE56-.Ltext0
 3966 0349 0400     		.2byte	0x4
 3967 034b F3       		.byte	0xf3
 3968 034c 01       		.uleb128 0x1
 3969 034d 50       		.byte	0x50
 3970 034e 9F       		.byte	0x9f
 3971 034f 00000000 		.4byte	0
 3972 0353 00000000 		.4byte	0
 3973              	.LLST23:
 3974 0357 80020000 		.4byte	.LVL49-.Ltext0
 3975 035b 8A020000 		.4byte	.LVL50-.Ltext0
 3976 035f 0200     		.2byte	0x2
 3977 0361 30       		.byte	0x30
 3978 0362 9F       		.byte	0x9f
 3979 0363 8A020000 		.4byte	.LVL50-.Ltext0
 3980 0367 8C020000 		.4byte	.LVL51-.Ltext0
 3981 036b 0500     		.2byte	0x5
 3982 036d 72       		.byte	0x72
 3983 036e 00       		.sleb128 0
 3984 036f 3C       		.byte	0x3c
 3985 0370 1A       		.byte	0x1a
 3986 0371 9F       		.byte	0x9f
 3987 0372 8C020000 		.4byte	.LVL51-.Ltext0
 3988 0376 96020000 		.4byte	.LVL52-.Ltext0
 3989 037a 0100     		.2byte	0x1
 3990 037c 53       		.byte	0x53
 3991 037d 96020000 		.4byte	.LVL52-.Ltext0
 3992 0381 9A020000 		.4byte	.LVL53-.Ltext0
 3993 0385 0500     		.2byte	0x5
 3994 0387 72       		.byte	0x72
 3995 0388 00       		.sleb128 0
 3996 0389 3C       		.byte	0x3c
 3997 038a 1A       		.byte	0x1a
 3998 038b 9F       		.byte	0x9f
 3999 038c 9A020000 		.4byte	.LVL53-.Ltext0
 4000 0390 9E020000 		.4byte	.LVL55-.Ltext0
 4001 0394 0100     		.2byte	0x1
 4002 0396 53       		.byte	0x53
 4003 0397 9E020000 		.4byte	.LVL55-.Ltext0
 4004 039b B9020000 		.4byte	.LVL65-1-.Ltext0
ARM GAS  C:\Users\Doles\AppData\Local\Temp\ccw5cB6c.s 			page 100


 4005 039f 0500     		.2byte	0x5
 4006 03a1 72       		.byte	0x72
 4007 03a2 00       		.sleb128 0
 4008 03a3 3C       		.byte	0x3c
 4009 03a4 1A       		.byte	0x1a
 4010 03a5 9F       		.byte	0x9f
 4011 03a6 CA020000 		.4byte	.LVL67-.Ltext0
 4012 03aa CC020000 		.4byte	.LVL68-.Ltext0
 4013 03ae 0100     		.2byte	0x1
 4014 03b0 53       		.byte	0x53
 4015 03b1 D8020000 		.4byte	.LVL70-.Ltext0
 4016 03b5 DA020000 		.4byte	.LVL71-.Ltext0
 4017 03b9 0100     		.2byte	0x1
 4018 03bb 52       		.byte	0x52
 4019 03bc 00000000 		.4byte	0
 4020 03c0 00000000 		.4byte	0
 4021              	.LLST24:
 4022 03c4 80020000 		.4byte	.LVL49-.Ltext0
 4023 03c8 9C020000 		.4byte	.LVL54-.Ltext0
 4024 03cc 0200     		.2byte	0x2
 4025 03ce 30       		.byte	0x30
 4026 03cf 9F       		.byte	0x9f
 4027 03d0 9C020000 		.4byte	.LVL54-.Ltext0
 4028 03d4 A0020000 		.4byte	.LVL56-.Ltext0
 4029 03d8 0700     		.2byte	0x7
 4030 03da 76       		.byte	0x76
 4031 03db 00       		.sleb128 0
 4032 03dc 4E       		.byte	0x4e
 4033 03dd 41       		.byte	0x41
 4034 03de 24       		.byte	0x24
 4035 03df 1A       		.byte	0x1a
 4036 03e0 9F       		.byte	0x9f
 4037 03e1 A4020000 		.4byte	.LVL57-.Ltext0
 4038 03e5 BC020000 		.4byte	.LVL66-.Ltext0
 4039 03e9 0100     		.2byte	0x1
 4040 03eb 56       		.byte	0x56
 4041 03ec 00000000 		.4byte	0
 4042 03f0 00000000 		.4byte	0
 4043              	.LLST25:
 4044 03f4 80020000 		.4byte	.LVL49-.Ltext0
 4045 03f8 9E020000 		.4byte	.LVL55-.Ltext0
 4046 03fc 0200     		.2byte	0x2
 4047 03fe 30       		.byte	0x30
 4048 03ff 9F       		.byte	0x9f
 4049 0400 9E020000 		.4byte	.LVL55-.Ltext0
 4050 0404 A8020000 		.4byte	.LVL58-.Ltext0
 4051 0408 0700     		.2byte	0x7
 4052 040a 73       		.byte	0x73
 4053 040b 00       		.sleb128 0
 4054 040c 40       		.byte	0x40
 4055 040d 3C       		.byte	0x3c
 4056 040e 24       		.byte	0x24
 4057 040f 1A       		.byte	0x1a
 4058 0410 9F       		.byte	0x9f
 4059 0411 00000000 		.4byte	0
 4060 0415 00000000 		.4byte	0
 4061              	.LLST26:
ARM GAS  C:\Users\Doles\AppData\Local\Temp\ccw5cB6c.s 			page 101


 4062 0419 80020000 		.4byte	.LVL49-.Ltext0
 4063 041d B0020000 		.4byte	.LVL61-.Ltext0
 4064 0421 0200     		.2byte	0x2
 4065 0423 30       		.byte	0x30
 4066 0424 9F       		.byte	0x9f
 4067 0425 B0020000 		.4byte	.LVL61-.Ltext0
 4068 0429 B4020000 		.4byte	.LVL63-.Ltext0
 4069 042d 0700     		.2byte	0x7
 4070 042f 71       		.byte	0x71
 4071 0430 00       		.sleb128 0
 4072 0431 3F       		.byte	0x3f
 4073 0432 1A       		.byte	0x1a
 4074 0433 23       		.byte	0x23
 4075 0434 01       		.uleb128 0x1
 4076 0435 9F       		.byte	0x9f
 4077 0436 B6020000 		.4byte	.LVL64-.Ltext0
 4078 043a B9020000 		.4byte	.LVL65-1-.Ltext0
 4079 043e 0100     		.2byte	0x1
 4080 0440 51       		.byte	0x51
 4081 0441 00000000 		.4byte	0
 4082 0445 00000000 		.4byte	0
 4083              	.LLST27:
 4084 0449 80020000 		.4byte	.LVL49-.Ltext0
 4085 044d CC020000 		.4byte	.LVL68-.Ltext0
 4086 0451 0200     		.2byte	0x2
 4087 0453 30       		.byte	0x30
 4088 0454 9F       		.byte	0x9f
 4089 0455 CC020000 		.4byte	.LVL68-.Ltext0
 4090 0459 D0020000 		.4byte	.LVL69-.Ltext0
 4091 045d 0100     		.2byte	0x1
 4092 045f 53       		.byte	0x53
 4093 0460 DA020000 		.4byte	.LVL71-.Ltext0
 4094 0464 E0020000 		.4byte	.LVL72-.Ltext0
 4095 0468 0100     		.2byte	0x1
 4096 046a 52       		.byte	0x52
 4097 046b 00000000 		.4byte	0
 4098 046f 00000000 		.4byte	0
 4099              	.LLST28:
 4100 0473 60030000 		.4byte	.LVL74-.Ltext0
 4101 0477 66030000 		.4byte	.LVL75-.Ltext0
 4102 047b 0100     		.2byte	0x1
 4103 047d 50       		.byte	0x50
 4104 047e 66030000 		.4byte	.LVL75-.Ltext0
 4105 0482 70030000 		.4byte	.LFE57-.Ltext0
 4106 0486 0400     		.2byte	0x4
 4107 0488 F3       		.byte	0xf3
 4108 0489 01       		.uleb128 0x1
 4109 048a 50       		.byte	0x50
 4110 048b 9F       		.byte	0x9f
 4111 048c 00000000 		.4byte	0
 4112 0490 00000000 		.4byte	0
 4113              	.LLST29:
 4114 0494 B8030000 		.4byte	.LVL78-.Ltext0
 4115 0498 C2030000 		.4byte	.LVL79-.Ltext0
 4116 049c 0100     		.2byte	0x1
 4117 049e 50       		.byte	0x50
 4118 049f C2030000 		.4byte	.LVL79-.Ltext0
ARM GAS  C:\Users\Doles\AppData\Local\Temp\ccw5cB6c.s 			page 102


 4119 04a3 C6030000 		.4byte	.LVL80-.Ltext0
 4120 04a7 0400     		.2byte	0x4
 4121 04a9 F3       		.byte	0xf3
 4122 04aa 01       		.uleb128 0x1
 4123 04ab 50       		.byte	0x50
 4124 04ac 9F       		.byte	0x9f
 4125 04ad C6030000 		.4byte	.LVL80-.Ltext0
 4126 04b1 CA030000 		.4byte	.LVL81-.Ltext0
 4127 04b5 0100     		.2byte	0x1
 4128 04b7 50       		.byte	0x50
 4129 04b8 CA030000 		.4byte	.LVL81-.Ltext0
 4130 04bc D0030000 		.4byte	.LFE60-.Ltext0
 4131 04c0 0400     		.2byte	0x4
 4132 04c2 F3       		.byte	0xf3
 4133 04c3 01       		.uleb128 0x1
 4134 04c4 50       		.byte	0x50
 4135 04c5 9F       		.byte	0x9f
 4136 04c6 00000000 		.4byte	0
 4137 04ca 00000000 		.4byte	0
 4138              	.LLST30:
 4139 04ce D0030000 		.4byte	.LVL82-.Ltext0
 4140 04d2 DA030000 		.4byte	.LVL83-.Ltext0
 4141 04d6 0100     		.2byte	0x1
 4142 04d8 50       		.byte	0x50
 4143 04d9 DA030000 		.4byte	.LVL83-.Ltext0
 4144 04dd DE030000 		.4byte	.LVL84-.Ltext0
 4145 04e1 0400     		.2byte	0x4
 4146 04e3 F3       		.byte	0xf3
 4147 04e4 01       		.uleb128 0x1
 4148 04e5 50       		.byte	0x50
 4149 04e6 9F       		.byte	0x9f
 4150 04e7 DE030000 		.4byte	.LVL84-.Ltext0
 4151 04eb E2030000 		.4byte	.LVL85-.Ltext0
 4152 04ef 0100     		.2byte	0x1
 4153 04f1 50       		.byte	0x50
 4154 04f2 E2030000 		.4byte	.LVL85-.Ltext0
 4155 04f6 E8030000 		.4byte	.LFE61-.Ltext0
 4156 04fa 0400     		.2byte	0x4
 4157 04fc F3       		.byte	0xf3
 4158 04fd 01       		.uleb128 0x1
 4159 04fe 50       		.byte	0x50
 4160 04ff 9F       		.byte	0x9f
 4161 0500 00000000 		.4byte	0
 4162 0504 00000000 		.4byte	0
 4163              	.LLST31:
 4164 0508 E8030000 		.4byte	.LVL86-.Ltext0
 4165 050c F2030000 		.4byte	.LVL87-.Ltext0
 4166 0510 0100     		.2byte	0x1
 4167 0512 50       		.byte	0x50
 4168 0513 F2030000 		.4byte	.LVL87-.Ltext0
 4169 0517 F6030000 		.4byte	.LVL88-.Ltext0
 4170 051b 0400     		.2byte	0x4
 4171 051d F3       		.byte	0xf3
 4172 051e 01       		.uleb128 0x1
 4173 051f 50       		.byte	0x50
 4174 0520 9F       		.byte	0x9f
 4175 0521 F6030000 		.4byte	.LVL88-.Ltext0
ARM GAS  C:\Users\Doles\AppData\Local\Temp\ccw5cB6c.s 			page 103


 4176 0525 FA030000 		.4byte	.LVL89-.Ltext0
 4177 0529 0100     		.2byte	0x1
 4178 052b 50       		.byte	0x50
 4179 052c FA030000 		.4byte	.LVL89-.Ltext0
 4180 0530 00040000 		.4byte	.LFE62-.Ltext0
 4181 0534 0400     		.2byte	0x4
 4182 0536 F3       		.byte	0xf3
 4183 0537 01       		.uleb128 0x1
 4184 0538 50       		.byte	0x50
 4185 0539 9F       		.byte	0x9f
 4186 053a 00000000 		.4byte	0
 4187 053e 00000000 		.4byte	0
 4188              	.LLST32:
 4189 0542 00040000 		.4byte	.LVL90-.Ltext0
 4190 0546 0A040000 		.4byte	.LVL91-.Ltext0
 4191 054a 0100     		.2byte	0x1
 4192 054c 50       		.byte	0x50
 4193 054d 0A040000 		.4byte	.LVL91-.Ltext0
 4194 0551 0E040000 		.4byte	.LVL92-.Ltext0
 4195 0555 0400     		.2byte	0x4
 4196 0557 F3       		.byte	0xf3
 4197 0558 01       		.uleb128 0x1
 4198 0559 50       		.byte	0x50
 4199 055a 9F       		.byte	0x9f
 4200 055b 0E040000 		.4byte	.LVL92-.Ltext0
 4201 055f 12040000 		.4byte	.LVL93-.Ltext0
 4202 0563 0100     		.2byte	0x1
 4203 0565 50       		.byte	0x50
 4204 0566 12040000 		.4byte	.LVL93-.Ltext0
 4205 056a 18040000 		.4byte	.LFE63-.Ltext0
 4206 056e 0400     		.2byte	0x4
 4207 0570 F3       		.byte	0xf3
 4208 0571 01       		.uleb128 0x1
 4209 0572 50       		.byte	0x50
 4210 0573 9F       		.byte	0x9f
 4211 0574 00000000 		.4byte	0
 4212 0578 00000000 		.4byte	0
 4213              	.LLST33:
 4214 057c 18040000 		.4byte	.LVL94-.Ltext0
 4215 0580 22040000 		.4byte	.LVL95-.Ltext0
 4216 0584 0100     		.2byte	0x1
 4217 0586 50       		.byte	0x50
 4218 0587 22040000 		.4byte	.LVL95-.Ltext0
 4219 058b 26040000 		.4byte	.LVL96-.Ltext0
 4220 058f 0400     		.2byte	0x4
 4221 0591 F3       		.byte	0xf3
 4222 0592 01       		.uleb128 0x1
 4223 0593 50       		.byte	0x50
 4224 0594 9F       		.byte	0x9f
 4225 0595 26040000 		.4byte	.LVL96-.Ltext0
 4226 0599 2A040000 		.4byte	.LVL97-.Ltext0
 4227 059d 0100     		.2byte	0x1
 4228 059f 50       		.byte	0x50
 4229 05a0 2A040000 		.4byte	.LVL97-.Ltext0
 4230 05a4 30040000 		.4byte	.LFE64-.Ltext0
 4231 05a8 0400     		.2byte	0x4
 4232 05aa F3       		.byte	0xf3
ARM GAS  C:\Users\Doles\AppData\Local\Temp\ccw5cB6c.s 			page 104


 4233 05ab 01       		.uleb128 0x1
 4234 05ac 50       		.byte	0x50
 4235 05ad 9F       		.byte	0x9f
 4236 05ae 00000000 		.4byte	0
 4237 05b2 00000000 		.4byte	0
 4238              	.LLST34:
 4239 05b6 30040000 		.4byte	.LVL98-.Ltext0
 4240 05ba 3A040000 		.4byte	.LVL99-.Ltext0
 4241 05be 0100     		.2byte	0x1
 4242 05c0 50       		.byte	0x50
 4243 05c1 3A040000 		.4byte	.LVL99-.Ltext0
 4244 05c5 3E040000 		.4byte	.LVL100-.Ltext0
 4245 05c9 0400     		.2byte	0x4
 4246 05cb F3       		.byte	0xf3
 4247 05cc 01       		.uleb128 0x1
 4248 05cd 50       		.byte	0x50
 4249 05ce 9F       		.byte	0x9f
 4250 05cf 3E040000 		.4byte	.LVL100-.Ltext0
 4251 05d3 42040000 		.4byte	.LVL101-.Ltext0
 4252 05d7 0100     		.2byte	0x1
 4253 05d9 50       		.byte	0x50
 4254 05da 42040000 		.4byte	.LVL101-.Ltext0
 4255 05de 48040000 		.4byte	.LFE65-.Ltext0
 4256 05e2 0400     		.2byte	0x4
 4257 05e4 F3       		.byte	0xf3
 4258 05e5 01       		.uleb128 0x1
 4259 05e6 50       		.byte	0x50
 4260 05e7 9F       		.byte	0x9f
 4261 05e8 00000000 		.4byte	0
 4262 05ec 00000000 		.4byte	0
 4263              	.LLST35:
 4264 05f0 48040000 		.4byte	.LVL102-.Ltext0
 4265 05f4 52040000 		.4byte	.LVL103-.Ltext0
 4266 05f8 0100     		.2byte	0x1
 4267 05fa 50       		.byte	0x50
 4268 05fb 52040000 		.4byte	.LVL103-.Ltext0
 4269 05ff 56040000 		.4byte	.LVL104-.Ltext0
 4270 0603 0400     		.2byte	0x4
 4271 0605 F3       		.byte	0xf3
 4272 0606 01       		.uleb128 0x1
 4273 0607 50       		.byte	0x50
 4274 0608 9F       		.byte	0x9f
 4275 0609 56040000 		.4byte	.LVL104-.Ltext0
 4276 060d 5A040000 		.4byte	.LVL105-.Ltext0
 4277 0611 0100     		.2byte	0x1
 4278 0613 50       		.byte	0x50
 4279 0614 5A040000 		.4byte	.LVL105-.Ltext0
 4280 0618 60040000 		.4byte	.LFE66-.Ltext0
 4281 061c 0400     		.2byte	0x4
 4282 061e F3       		.byte	0xf3
 4283 061f 01       		.uleb128 0x1
 4284 0620 50       		.byte	0x50
 4285 0621 9F       		.byte	0x9f
 4286 0622 00000000 		.4byte	0
 4287 0626 00000000 		.4byte	0
 4288              	.LLST36:
 4289 062a 60040000 		.4byte	.LVL106-.Ltext0
ARM GAS  C:\Users\Doles\AppData\Local\Temp\ccw5cB6c.s 			page 105


 4290 062e 80040000 		.4byte	.LVL115-.Ltext0
 4291 0632 0100     		.2byte	0x1
 4292 0634 50       		.byte	0x50
 4293 0635 80040000 		.4byte	.LVL115-.Ltext0
 4294 0639 8C040000 		.4byte	.LFE67-.Ltext0
 4295 063d 0400     		.2byte	0x4
 4296 063f F3       		.byte	0xf3
 4297 0640 01       		.uleb128 0x1
 4298 0641 50       		.byte	0x50
 4299 0642 9F       		.byte	0x9f
 4300 0643 00000000 		.4byte	0
 4301 0647 00000000 		.4byte	0
 4302              	.LLST37:
 4303 064b 60040000 		.4byte	.LVL106-.Ltext0
 4304 064f 62040000 		.4byte	.LVL107-.Ltext0
 4305 0653 0200     		.2byte	0x2
 4306 0655 30       		.byte	0x30
 4307 0656 9F       		.byte	0x9f
 4308 0657 62040000 		.4byte	.LVL107-.Ltext0
 4309 065b 7C040000 		.4byte	.LVL114-.Ltext0
 4310 065f 0600     		.2byte	0x6
 4311 0661 71       		.byte	0x71
 4312 0662 00       		.sleb128 0
 4313 0663 08       		.byte	0x8
 4314 0664 FF       		.byte	0xff
 4315 0665 1A       		.byte	0x1a
 4316 0666 9F       		.byte	0x9f
 4317 0667 7C040000 		.4byte	.LVL114-.Ltext0
 4318 066b 80040000 		.4byte	.LVL115-.Ltext0
 4319 066f 0800     		.2byte	0x8
 4320 0671 70       		.byte	0x70
 4321 0672 00       		.sleb128 0
 4322 0673 4F       		.byte	0x4f
 4323 0674 1A       		.byte	0x1a
 4324 0675 08       		.byte	0x8
 4325 0676 FF       		.byte	0xff
 4326 0677 1A       		.byte	0x1a
 4327 0678 9F       		.byte	0x9f
 4328 0679 80040000 		.4byte	.LVL115-.Ltext0
 4329 067d 8C040000 		.4byte	.LFE67-.Ltext0
 4330 0681 0900     		.2byte	0x9
 4331 0683 F3       		.byte	0xf3
 4332 0684 01       		.uleb128 0x1
 4333 0685 50       		.byte	0x50
 4334 0686 4F       		.byte	0x4f
 4335 0687 1A       		.byte	0x1a
 4336 0688 08       		.byte	0x8
 4337 0689 FF       		.byte	0xff
 4338 068a 1A       		.byte	0x1a
 4339 068b 9F       		.byte	0x9f
 4340 068c 00000000 		.4byte	0
 4341 0690 00000000 		.4byte	0
 4342              	.LLST38:
 4343 0694 60040000 		.4byte	.LVL106-.Ltext0
 4344 0698 68040000 		.4byte	.LVL108-.Ltext0
 4345 069c 0200     		.2byte	0x2
 4346 069e 30       		.byte	0x30
ARM GAS  C:\Users\Doles\AppData\Local\Temp\ccw5cB6c.s 			page 106


 4347 069f 9F       		.byte	0x9f
 4348 06a0 68040000 		.4byte	.LVL108-.Ltext0
 4349 06a4 6A040000 		.4byte	.LVL109-.Ltext0
 4350 06a8 0100     		.2byte	0x1
 4351 06aa 53       		.byte	0x53
 4352 06ab 6A040000 		.4byte	.LVL109-.Ltext0
 4353 06af 70040000 		.4byte	.LVL110-.Ltext0
 4354 06b3 0200     		.2byte	0x2
 4355 06b5 30       		.byte	0x30
 4356 06b6 9F       		.byte	0x9f
 4357 06b7 70040000 		.4byte	.LVL110-.Ltext0
 4358 06bb 72040000 		.4byte	.LVL111-.Ltext0
 4359 06bf 0100     		.2byte	0x1
 4360 06c1 53       		.byte	0x53
 4361 06c2 72040000 		.4byte	.LVL111-.Ltext0
 4362 06c6 78040000 		.4byte	.LVL112-.Ltext0
 4363 06ca 0200     		.2byte	0x2
 4364 06cc 30       		.byte	0x30
 4365 06cd 9F       		.byte	0x9f
 4366 06ce 78040000 		.4byte	.LVL112-.Ltext0
 4367 06d2 7A040000 		.4byte	.LVL113-.Ltext0
 4368 06d6 0100     		.2byte	0x1
 4369 06d8 53       		.byte	0x53
 4370 06d9 7A040000 		.4byte	.LVL113-.Ltext0
 4371 06dd 7C040000 		.4byte	.LVL114-.Ltext0
 4372 06e1 0200     		.2byte	0x2
 4373 06e3 30       		.byte	0x30
 4374 06e4 9F       		.byte	0x9f
 4375 06e5 7C040000 		.4byte	.LVL114-.Ltext0
 4376 06e9 82040000 		.4byte	.LVL116-.Ltext0
 4377 06ed 0100     		.2byte	0x1
 4378 06ef 53       		.byte	0x53
 4379 06f0 00000000 		.4byte	0
 4380 06f4 00000000 		.4byte	0
 4381              	.LLST39:
 4382 06f8 60040000 		.4byte	.LVL106-.Ltext0
 4383 06fc 7C040000 		.4byte	.LVL114-.Ltext0
 4384 0700 0200     		.2byte	0x2
 4385 0702 30       		.byte	0x30
 4386 0703 9F       		.byte	0x9f
 4387 0704 7C040000 		.4byte	.LVL114-.Ltext0
 4388 0708 80040000 		.4byte	.LVL115-.Ltext0
 4389 070c 0D00     		.2byte	0xd
 4390 070e 73       		.byte	0x73
 4391 070f 00       		.sleb128 0
 4392 0710 70       		.byte	0x70
 4393 0711 00       		.sleb128 0
 4394 0712 4F       		.byte	0x4f
 4395 0713 1A       		.byte	0x1a
 4396 0714 08       		.byte	0x8
 4397 0715 FF       		.byte	0xff
 4398 0716 1A       		.byte	0x1a
 4399 0717 25       		.byte	0x25
 4400 0718 31       		.byte	0x31
 4401 0719 1A       		.byte	0x1a
 4402 071a 9F       		.byte	0x9f
 4403 071b 80040000 		.4byte	.LVL115-.Ltext0
ARM GAS  C:\Users\Doles\AppData\Local\Temp\ccw5cB6c.s 			page 107


 4404 071f 82040000 		.4byte	.LVL116-.Ltext0
 4405 0723 0E00     		.2byte	0xe
 4406 0725 73       		.byte	0x73
 4407 0726 00       		.sleb128 0
 4408 0727 F3       		.byte	0xf3
 4409 0728 01       		.uleb128 0x1
 4410 0729 50       		.byte	0x50
 4411 072a 4F       		.byte	0x4f
 4412 072b 1A       		.byte	0x1a
 4413 072c 08       		.byte	0x8
 4414 072d FF       		.byte	0xff
 4415 072e 1A       		.byte	0x1a
 4416 072f 25       		.byte	0x25
 4417 0730 31       		.byte	0x31
 4418 0731 1A       		.byte	0x1a
 4419 0732 9F       		.byte	0x9f
 4420 0733 00000000 		.4byte	0
 4421 0737 00000000 		.4byte	0
 4422              	.LLST40:
 4423 073b 8C040000 		.4byte	.LFB34-.Ltext0
 4424 073f 90040000 		.4byte	.LCFI2-.Ltext0
 4425 0743 0200     		.2byte	0x2
 4426 0745 7D       		.byte	0x7d
 4427 0746 00       		.sleb128 0
 4428 0747 90040000 		.4byte	.LCFI2-.Ltext0
 4429 074b BA040000 		.4byte	.LFE34-.Ltext0
 4430 074f 0200     		.2byte	0x2
 4431 0751 7D       		.byte	0x7d
 4432 0752 10       		.sleb128 16
 4433 0753 00000000 		.4byte	0
 4434 0757 00000000 		.4byte	0
 4435              	.LLST41:
 4436 075b 92040000 		.4byte	.LVL117-.Ltext0
 4437 075f B2040000 		.4byte	.LVL120-.Ltext0
 4438 0763 0200     		.2byte	0x2
 4439 0765 30       		.byte	0x30
 4440 0766 9F       		.byte	0x9f
 4441 0767 B2040000 		.4byte	.LVL120-.Ltext0
 4442 076b B6040000 		.4byte	.LVL121-.Ltext0
 4443 076f 0700     		.2byte	0x7
 4444 0771 70       		.byte	0x70
 4445 0772 00       		.sleb128 0
 4446 0773 48       		.byte	0x48
 4447 0774 24       		.byte	0x24
 4448 0775 30       		.byte	0x30
 4449 0776 2E       		.byte	0x2e
 4450 0777 9F       		.byte	0x9f
 4451 0778 00000000 		.4byte	0
 4452 077c 00000000 		.4byte	0
 4453              	.LLST42:
 4454 0780 98040000 		.4byte	.LVL118-.Ltext0
 4455 0784 AE040000 		.4byte	.LVL119-.Ltext0
 4456 0788 0100     		.2byte	0x1
 4457 078a 50       		.byte	0x50
 4458 078b 00000000 		.4byte	0
 4459 078f 00000000 		.4byte	0
 4460              	.LLST43:
ARM GAS  C:\Users\Doles\AppData\Local\Temp\ccw5cB6c.s 			page 108


 4461 0793 CC040000 		.4byte	.LVL122-.Ltext0
 4462 0797 D2040000 		.4byte	.LVL124-.Ltext0
 4463 079b 0100     		.2byte	0x1
 4464 079d 50       		.byte	0x50
 4465 079e D2040000 		.4byte	.LVL124-.Ltext0
 4466 07a2 E0040000 		.4byte	.LFE69-.Ltext0
 4467 07a6 0400     		.2byte	0x4
 4468 07a8 F3       		.byte	0xf3
 4469 07a9 01       		.uleb128 0x1
 4470 07aa 50       		.byte	0x50
 4471 07ab 9F       		.byte	0x9f
 4472 07ac 00000000 		.4byte	0
 4473 07b0 00000000 		.4byte	0
 4474              	.LLST44:
 4475 07b4 CC040000 		.4byte	.LVL122-.Ltext0
 4476 07b8 D0040000 		.4byte	.LVL123-.Ltext0
 4477 07bc 0200     		.2byte	0x2
 4478 07be 30       		.byte	0x30
 4479 07bf 9F       		.byte	0x9f
 4480 07c0 D0040000 		.4byte	.LVL123-.Ltext0
 4481 07c4 D2040000 		.4byte	.LVL124-.Ltext0
 4482 07c8 0B00     		.2byte	0xb
 4483 07ca 70       		.byte	0x70
 4484 07cb 00       		.sleb128 0
 4485 07cc 08       		.byte	0x8
 4486 07cd FF       		.byte	0xff
 4487 07ce 1A       		.byte	0x1a
 4488 07cf 73       		.byte	0x73
 4489 07d0 00       		.sleb128 0
 4490 07d1 1A       		.byte	0x1a
 4491 07d2 30       		.byte	0x30
 4492 07d3 2E       		.byte	0x2e
 4493 07d4 9F       		.byte	0x9f
 4494 07d5 D2040000 		.4byte	.LVL124-.Ltext0
 4495 07d9 D6040000 		.4byte	.LVL125-.Ltext0
 4496 07dd 0C00     		.2byte	0xc
 4497 07df F3       		.byte	0xf3
 4498 07e0 01       		.uleb128 0x1
 4499 07e1 50       		.byte	0x50
 4500 07e2 08       		.byte	0x8
 4501 07e3 FF       		.byte	0xff
 4502 07e4 1A       		.byte	0x1a
 4503 07e5 73       		.byte	0x73
 4504 07e6 00       		.sleb128 0
 4505 07e7 1A       		.byte	0x1a
 4506 07e8 30       		.byte	0x30
 4507 07e9 2E       		.byte	0x2e
 4508 07ea 9F       		.byte	0x9f
 4509 07eb 00000000 		.4byte	0
 4510 07ef 00000000 		.4byte	0
 4511              		.section	.debug_aranges,"",%progbits
 4512 0000 1C000000 		.4byte	0x1c
 4513 0004 0200     		.2byte	0x2
 4514 0006 00000000 		.4byte	.Ldebug_info0
 4515 000a 04       		.byte	0x4
 4516 000b 00       		.byte	0
 4517 000c 0000     		.2byte	0
ARM GAS  C:\Users\Doles\AppData\Local\Temp\ccw5cB6c.s 			page 109


 4518 000e 0000     		.2byte	0
 4519 0010 00000000 		.4byte	.Ltext0
 4520 0014 EC040000 		.4byte	.Letext0-.Ltext0
 4521 0018 00000000 		.4byte	0
 4522 001c 00000000 		.4byte	0
 4523              		.section	.debug_line,"",%progbits
 4524              	.Ldebug_line0:
 4525 0000 DA030000 		.section	.debug_str,"MS",%progbits,1
 4525      0200EB01 
 4525      00000201 
 4525      FB0E0D00 
 4525      01010101 
 4526              	.LASF47:
 4527 0000 48534943 		.ascii	"HSICalibrationValue\000"
 4527      616C6962 
 4527      72617469 
 4527      6F6E5661 
 4527      6C756500 
 4528              	.LASF31:
 4529 0014 42444352 		.ascii	"BDCR\000"
 4529      00
 4530              	.LASF51:
 4531 0019 48534931 		.ascii	"HSI14CalibrationValue\000"
 4531      3443616C 
 4531      69627261 
 4531      74696F6E 
 4531      56616C75 
 4532              	.LASF22:
 4533 002f 4552524F 		.ascii	"ERROR\000"
 4533      5200
 4534              	.LASF69:
 4535 0035 5243435F 		.ascii	"RCC_SYSCLKConfig\000"
 4535      53595343 
 4535      4C4B436F 
 4535      6E666967 
 4535      00
 4536              	.LASF30:
 4537 0046 41504231 		.ascii	"APB1ENR\000"
 4537      454E5200 
 4538              	.LASF41:
 4539 004e 49324331 		.ascii	"I2C1CLK_Frequency\000"
 4539      434C4B5F 
 4539      46726571 
 4539      75656E63 
 4539      7900
 4540              	.LASF72:
 4541 0060 5243435F 		.ascii	"RCC_SYSCLK\000"
 4541      53595343 
 4541      4C4B00
 4542              	.LASF77:
 4543 006b 5243435F 		.ascii	"RCC_CECCLKConfig\000"
 4543      43454343 
 4543      4C4B436F 
 4543      6E666967 
 4543      00
 4544              	.LASF26:
 4545 007c 41504232 		.ascii	"APB2RSTR\000"
ARM GAS  C:\Users\Doles\AppData\Local\Temp\ccw5cB6c.s 			page 110


 4545      52535452 
 4545      00
 4546              	.LASF78:
 4547 0085 5243435F 		.ascii	"RCC_CECCLK\000"
 4547      43454343 
 4547      4C4B00
 4548              	.LASF11:
 4549 0090 756E7369 		.ascii	"unsigned int\000"
 4549      676E6564 
 4549      20696E74 
 4549      00
 4550              	.LASF21:
 4551 009d 46756E63 		.ascii	"FunctionalState\000"
 4551      74696F6E 
 4551      616C5374 
 4551      61746500 
 4552              	.LASF112:
 4553 00ad 5243435F 		.ascii	"RCC_DeInit\000"
 4553      4465496E 
 4553      697400
 4554              	.LASF24:
 4555 00b8 4572726F 		.ascii	"ErrorStatus\000"
 4555      72537461 
 4555      74757300 
 4556              	.LASF94:
 4557 00c4 5243435F 		.ascii	"RCC_AHBPeriph\000"
 4557      41484250 
 4557      65726970 
 4557      6800
 4558              	.LASF70:
 4559 00d2 5243435F 		.ascii	"RCC_SYSCLKSource\000"
 4559      53595343 
 4559      4C4B536F 
 4559      75726365 
 4559      00
 4560              	.LASF43:
 4561 00e3 5243435F 		.ascii	"RCC_ClocksTypeDef\000"
 4561      436C6F63 
 4561      6B735479 
 4561      70654465 
 4561      6600
 4562              	.LASF60:
 4563 00f5 5243435F 		.ascii	"RCC_PLLConfig\000"
 4563      504C4C43 
 4563      6F6E6669 
 4563      6700
 4564              	.LASF17:
 4565 0103 466C6167 		.ascii	"FlagStatus\000"
 4565      53746174 
 4565      757300
 4566              	.LASF85:
 4567 010e 706C6C6D 		.ascii	"pllmull\000"
 4567      756C6C00 
 4568              	.LASF113:
 4569 0116 5243435F 		.ascii	"RCC_ClearFlag\000"
 4569      436C6561 
 4569      72466C61 
ARM GAS  C:\Users\Doles\AppData\Local\Temp\ccw5cB6c.s 			page 111


 4569      6700
 4570              	.LASF38:
 4571 0124 50434C4B 		.ascii	"PCLK_Frequency\000"
 4571      5F467265 
 4571      7175656E 
 4571      637900
 4572              	.LASF64:
 4573 0133 5243435F 		.ascii	"RCC_PREDIV1Config\000"
 4573      50524544 
 4573      49563143 
 4573      6F6E6669 
 4573      6700
 4574              	.LASF108:
 4575 0145 5243435F 		.ascii	"RCC_WaitForHSEStartUp\000"
 4575      57616974 
 4575      466F7248 
 4575      53455374 
 4575      61727455 
 4576              	.LASF14:
 4577 015b 75696E74 		.ascii	"uint32_t\000"
 4577      33325F74 
 4577      00
 4578              	.LASF61:
 4579 0164 5243435F 		.ascii	"RCC_PLLSource\000"
 4579      504C4C53 
 4579      6F757263 
 4579      6500
 4580              	.LASF32:
 4581 0172 41484252 		.ascii	"AHBRSTR\000"
 4581      53545200 
 4582              	.LASF115:
 4583 017a 5243435F 		.ascii	"RCC_ClearITPendingBit\000"
 4583      436C6561 
 4583      72495450 
 4583      656E6469 
 4583      6E674269 
 4584              	.LASF81:
 4585 0190 5243435F 		.ascii	"RCC_USARTCLKConfig\000"
 4585      55534152 
 4585      54434C4B 
 4585      436F6E66 
 4585      696700
 4586              	.LASF10:
 4587 01a3 6C6F6E67 		.ascii	"long long unsigned int\000"
 4587      206C6F6E 
 4587      6720756E 
 4587      7369676E 
 4587      65642069 
 4588              	.LASF76:
 4589 01ba 5243435F 		.ascii	"RCC_ADCCLK\000"
 4589      41444343 
 4589      4C4B00
 4590              	.LASF83:
 4591 01c5 5243435F 		.ascii	"RCC_GetClocksFreq\000"
 4591      47657443 
 4591      6C6F636B 
 4591      73467265 
ARM GAS  C:\Users\Doles\AppData\Local\Temp\ccw5cB6c.s 			page 112


 4591      7100
 4592              	.LASF4:
 4593 01d7 5F5F7569 		.ascii	"__uint16_t\000"
 4593      6E743136 
 4593      5F7400
 4594              	.LASF59:
 4595 01e2 5243435F 		.ascii	"RCC_LSICmd\000"
 4595      4C534943 
 4595      6D6400
 4596              	.LASF36:
 4597 01ed 53595343 		.ascii	"SYSCLK_Frequency\000"
 4597      4C4B5F46 
 4597      72657175 
 4597      656E6379 
 4597      00
 4598              	.LASF114:
 4599 01fe 5243435F 		.ascii	"RCC_GetITStatus\000"
 4599      47657449 
 4599      54537461 
 4599      74757300 
 4600              	.LASF39:
 4601 020e 41444343 		.ascii	"ADCCLK_Frequency\000"
 4601      4C4B5F46 
 4601      72657175 
 4601      656E6379 
 4601      00
 4602              	.LASF74:
 4603 021f 5243435F 		.ascii	"RCC_HCLK\000"
 4603      48434C4B 
 4603      00
 4604              	.LASF93:
 4605 0228 5243435F 		.ascii	"RCC_AHBPeriphClockCmd\000"
 4605      41484250 
 4605      65726970 
 4605      68436C6F 
 4605      636B436D 
 4606              	.LASF46:
 4607 023e 5243435F 		.ascii	"RCC_HSE\000"
 4607      48534500 
 4608              	.LASF80:
 4609 0246 5243435F 		.ascii	"RCC_I2CCLK\000"
 4609      49324343 
 4609      4C4B00
 4610              	.LASF102:
 4611 0251 5243435F 		.ascii	"RCC_ITConfig\000"
 4611      4954436F 
 4611      6E666967 
 4611      00
 4612              	.LASF52:
 4613 025e 746D7072 		.ascii	"tmpreg\000"
 4613      656700
 4614              	.LASF35:
 4615 0265 5243435F 		.ascii	"RCC_TypeDef\000"
 4615      54797065 
 4615      44656600 
 4616              	.LASF18:
 4617 0271 49545374 		.ascii	"ITStatus\000"
ARM GAS  C:\Users\Doles\AppData\Local\Temp\ccw5cB6c.s 			page 113


 4617      61747573 
 4617      00
 4618              	.LASF54:
 4619 027a 5243435F 		.ascii	"RCC_HSI14ADCRequestCmd\000"
 4619      48534931 
 4619      34414443 
 4619      52657175 
 4619      65737443 
 4620              	.LASF37:
 4621 0291 48434C4B 		.ascii	"HCLK_Frequency\000"
 4621      5F467265 
 4621      7175656E 
 4621      637900
 4622              	.LASF45:
 4623 02a0 5243435F 		.ascii	"RCC_AdjustHSICalibrationValue\000"
 4623      41646A75 
 4623      73744853 
 4623      4943616C 
 4623      69627261 
 4624              	.LASF67:
 4625 02be 5243435F 		.ascii	"RCC_MCOConfig\000"
 4625      4D434F43 
 4625      6F6E6669 
 4625      6700
 4626              	.LASF49:
 4627 02cc 4E657753 		.ascii	"NewState\000"
 4627      74617465 
 4627      00
 4628              	.LASF88:
 4629 02d5 70726573 		.ascii	"presc\000"
 4629      6300
 4630              	.LASF62:
 4631 02db 5243435F 		.ascii	"RCC_PLLMul\000"
 4631      504C4C4D 
 4631      756C00
 4632              	.LASF27:
 4633 02e6 41504231 		.ascii	"APB1RSTR\000"
 4633      52535452 
 4633      00
 4634              	.LASF23:
 4635 02ef 53554343 		.ascii	"SUCCESS\000"
 4635      45535300 
 4636              	.LASF19:
 4637 02f7 44495341 		.ascii	"DISABLE\000"
 4637      424C4500 
 4638              	.LASF97:
 4639 02ff 5243435F 		.ascii	"RCC_APB1PeriphClockCmd\000"
 4639      41504231 
 4639      50657269 
 4639      7068436C 
 4639      6F636B43 
 4640              	.LASF79:
 4641 0316 5243435F 		.ascii	"RCC_I2CCLKConfig\000"
 4641      49324343 
 4641      4C4B436F 
 4641      6E666967 
 4641      00
ARM GAS  C:\Users\Doles\AppData\Local\Temp\ccw5cB6c.s 			page 114


 4642              	.LASF50:
 4643 0327 5243435F 		.ascii	"RCC_AdjustHSI14CalibrationValue\000"
 4643      41646A75 
 4643      73744853 
 4643      49313443 
 4643      616C6962 
 4644              	.LASF28:
 4645 0347 41484245 		.ascii	"AHBENR\000"
 4645      4E5200
 4646              	.LASF12:
 4647 034e 75696E74 		.ascii	"uint8_t\000"
 4647      385F7400 
 4648              	.LASF110:
 4649 0356 73746174 		.ascii	"status\000"
 4649      757300
 4650              	.LASF66:
 4651 035d 5243435F 		.ascii	"RCC_ClockSecuritySystemCmd\000"
 4651      436C6F63 
 4651      6B536563 
 4651      75726974 
 4651      79537973 
 4652              	.LASF44:
 4653 0378 5243435F 		.ascii	"RCC_HSEConfig\000"
 4653      48534543 
 4653      6F6E6669 
 4653      6700
 4654              	.LASF9:
 4655 0386 6C6F6E67 		.ascii	"long long int\000"
 4655      206C6F6E 
 4655      6720696E 
 4655      7400
 4656              	.LASF73:
 4657 0394 5243435F 		.ascii	"RCC_PCLKConfig\000"
 4657      50434C4B 
 4657      436F6E66 
 4657      696700
 4658              	.LASF96:
 4659 03a3 5243435F 		.ascii	"RCC_APB2Periph\000"
 4659      41504232 
 4659      50657269 
 4659      706800
 4660              	.LASF75:
 4661 03b2 5243435F 		.ascii	"RCC_ADCCLKConfig\000"
 4661      41444343 
 4661      4C4B436F 
 4661      6E666967 
 4661      00
 4662              	.LASF71:
 4663 03c3 5243435F 		.ascii	"RCC_HCLKConfig\000"
 4663      48434C4B 
 4663      436F6E66 
 4663      696700
 4664              	.LASF116:
 4665 03d2 41504241 		.ascii	"APBAHBPrescTable\000"
 4665      48425072 
 4665      65736354 
 4665      61626C65 
ARM GAS  C:\Users\Doles\AppData\Local\Temp\ccw5cB6c.s 			page 115


 4665      00
 4666              	.LASF33:
 4667 03e3 43464752 		.ascii	"CFGR2\000"
 4667      3200
 4668              	.LASF34:
 4669 03e9 43464752 		.ascii	"CFGR3\000"
 4669      3300
 4670              	.LASF29:
 4671 03ef 41504232 		.ascii	"APB2ENR\000"
 4671      454E5200 
 4672              	.LASF82:
 4673 03f7 5243435F 		.ascii	"RCC_USARTCLK\000"
 4673      55534152 
 4673      54434C4B 
 4673      00
 4674              	.LASF84:
 4675 0404 5243435F 		.ascii	"RCC_Clocks\000"
 4675      436C6F63 
 4675      6B7300
 4676              	.LASF13:
 4677 040f 75696E74 		.ascii	"uint16_t\000"
 4677      31365F74 
 4677      00
 4678              	.LASF42:
 4679 0418 55534152 		.ascii	"USART1CLK_Frequency\000"
 4679      5431434C 
 4679      4B5F4672 
 4679      65717565 
 4679      6E637900 
 4680              	.LASF55:
 4681 042c 5243435F 		.ascii	"RCC_LSEConfig\000"
 4681      4C534543 
 4681      6F6E6669 
 4681      6700
 4682              	.LASF58:
 4683 043a 5243435F 		.ascii	"RCC_LSEDrive\000"
 4683      4C534544 
 4683      72697665 
 4683      00
 4684              	.LASF107:
 4685 0447 5243435F 		.ascii	"RCC_GetFlagStatus\000"
 4685      47657446 
 4685      6C616753 
 4685      74617475 
 4685      7300
 4686              	.LASF2:
 4687 0459 73686F72 		.ascii	"short int\000"
 4687      7420696E 
 4687      7400
 4688              	.LASF6:
 4689 0463 6C6F6E67 		.ascii	"long int\000"
 4689      20696E74 
 4689      00
 4690              	.LASF87:
 4691 046c 70726564 		.ascii	"prediv1factor\000"
 4691      69763166 
 4691      6163746F 
ARM GAS  C:\Users\Doles\AppData\Local\Temp\ccw5cB6c.s 			page 116


 4691      7200
 4692              	.LASF16:
 4693 047a 52455345 		.ascii	"RESET\000"
 4693      5400
 4694              	.LASF99:
 4695 0480 5243435F 		.ascii	"RCC_AHBPeriphResetCmd\000"
 4695      41484250 
 4695      65726970 
 4695      68526573 
 4695      6574436D 
 4696              	.LASF25:
 4697 0496 43464752 		.ascii	"CFGR\000"
 4697      00
 4698              	.LASF90:
 4699 049b 5243435F 		.ascii	"RCC_RTCCLKSource\000"
 4699      52544343 
 4699      4C4B536F 
 4699      75726365 
 4699      00
 4700              	.LASF40:
 4701 04ac 43454343 		.ascii	"CECCLK_Frequency\000"
 4701      4C4B5F46 
 4701      72657175 
 4701      656E6379 
 4701      00
 4702              	.LASF3:
 4703 04bd 5F5F7569 		.ascii	"__uint8_t\000"
 4703      6E74385F 
 4703      7400
 4704              	.LASF89:
 4705 04c7 5243435F 		.ascii	"RCC_RTCCLKConfig\000"
 4705      52544343 
 4705      4C4B436F 
 4705      6E666967 
 4705      00
 4706              	.LASF68:
 4707 04d8 5243435F 		.ascii	"RCC_MCOSource\000"
 4707      4D434F53 
 4707      6F757263 
 4707      6500
 4708              	.LASF120:
 4709 04e6 5243435F 		.ascii	"RCC_GetSYSCLKSource\000"
 4709      47657453 
 4709      5953434C 
 4709      4B536F75 
 4709      72636500 
 4710              	.LASF20:
 4711 04fa 454E4142 		.ascii	"ENABLE\000"
 4711      4C4500
 4712              	.LASF15:
 4713 0501 73697A65 		.ascii	"sizetype\000"
 4713      74797065 
 4713      00
 4714              	.LASF8:
 4715 050a 6C6F6E67 		.ascii	"long unsigned int\000"
 4715      20756E73 
 4715      69676E65 
ARM GAS  C:\Users\Doles\AppData\Local\Temp\ccw5cB6c.s 			page 117


 4715      6420696E 
 4715      7400
 4716              	.LASF92:
 4717 051c 5243435F 		.ascii	"RCC_BackupResetCmd\000"
 4717      4261636B 
 4717      75705265 
 4717      73657443 
 4717      6D6400
 4718              	.LASF65:
 4719 052f 5243435F 		.ascii	"RCC_PREDIV1_Div\000"
 4719      50524544 
 4719      4956315F 
 4719      44697600 
 4720              	.LASF100:
 4721 053f 5243435F 		.ascii	"RCC_APB2PeriphResetCmd\000"
 4721      41504232 
 4721      50657269 
 4721      70685265 
 4721      73657443 
 4722              	.LASF119:
 4723 0556 433A5C50 		.ascii	"C:\\Projekty ARM\\Workspace\\iotogglem0\000"
 4723      726F6A65 
 4723      6B747920 
 4723      41524D5C 
 4723      576F726B 
 4724              	.LASF111:
 4725 057b 48534553 		.ascii	"HSEStatus\000"
 4725      74617475 
 4725      7300
 4726              	.LASF48:
 4727 0585 5243435F 		.ascii	"RCC_HSICmd\000"
 4727      48534943 
 4727      6D6400
 4728              	.LASF1:
 4729 0590 756E7369 		.ascii	"unsigned char\000"
 4729      676E6564 
 4729      20636861 
 4729      7200
 4730              	.LASF101:
 4731 059e 5243435F 		.ascii	"RCC_APB1PeriphResetCmd\000"
 4731      41504231 
 4731      50657269 
 4731      70685265 
 4731      73657443 
 4732              	.LASF7:
 4733 05b5 5F5F7569 		.ascii	"__uint32_t\000"
 4733      6E743332 
 4733      5F7400
 4734              	.LASF57:
 4735 05c0 5243435F 		.ascii	"RCC_LSEDriveConfig\000"
 4735      4C534544 
 4735      72697665 
 4735      436F6E66 
 4735      696700
 4736              	.LASF86:
 4737 05d3 706C6C73 		.ascii	"pllsource\000"
 4737      6F757263 
ARM GAS  C:\Users\Doles\AppData\Local\Temp\ccw5cB6c.s 			page 118


 4737      6500
 4738              	.LASF95:
 4739 05dd 5243435F 		.ascii	"RCC_APB2PeriphClockCmd\000"
 4739      41504232 
 4739      50657269 
 4739      7068436C 
 4739      6F636B43 
 4740              	.LASF63:
 4741 05f4 5243435F 		.ascii	"RCC_PLLCmd\000"
 4741      504C4C43 
 4741      6D6400
 4742              	.LASF56:
 4743 05ff 5243435F 		.ascii	"RCC_LSE\000"
 4743      4C534500 
 4744              	.LASF0:
 4745 0607 7369676E 		.ascii	"signed char\000"
 4745      65642063 
 4745      68617200 
 4746              	.LASF5:
 4747 0613 73686F72 		.ascii	"short unsigned int\000"
 4747      7420756E 
 4747      7369676E 
 4747      65642069 
 4747      6E7400
 4748              	.LASF98:
 4749 0626 5243435F 		.ascii	"RCC_APB1Periph\000"
 4749      41504231 
 4749      50657269 
 4749      706800
 4750              	.LASF105:
 4751 0635 73746174 		.ascii	"statusreg\000"
 4751      75737265 
 4751      6700
 4752              	.LASF106:
 4753 063f 62697473 		.ascii	"bitstatus\000"
 4753      74617475 
 4753      7300
 4754              	.LASF53:
 4755 0649 5243435F 		.ascii	"RCC_HSI14Cmd\000"
 4755      48534931 
 4755      34436D64 
 4755      00
 4756              	.LASF103:
 4757 0656 5243435F 		.ascii	"RCC_IT\000"
 4757      495400
 4758              	.LASF104:
 4759 065d 5243435F 		.ascii	"RCC_FLAG\000"
 4759      464C4147 
 4759      00
 4760              	.LASF117:
 4761 0666 474E5520 		.ascii	"GNU C 4.9.3 20141119 (release) [ARM/embedded-4_9-br"
 4761      4320342E 
 4761      392E3320 
 4761      32303134 
 4761      31313139 
 4762 0699 616E6368 		.ascii	"anch revision 218278] -mcpu=cortex-m0 -mthumb -gdwa"
 4762      20726576 
ARM GAS  C:\Users\Doles\AppData\Local\Temp\ccw5cB6c.s 			page 119


 4762      6973696F 
 4762      6E203231 
 4762      38323738 
 4763 06cc 72662D32 		.ascii	"rf-2 -Os -fomit-frame-pointer\000"
 4763      202D4F73 
 4763      202D666F 
 4763      6D69742D 
 4763      6672616D 
 4764              	.LASF118:
 4765 06ea 2E2E5C2E 		.ascii	"..\\..\\STM32F0-Discovery_FW_V1.0.0\\Libraries\\STM"
 4765      2E5C5354 
 4765      4D333246 
 4765      302D4469 
 4765      73636F76 
 4766 0719 33324630 		.ascii	"32F0xx_StdPeriph_Driver\\src\\stm32f0xx_rcc.c\000"
 4766      78785F53 
 4766      74645065 
 4766      72697068 
 4766      5F447269 
 4767              	.LASF109:
 4768 0745 53746172 		.ascii	"StartUpCounter\000"
 4768      74557043 
 4768      6F756E74 
 4768      657200
 4769              	.LASF91:
 4770 0754 5243435F 		.ascii	"RCC_RTCCLKCmd\000"
 4770      52544343 
 4770      4C4B436D 
 4770      6400
 4771              		.ident	"GCC: (GNU Tools for ARM Embedded Processors) 4.9.3 20141119 (release) [ARM/embedded-4_9-br
ARM GAS  C:\Users\Doles\AppData\Local\Temp\ccw5cB6c.s 			page 120


DEFINED SYMBOLS
                            *ABS*:00000000 stm32f0xx_rcc.c
C:\Users\Doles\AppData\Local\Temp\ccw5cB6c.s:74     .text:00000000 $t
C:\Users\Doles\AppData\Local\Temp\ccw5cB6c.s:79     .text:00000000 RCC_DeInit
C:\Users\Doles\AppData\Local\Temp\ccw5cB6c.s:137    .text:00000048 $d
C:\Users\Doles\AppData\Local\Temp\ccw5cB6c.s:146    .text:00000060 $t
C:\Users\Doles\AppData\Local\Temp\ccw5cB6c.s:151    .text:00000060 RCC_HSEConfig
C:\Users\Doles\AppData\Local\Temp\ccw5cB6c.s:170    .text:0000006c $d
C:\Users\Doles\AppData\Local\Temp\ccw5cB6c.s:174    .text:00000070 $t
C:\Users\Doles\AppData\Local\Temp\ccw5cB6c.s:179    .text:00000070 RCC_AdjustHSICalibrationValue
C:\Users\Doles\AppData\Local\Temp\ccw5cB6c.s:209    .text:00000080 $d
C:\Users\Doles\AppData\Local\Temp\ccw5cB6c.s:213    .text:00000084 $t
C:\Users\Doles\AppData\Local\Temp\ccw5cB6c.s:218    .text:00000084 RCC_HSICmd
C:\Users\Doles\AppData\Local\Temp\ccw5cB6c.s:244    .text:00000098 $d
C:\Users\Doles\AppData\Local\Temp\ccw5cB6c.s:248    .text:0000009c $t
C:\Users\Doles\AppData\Local\Temp\ccw5cB6c.s:253    .text:0000009c RCC_AdjustHSI14CalibrationValue
C:\Users\Doles\AppData\Local\Temp\ccw5cB6c.s:283    .text:000000ac $d
C:\Users\Doles\AppData\Local\Temp\ccw5cB6c.s:287    .text:000000b0 $t
C:\Users\Doles\AppData\Local\Temp\ccw5cB6c.s:292    .text:000000b0 RCC_HSI14Cmd
C:\Users\Doles\AppData\Local\Temp\ccw5cB6c.s:318    .text:000000c4 $d
C:\Users\Doles\AppData\Local\Temp\ccw5cB6c.s:322    .text:000000c8 $t
C:\Users\Doles\AppData\Local\Temp\ccw5cB6c.s:327    .text:000000c8 RCC_HSI14ADCRequestCmd
C:\Users\Doles\AppData\Local\Temp\ccw5cB6c.s:353    .text:000000dc $d
C:\Users\Doles\AppData\Local\Temp\ccw5cB6c.s:357    .text:000000e0 $t
C:\Users\Doles\AppData\Local\Temp\ccw5cB6c.s:362    .text:000000e0 RCC_LSEConfig
C:\Users\Doles\AppData\Local\Temp\ccw5cB6c.s:391    .text:000000fc $d
C:\Users\Doles\AppData\Local\Temp\ccw5cB6c.s:395    .text:00000100 $t
C:\Users\Doles\AppData\Local\Temp\ccw5cB6c.s:400    .text:00000100 RCC_LSEDriveConfig
C:\Users\Doles\AppData\Local\Temp\ccw5cB6c.s:424    .text:00000114 $d
C:\Users\Doles\AppData\Local\Temp\ccw5cB6c.s:428    .text:00000118 $t
C:\Users\Doles\AppData\Local\Temp\ccw5cB6c.s:433    .text:00000118 RCC_LSICmd
C:\Users\Doles\AppData\Local\Temp\ccw5cB6c.s:459    .text:0000012c $d
C:\Users\Doles\AppData\Local\Temp\ccw5cB6c.s:463    .text:00000130 $t
C:\Users\Doles\AppData\Local\Temp\ccw5cB6c.s:468    .text:00000130 RCC_PLLConfig
C:\Users\Doles\AppData\Local\Temp\ccw5cB6c.s:501    .text:00000148 $d
C:\Users\Doles\AppData\Local\Temp\ccw5cB6c.s:506    .text:00000150 $t
C:\Users\Doles\AppData\Local\Temp\ccw5cB6c.s:511    .text:00000150 RCC_PLLCmd
C:\Users\Doles\AppData\Local\Temp\ccw5cB6c.s:539    .text:0000016c $d
C:\Users\Doles\AppData\Local\Temp\ccw5cB6c.s:544    .text:00000174 $t
C:\Users\Doles\AppData\Local\Temp\ccw5cB6c.s:549    .text:00000174 RCC_PREDIV1Config
C:\Users\Doles\AppData\Local\Temp\ccw5cB6c.s:576    .text:00000184 $d
C:\Users\Doles\AppData\Local\Temp\ccw5cB6c.s:580    .text:00000188 $t
C:\Users\Doles\AppData\Local\Temp\ccw5cB6c.s:585    .text:00000188 RCC_ClockSecuritySystemCmd
C:\Users\Doles\AppData\Local\Temp\ccw5cB6c.s:613    .text:000001a4 $d
C:\Users\Doles\AppData\Local\Temp\ccw5cB6c.s:618    .text:000001ac $t
C:\Users\Doles\AppData\Local\Temp\ccw5cB6c.s:623    .text:000001ac RCC_MCOConfig
C:\Users\Doles\AppData\Local\Temp\ccw5cB6c.s:639    .text:000001b4 $d
C:\Users\Doles\AppData\Local\Temp\ccw5cB6c.s:643    .text:000001b8 $t
C:\Users\Doles\AppData\Local\Temp\ccw5cB6c.s:648    .text:000001b8 RCC_SYSCLKConfig
C:\Users\Doles\AppData\Local\Temp\ccw5cB6c.s:675    .text:000001c8 $d
C:\Users\Doles\AppData\Local\Temp\ccw5cB6c.s:679    .text:000001cc $t
C:\Users\Doles\AppData\Local\Temp\ccw5cB6c.s:684    .text:000001cc RCC_GetSYSCLKSource
C:\Users\Doles\AppData\Local\Temp\ccw5cB6c.s:701    .text:000001d8 $d
C:\Users\Doles\AppData\Local\Temp\ccw5cB6c.s:705    .text:000001dc $t
C:\Users\Doles\AppData\Local\Temp\ccw5cB6c.s:710    .text:000001dc RCC_HCLKConfig
C:\Users\Doles\AppData\Local\Temp\ccw5cB6c.s:737    .text:000001ec $d
C:\Users\Doles\AppData\Local\Temp\ccw5cB6c.s:741    .text:000001f0 $t
ARM GAS  C:\Users\Doles\AppData\Local\Temp\ccw5cB6c.s 			page 121


C:\Users\Doles\AppData\Local\Temp\ccw5cB6c.s:746    .text:000001f0 RCC_PCLKConfig
C:\Users\Doles\AppData\Local\Temp\ccw5cB6c.s:773    .text:00000200 $d
C:\Users\Doles\AppData\Local\Temp\ccw5cB6c.s:778    .text:00000208 $t
C:\Users\Doles\AppData\Local\Temp\ccw5cB6c.s:783    .text:00000208 RCC_ADCCLKConfig
C:\Users\Doles\AppData\Local\Temp\ccw5cB6c.s:820    .text:0000022c $d
C:\Users\Doles\AppData\Local\Temp\ccw5cB6c.s:826    .text:00000238 $t
C:\Users\Doles\AppData\Local\Temp\ccw5cB6c.s:831    .text:00000238 RCC_CECCLKConfig
C:\Users\Doles\AppData\Local\Temp\ccw5cB6c.s:855    .text:0000024c $d
C:\Users\Doles\AppData\Local\Temp\ccw5cB6c.s:859    .text:00000250 $t
C:\Users\Doles\AppData\Local\Temp\ccw5cB6c.s:864    .text:00000250 RCC_I2CCLKConfig
C:\Users\Doles\AppData\Local\Temp\ccw5cB6c.s:888    .text:00000264 $d
C:\Users\Doles\AppData\Local\Temp\ccw5cB6c.s:892    .text:00000268 $t
C:\Users\Doles\AppData\Local\Temp\ccw5cB6c.s:897    .text:00000268 RCC_USARTCLKConfig
C:\Users\Doles\AppData\Local\Temp\ccw5cB6c.s:921    .text:0000027c $d
C:\Users\Doles\AppData\Local\Temp\ccw5cB6c.s:926    .text:00000280 $t
C:\Users\Doles\AppData\Local\Temp\ccw5cB6c.s:931    .text:00000280 RCC_GetClocksFreq
C:\Users\Doles\AppData\Local\Temp\ccw5cB6c.s:1134   .text:00000348 $d
C:\Users\Doles\AppData\Local\Temp\ccw5cB6c.s:1143   .text:00000360 $t
C:\Users\Doles\AppData\Local\Temp\ccw5cB6c.s:1148   .text:00000360 RCC_RTCCLKConfig
C:\Users\Doles\AppData\Local\Temp\ccw5cB6c.s:1167   .text:0000036c $d
C:\Users\Doles\AppData\Local\Temp\ccw5cB6c.s:1171   .text:00000370 $t
C:\Users\Doles\AppData\Local\Temp\ccw5cB6c.s:1176   .text:00000370 RCC_RTCCLKCmd
C:\Users\Doles\AppData\Local\Temp\ccw5cB6c.s:1204   .text:0000038c $d
C:\Users\Doles\AppData\Local\Temp\ccw5cB6c.s:1209   .text:00000394 $t
C:\Users\Doles\AppData\Local\Temp\ccw5cB6c.s:1214   .text:00000394 RCC_BackupResetCmd
C:\Users\Doles\AppData\Local\Temp\ccw5cB6c.s:1242   .text:000003b0 $d
C:\Users\Doles\AppData\Local\Temp\ccw5cB6c.s:1247   .text:000003b8 $t
C:\Users\Doles\AppData\Local\Temp\ccw5cB6c.s:1252   .text:000003b8 RCC_AHBPeriphClockCmd
C:\Users\Doles\AppData\Local\Temp\ccw5cB6c.s:1281   .text:000003cc $d
C:\Users\Doles\AppData\Local\Temp\ccw5cB6c.s:1285   .text:000003d0 $t
C:\Users\Doles\AppData\Local\Temp\ccw5cB6c.s:1290   .text:000003d0 RCC_APB2PeriphClockCmd
C:\Users\Doles\AppData\Local\Temp\ccw5cB6c.s:1319   .text:000003e4 $d
C:\Users\Doles\AppData\Local\Temp\ccw5cB6c.s:1323   .text:000003e8 $t
C:\Users\Doles\AppData\Local\Temp\ccw5cB6c.s:1328   .text:000003e8 RCC_APB1PeriphClockCmd
C:\Users\Doles\AppData\Local\Temp\ccw5cB6c.s:1357   .text:000003fc $d
C:\Users\Doles\AppData\Local\Temp\ccw5cB6c.s:1361   .text:00000400 $t
C:\Users\Doles\AppData\Local\Temp\ccw5cB6c.s:1366   .text:00000400 RCC_AHBPeriphResetCmd
C:\Users\Doles\AppData\Local\Temp\ccw5cB6c.s:1395   .text:00000414 $d
C:\Users\Doles\AppData\Local\Temp\ccw5cB6c.s:1399   .text:00000418 $t
C:\Users\Doles\AppData\Local\Temp\ccw5cB6c.s:1404   .text:00000418 RCC_APB2PeriphResetCmd
C:\Users\Doles\AppData\Local\Temp\ccw5cB6c.s:1433   .text:0000042c $d
C:\Users\Doles\AppData\Local\Temp\ccw5cB6c.s:1437   .text:00000430 $t
C:\Users\Doles\AppData\Local\Temp\ccw5cB6c.s:1442   .text:00000430 RCC_APB1PeriphResetCmd
C:\Users\Doles\AppData\Local\Temp\ccw5cB6c.s:1471   .text:00000444 $d
C:\Users\Doles\AppData\Local\Temp\ccw5cB6c.s:1475   .text:00000448 $t
C:\Users\Doles\AppData\Local\Temp\ccw5cB6c.s:1480   .text:00000448 RCC_ITConfig
C:\Users\Doles\AppData\Local\Temp\ccw5cB6c.s:1509   .text:0000045c $d
C:\Users\Doles\AppData\Local\Temp\ccw5cB6c.s:1513   .text:00000460 $t
C:\Users\Doles\AppData\Local\Temp\ccw5cB6c.s:1518   .text:00000460 RCC_GetFlagStatus
C:\Users\Doles\AppData\Local\Temp\ccw5cB6c.s:1574   .text:00000488 $d
C:\Users\Doles\AppData\Local\Temp\ccw5cB6c.s:1578   .text:0000048c $t
C:\Users\Doles\AppData\Local\Temp\ccw5cB6c.s:1583   .text:0000048c RCC_WaitForHSEStartUp
C:\Users\Doles\AppData\Local\Temp\ccw5cB6c.s:1641   .text:000004ba RCC_ClearFlag
C:\Users\Doles\AppData\Local\Temp\ccw5cB6c.s:1660   .text:000004c8 $d
C:\Users\Doles\AppData\Local\Temp\ccw5cB6c.s:1664   .text:000004cc $t
C:\Users\Doles\AppData\Local\Temp\ccw5cB6c.s:1669   .text:000004cc RCC_GetITStatus
C:\Users\Doles\AppData\Local\Temp\ccw5cB6c.s:1693   .text:000004dc $d
ARM GAS  C:\Users\Doles\AppData\Local\Temp\ccw5cB6c.s 			page 122


C:\Users\Doles\AppData\Local\Temp\ccw5cB6c.s:1697   .text:000004e0 $t
C:\Users\Doles\AppData\Local\Temp\ccw5cB6c.s:1702   .text:000004e0 RCC_ClearITPendingBit
C:\Users\Doles\AppData\Local\Temp\ccw5cB6c.s:1718   .text:000004e8 $d
C:\Users\Doles\AppData\Local\Temp\ccw5cB6c.s:1726   .data:00000000 APBAHBPrescTable
                     .debug_frame:00000010 $d

UNDEFINED SYMBOLS
__aeabi_uidiv
