ARM GAS  C:\Users\Doles\AppData\Local\Temp\ccq4gsS1.s 			page 1


   1              		.cpu cortex-m0
   2              		.fpu softvfp
   3              		.eabi_attribute 20, 1	@ Tag_ABI_FP_denormal
   4              		.eabi_attribute 21, 1	@ Tag_ABI_FP_exceptions
   5              		.eabi_attribute 23, 3	@ Tag_ABI_FP_number_model
   6              		.eabi_attribute 24, 1	@ Tag_ABI_align8_needed
   7              		.eabi_attribute 25, 1	@ Tag_ABI_align8_preserved
   8              		.eabi_attribute 26, 1	@ Tag_ABI_enum_size
   9              		.eabi_attribute 30, 4	@ Tag_ABI_optimization_goals
  10              		.eabi_attribute 34, 0	@ Tag_CPU_unaligned_access
  11              		.eabi_attribute 18, 4	@ Tag_ABI_PCS_wchar_t
  12              		.file	"stm32f0xx_gpio.c"
  13              	@ GNU C (GNU Tools for ARM Embedded Processors) version 4.9.3 20141119 (release) [ARM/embedded-4_9-
  14              	@	compiled by GNU C version 4.7.4, GMP version 4.3.2, MPFR version 2.4.2, MPC version 0.8.1
  15              	@ GGC heuristics: --param ggc-min-expand=100 --param ggc-min-heapsize=131072
  16              	@ options passed:  -I .
  17              	@ -I ..\..\STM32F0-Discovery_FW_V1.0.0\Libraries\CMSIS\ST\STM32F0xx\Include
  18              	@ -I ..\..\STM32F0-Discovery_FW_V1.0.0\Libraries\CMSIS\Include
  19              	@ -I ..\..\STM32F0-Discovery_FW_V1.0.0\Libraries\STM32F0xx_StdPeriph_Driver\inc
  20              	@ -I ..\..\STM32F0-Discovery_FW_V1.0.0\Utilities\STM32F0-Discovery -I .\inc
  21              	@ -imultilib armv6-m
  22              	@ -iprefix c:\program files (x86)\gnu tools arm embedded\4.9 2014q4\bin\../lib/gcc/arm-none-eabi/4.
  23              	@ -isysroot c:\program files (x86)\gnu tools arm embedded\4.9 2014q4\bin\../arm-none-eabi
  24              	@ -MD ..\..\STM32F0-Discovery_FW_V1.0.0\Libraries\STM32F0xx_StdPeriph_Driver\src\stm32f0xx_gpio.d
  25              	@ -MF .dep\stm32f0xx_gpio.o.d -MP
  26              	@ -MQ ..\..\STM32F0-Discovery_FW_V1.0.0\Libraries\STM32F0xx_StdPeriph_Driver\src\stm32f0xx_gpio.o
  27              	@ -D__USES_INITFINI__ -D STM32F0XX -D USE_STDPERIPH_DRIVER
  28              	@ -D RUN_FROM_FLASH=1
  29              	@ ..\..\STM32F0-Discovery_FW_V1.0.0\Libraries\STM32F0xx_StdPeriph_Driver\src\stm32f0xx_gpio.c
  30              	@ -mcpu=cortex-m0 -mthumb
  31              	@ -auxbase-strip ..\..\STM32F0-Discovery_FW_V1.0.0\Libraries\STM32F0xx_StdPeriph_Driver\src\stm32f0
  32              	@ -gdwarf-2 -Os -Wall -Wstrict-prototypes -fomit-frame-pointer
  33              	@ -fverbose-asm
  34              	@ options enabled:  -faggressive-loop-optimizations -fauto-inc-dec
  35              	@ -fbranch-count-reg -fcaller-saves -fcombine-stack-adjustments -fcommon
  36              	@ -fcompare-elim -fcprop-registers -fcrossjumping -fcse-follow-jumps
  37              	@ -fdefer-pop -fdelete-null-pointer-checks -fdevirtualize
  38              	@ -fdevirtualize-speculatively -fdwarf2-cfi-asm -fearly-inlining
  39              	@ -feliminate-unused-debug-types -fexpensive-optimizations
  40              	@ -fforward-propagate -ffunction-cse -fgcse -fgcse-lm -fgnu-runtime
  41              	@ -fgnu-unique -fguess-branch-probability -fhoist-adjacent-loads -fident
  42              	@ -fif-conversion -fif-conversion2 -findirect-inlining -finline
  43              	@ -finline-atomics -finline-functions -finline-functions-called-once
  44              	@ -finline-small-functions -fipa-cp -fipa-profile -fipa-pure-const
  45              	@ -fipa-reference -fipa-sra -fira-hoist-pressure -fira-share-save-slots
  46              	@ -fira-share-spill-slots -fisolate-erroneous-paths-dereference -fivopts
  47              	@ -fkeep-static-consts -fleading-underscore -fmath-errno -fmerge-constants
  48              	@ -fmerge-debug-strings -fomit-frame-pointer -foptimize-sibling-calls
  49              	@ -fpartial-inlining -fpeephole -fpeephole2 -fprefetch-loop-arrays
  50              	@ -freg-struct-return -freorder-blocks -freorder-functions
  51              	@ -frerun-cse-after-loop -fsched-critical-path-heuristic
  52              	@ -fsched-dep-count-heuristic -fsched-group-heuristic -fsched-interblock
  53              	@ -fsched-last-insn-heuristic -fsched-pressure -fsched-rank-heuristic
  54              	@ -fsched-spec -fsched-spec-insn-heuristic -fsched-stalled-insns-dep
  55              	@ -fschedule-insns2 -fsection-anchors -fshow-column -fshrink-wrap
  56              	@ -fsigned-zeros -fsplit-ivs-in-unroller -fsplit-wide-types
  57              	@ -fstrict-aliasing -fstrict-overflow -fstrict-volatile-bitfields
ARM GAS  C:\Users\Doles\AppData\Local\Temp\ccq4gsS1.s 			page 2


  58              	@ -fsync-libcalls -fthread-jumps -ftoplevel-reorder -ftrapping-math
  59              	@ -ftree-bit-ccp -ftree-builtin-call-dce -ftree-ccp -ftree-ch
  60              	@ -ftree-coalesce-vars -ftree-copy-prop -ftree-copyrename -ftree-cselim
  61              	@ -ftree-dce -ftree-dominator-opts -ftree-dse -ftree-forwprop -ftree-fre
  62              	@ -ftree-loop-if-convert -ftree-loop-im -ftree-loop-ivcanon
  63              	@ -ftree-loop-optimize -ftree-parallelize-loops= -ftree-phiprop -ftree-pre
  64              	@ -ftree-pta -ftree-reassoc -ftree-scev-cprop -ftree-sink -ftree-slsr
  65              	@ -ftree-sra -ftree-switch-conversion -ftree-tail-merge -ftree-ter
  66              	@ -ftree-vrp -funit-at-a-time -fvar-tracking -fvar-tracking-assignments
  67              	@ -fverbose-asm -fzero-initialized-in-bss -mlittle-endian -mlra
  68              	@ -mpic-data-is-text-relative -msched-prolog -mthumb
  69              	@ -mvectorize-with-neon-quad
  70              	
  71              		.text
  72              	.Ltext0:
  73              		.cfi_sections	.debug_frame
  74              		.align	1
  75              		.global	GPIO_DeInit
  76              		.code	16
  77              		.thumb_func
  78              		.type	GPIO_DeInit, %function
  79              	GPIO_DeInit:
  80              	.LFB32:
  81              		.file 1 "..\\..\\STM32F0-Discovery_FW_V1.0.0\\Libraries\\STM32F0xx_StdPeriph_Driver\\src\\stm32f0x
   1:..\..\STM32F0-Discovery_FW_V1.0.0\Libraries\STM32F0xx_StdPeriph_Driver\src/stm32f0xx_gpio.c **** /**
   2:..\..\STM32F0-Discovery_FW_V1.0.0\Libraries\STM32F0xx_StdPeriph_Driver\src/stm32f0xx_gpio.c ****   ******************************************************************************
   3:..\..\STM32F0-Discovery_FW_V1.0.0\Libraries\STM32F0xx_StdPeriph_Driver\src/stm32f0xx_gpio.c ****   * @file    stm32f0xx_gpio.c
   4:..\..\STM32F0-Discovery_FW_V1.0.0\Libraries\STM32F0xx_StdPeriph_Driver\src/stm32f0xx_gpio.c ****   * @author  MCD Application Team
   5:..\..\STM32F0-Discovery_FW_V1.0.0\Libraries\STM32F0xx_StdPeriph_Driver\src/stm32f0xx_gpio.c ****   * @version V1.0.0
   6:..\..\STM32F0-Discovery_FW_V1.0.0\Libraries\STM32F0xx_StdPeriph_Driver\src/stm32f0xx_gpio.c ****   * @date    23-March-2012
   7:..\..\STM32F0-Discovery_FW_V1.0.0\Libraries\STM32F0xx_StdPeriph_Driver\src/stm32f0xx_gpio.c ****   * @brief   This file provides firmware functions to manage the following 
   8:..\..\STM32F0-Discovery_FW_V1.0.0\Libraries\STM32F0xx_StdPeriph_Driver\src/stm32f0xx_gpio.c ****   *          functionalities of the GPIO peripheral:
   9:..\..\STM32F0-Discovery_FW_V1.0.0\Libraries\STM32F0xx_StdPeriph_Driver\src/stm32f0xx_gpio.c ****   *           + Initialization and Configuration functions
  10:..\..\STM32F0-Discovery_FW_V1.0.0\Libraries\STM32F0xx_StdPeriph_Driver\src/stm32f0xx_gpio.c ****   *           + GPIO Read and Write functions
  11:..\..\STM32F0-Discovery_FW_V1.0.0\Libraries\STM32F0xx_StdPeriph_Driver\src/stm32f0xx_gpio.c ****   *           + GPIO Alternate functions configuration functions
  12:..\..\STM32F0-Discovery_FW_V1.0.0\Libraries\STM32F0xx_StdPeriph_Driver\src/stm32f0xx_gpio.c ****   *
  13:..\..\STM32F0-Discovery_FW_V1.0.0\Libraries\STM32F0xx_StdPeriph_Driver\src/stm32f0xx_gpio.c ****   *  @verbatim
  14:..\..\STM32F0-Discovery_FW_V1.0.0\Libraries\STM32F0xx_StdPeriph_Driver\src/stm32f0xx_gpio.c ****   *
  15:..\..\STM32F0-Discovery_FW_V1.0.0\Libraries\STM32F0xx_StdPeriph_Driver\src/stm32f0xx_gpio.c ****   *
  16:..\..\STM32F0-Discovery_FW_V1.0.0\Libraries\STM32F0xx_StdPeriph_Driver\src/stm32f0xx_gpio.c ****     ===========================================================================
  17:..\..\STM32F0-Discovery_FW_V1.0.0\Libraries\STM32F0xx_StdPeriph_Driver\src/stm32f0xx_gpio.c ****                          ##### How to use this driver #####
  18:..\..\STM32F0-Discovery_FW_V1.0.0\Libraries\STM32F0xx_StdPeriph_Driver\src/stm32f0xx_gpio.c ****     ===========================================================================
  19:..\..\STM32F0-Discovery_FW_V1.0.0\Libraries\STM32F0xx_StdPeriph_Driver\src/stm32f0xx_gpio.c ****       [..]
  20:..\..\STM32F0-Discovery_FW_V1.0.0\Libraries\STM32F0xx_StdPeriph_Driver\src/stm32f0xx_gpio.c ****       (#) Enable the GPIO AHB clock using RCC_AHBPeriphClockCmd()
  21:..\..\STM32F0-Discovery_FW_V1.0.0\Libraries\STM32F0xx_StdPeriph_Driver\src/stm32f0xx_gpio.c ****       (#) Configure the GPIO pin(s) using GPIO_Init()
  22:..\..\STM32F0-Discovery_FW_V1.0.0\Libraries\STM32F0xx_StdPeriph_Driver\src/stm32f0xx_gpio.c ****           Four possible configuration are available for each pin:
  23:..\..\STM32F0-Discovery_FW_V1.0.0\Libraries\STM32F0xx_StdPeriph_Driver\src/stm32f0xx_gpio.c ****          (++) Input: Floating, Pull-up, Pull-down.
  24:..\..\STM32F0-Discovery_FW_V1.0.0\Libraries\STM32F0xx_StdPeriph_Driver\src/stm32f0xx_gpio.c ****          (++) Output: Push-Pull (Pull-up, Pull-down or no Pull)
  25:..\..\STM32F0-Discovery_FW_V1.0.0\Libraries\STM32F0xx_StdPeriph_Driver\src/stm32f0xx_gpio.c ****                       Open Drain (Pull-up, Pull-down or no Pull).
  26:..\..\STM32F0-Discovery_FW_V1.0.0\Libraries\STM32F0xx_StdPeriph_Driver\src/stm32f0xx_gpio.c ****               In output mode, the speed is configurable: Low, Medium, Fast or High.
  27:..\..\STM32F0-Discovery_FW_V1.0.0\Libraries\STM32F0xx_StdPeriph_Driver\src/stm32f0xx_gpio.c ****          (++) Alternate Function: Push-Pull (Pull-up, Pull-down or no Pull)
  28:..\..\STM32F0-Discovery_FW_V1.0.0\Libraries\STM32F0xx_StdPeriph_Driver\src/stm32f0xx_gpio.c ****                                   Open Drain (Pull-up, Pull-down or no Pull).
  29:..\..\STM32F0-Discovery_FW_V1.0.0\Libraries\STM32F0xx_StdPeriph_Driver\src/stm32f0xx_gpio.c ****          (++) Analog: required mode when a pin is to be used as ADC channel,
  30:..\..\STM32F0-Discovery_FW_V1.0.0\Libraries\STM32F0xx_StdPeriph_Driver\src/stm32f0xx_gpio.c ****               DAC output or comparator input.
  31:..\..\STM32F0-Discovery_FW_V1.0.0\Libraries\STM32F0xx_StdPeriph_Driver\src/stm32f0xx_gpio.c ****       (#) Peripherals alternate function:
  32:..\..\STM32F0-Discovery_FW_V1.0.0\Libraries\STM32F0xx_StdPeriph_Driver\src/stm32f0xx_gpio.c ****          (++) For ADC, DAC and comparators, configure the desired pin in analog 
  33:..\..\STM32F0-Discovery_FW_V1.0.0\Libraries\STM32F0xx_StdPeriph_Driver\src/stm32f0xx_gpio.c ****               mode using GPIO_InitStruct->GPIO_Mode = GPIO_Mode_AN
ARM GAS  C:\Users\Doles\AppData\Local\Temp\ccq4gsS1.s 			page 3


  34:..\..\STM32F0-Discovery_FW_V1.0.0\Libraries\STM32F0xx_StdPeriph_Driver\src/stm32f0xx_gpio.c ****          (++) For other peripherals (TIM, USART...):
  35:..\..\STM32F0-Discovery_FW_V1.0.0\Libraries\STM32F0xx_StdPeriph_Driver\src/stm32f0xx_gpio.c ****               (+++) Connect the pin to the desired peripherals' Alternate 
  36:..\..\STM32F0-Discovery_FW_V1.0.0\Libraries\STM32F0xx_StdPeriph_Driver\src/stm32f0xx_gpio.c ****                     Function (AF) using GPIO_PinAFConfig() function. For PortC, 
  37:..\..\STM32F0-Discovery_FW_V1.0.0\Libraries\STM32F0xx_StdPeriph_Driver\src/stm32f0xx_gpio.c ****                     PortD and PortF, no configuration is needed.
  38:..\..\STM32F0-Discovery_FW_V1.0.0\Libraries\STM32F0xx_StdPeriph_Driver\src/stm32f0xx_gpio.c ****               (+++) Configure the desired pin in alternate function mode using
  39:..\..\STM32F0-Discovery_FW_V1.0.0\Libraries\STM32F0xx_StdPeriph_Driver\src/stm32f0xx_gpio.c ****                     GPIO_InitStruct->GPIO_Mode = GPIO_Mode_AF
  40:..\..\STM32F0-Discovery_FW_V1.0.0\Libraries\STM32F0xx_StdPeriph_Driver\src/stm32f0xx_gpio.c ****               (+++) Select the type, pull-up/pull-down and output speed via 
  41:..\..\STM32F0-Discovery_FW_V1.0.0\Libraries\STM32F0xx_StdPeriph_Driver\src/stm32f0xx_gpio.c ****                     GPIO_PuPd, GPIO_OType and GPIO_Speed members
  42:..\..\STM32F0-Discovery_FW_V1.0.0\Libraries\STM32F0xx_StdPeriph_Driver\src/stm32f0xx_gpio.c ****               (+++) Call GPIO_Init() function
  43:..\..\STM32F0-Discovery_FW_V1.0.0\Libraries\STM32F0xx_StdPeriph_Driver\src/stm32f0xx_gpio.c ****       (#) To get the level of a pin configured in input mode use GPIO_ReadInputDataBit()
  44:..\..\STM32F0-Discovery_FW_V1.0.0\Libraries\STM32F0xx_StdPeriph_Driver\src/stm32f0xx_gpio.c ****       (#) To set/reset the level of a pin configured in output mode use
  45:..\..\STM32F0-Discovery_FW_V1.0.0\Libraries\STM32F0xx_StdPeriph_Driver\src/stm32f0xx_gpio.c ****           GPIO_SetBits()/GPIO_ResetBits()
  46:..\..\STM32F0-Discovery_FW_V1.0.0\Libraries\STM32F0xx_StdPeriph_Driver\src/stm32f0xx_gpio.c ****       (#) During and just after reset, the alternate functions are not active and 
  47:..\..\STM32F0-Discovery_FW_V1.0.0\Libraries\STM32F0xx_StdPeriph_Driver\src/stm32f0xx_gpio.c ****           the GPIO pins are configured in input floating mode (except JTAG pins).
  48:..\..\STM32F0-Discovery_FW_V1.0.0\Libraries\STM32F0xx_StdPeriph_Driver\src/stm32f0xx_gpio.c ****       (#) The LSE oscillator pins OSC32_IN and OSC32_OUT can be used as 
  49:..\..\STM32F0-Discovery_FW_V1.0.0\Libraries\STM32F0xx_StdPeriph_Driver\src/stm32f0xx_gpio.c ****           general-purpose (PC14 and PC15, respectively) when the LSE oscillator 
  50:..\..\STM32F0-Discovery_FW_V1.0.0\Libraries\STM32F0xx_StdPeriph_Driver\src/stm32f0xx_gpio.c ****           is off. The LSE has priority over the GPIO function.
  51:..\..\STM32F0-Discovery_FW_V1.0.0\Libraries\STM32F0xx_StdPeriph_Driver\src/stm32f0xx_gpio.c ****       (#) The HSE oscillator pins OSC_IN/OSC_OUT can be used as general-purpose 
  52:..\..\STM32F0-Discovery_FW_V1.0.0\Libraries\STM32F0xx_StdPeriph_Driver\src/stm32f0xx_gpio.c ****           PD0 and PD1, respectively, when the HSE oscillator is off. The HSE has 
  53:..\..\STM32F0-Discovery_FW_V1.0.0\Libraries\STM32F0xx_StdPeriph_Driver\src/stm32f0xx_gpio.c ****           priority over the GPIO function.
  54:..\..\STM32F0-Discovery_FW_V1.0.0\Libraries\STM32F0xx_StdPeriph_Driver\src/stm32f0xx_gpio.c ****     @endverbatim
  55:..\..\STM32F0-Discovery_FW_V1.0.0\Libraries\STM32F0xx_StdPeriph_Driver\src/stm32f0xx_gpio.c ****   ******************************************************************************
  56:..\..\STM32F0-Discovery_FW_V1.0.0\Libraries\STM32F0xx_StdPeriph_Driver\src/stm32f0xx_gpio.c ****   * @attention
  57:..\..\STM32F0-Discovery_FW_V1.0.0\Libraries\STM32F0xx_StdPeriph_Driver\src/stm32f0xx_gpio.c ****   *
  58:..\..\STM32F0-Discovery_FW_V1.0.0\Libraries\STM32F0xx_StdPeriph_Driver\src/stm32f0xx_gpio.c ****   * <h2><center>&copy; COPYRIGHT 2012 STMicroelectronics</center></h2>
  59:..\..\STM32F0-Discovery_FW_V1.0.0\Libraries\STM32F0xx_StdPeriph_Driver\src/stm32f0xx_gpio.c ****   *
  60:..\..\STM32F0-Discovery_FW_V1.0.0\Libraries\STM32F0xx_StdPeriph_Driver\src/stm32f0xx_gpio.c ****   * Licensed under MCD-ST Liberty SW License Agreement V2, (the "License");
  61:..\..\STM32F0-Discovery_FW_V1.0.0\Libraries\STM32F0xx_StdPeriph_Driver\src/stm32f0xx_gpio.c ****   * You may not use this file except in compliance with the License.
  62:..\..\STM32F0-Discovery_FW_V1.0.0\Libraries\STM32F0xx_StdPeriph_Driver\src/stm32f0xx_gpio.c ****   * You may obtain a copy of the License at:
  63:..\..\STM32F0-Discovery_FW_V1.0.0\Libraries\STM32F0xx_StdPeriph_Driver\src/stm32f0xx_gpio.c ****   *
  64:..\..\STM32F0-Discovery_FW_V1.0.0\Libraries\STM32F0xx_StdPeriph_Driver\src/stm32f0xx_gpio.c ****   *        http://www.st.com/software_license_agreement_liberty_v2
  65:..\..\STM32F0-Discovery_FW_V1.0.0\Libraries\STM32F0xx_StdPeriph_Driver\src/stm32f0xx_gpio.c ****   *
  66:..\..\STM32F0-Discovery_FW_V1.0.0\Libraries\STM32F0xx_StdPeriph_Driver\src/stm32f0xx_gpio.c ****   * Unless required by applicable law or agreed to in writing, software 
  67:..\..\STM32F0-Discovery_FW_V1.0.0\Libraries\STM32F0xx_StdPeriph_Driver\src/stm32f0xx_gpio.c ****   * distributed under the License is distributed on an "AS IS" BASIS, 
  68:..\..\STM32F0-Discovery_FW_V1.0.0\Libraries\STM32F0xx_StdPeriph_Driver\src/stm32f0xx_gpio.c ****   * WITHOUT WARRANTIES OR CONDITIONS OF ANY KIND, either express or implied.
  69:..\..\STM32F0-Discovery_FW_V1.0.0\Libraries\STM32F0xx_StdPeriph_Driver\src/stm32f0xx_gpio.c ****   * See the License for the specific language governing permissions and
  70:..\..\STM32F0-Discovery_FW_V1.0.0\Libraries\STM32F0xx_StdPeriph_Driver\src/stm32f0xx_gpio.c ****   * limitations under the License.
  71:..\..\STM32F0-Discovery_FW_V1.0.0\Libraries\STM32F0xx_StdPeriph_Driver\src/stm32f0xx_gpio.c ****   *
  72:..\..\STM32F0-Discovery_FW_V1.0.0\Libraries\STM32F0xx_StdPeriph_Driver\src/stm32f0xx_gpio.c ****   ******************************************************************************
  73:..\..\STM32F0-Discovery_FW_V1.0.0\Libraries\STM32F0xx_StdPeriph_Driver\src/stm32f0xx_gpio.c ****   */
  74:..\..\STM32F0-Discovery_FW_V1.0.0\Libraries\STM32F0xx_StdPeriph_Driver\src/stm32f0xx_gpio.c **** 
  75:..\..\STM32F0-Discovery_FW_V1.0.0\Libraries\STM32F0xx_StdPeriph_Driver\src/stm32f0xx_gpio.c **** /* Includes ------------------------------------------------------------------*/
  76:..\..\STM32F0-Discovery_FW_V1.0.0\Libraries\STM32F0xx_StdPeriph_Driver\src/stm32f0xx_gpio.c **** #include "stm32f0xx_gpio.h"
  77:..\..\STM32F0-Discovery_FW_V1.0.0\Libraries\STM32F0xx_StdPeriph_Driver\src/stm32f0xx_gpio.c **** #include "stm32f0xx_rcc.h"
  78:..\..\STM32F0-Discovery_FW_V1.0.0\Libraries\STM32F0xx_StdPeriph_Driver\src/stm32f0xx_gpio.c **** 
  79:..\..\STM32F0-Discovery_FW_V1.0.0\Libraries\STM32F0xx_StdPeriph_Driver\src/stm32f0xx_gpio.c **** /** @addtogroup STM32F0xx_StdPeriph_Driver
  80:..\..\STM32F0-Discovery_FW_V1.0.0\Libraries\STM32F0xx_StdPeriph_Driver\src/stm32f0xx_gpio.c ****   * @{
  81:..\..\STM32F0-Discovery_FW_V1.0.0\Libraries\STM32F0xx_StdPeriph_Driver\src/stm32f0xx_gpio.c ****   */
  82:..\..\STM32F0-Discovery_FW_V1.0.0\Libraries\STM32F0xx_StdPeriph_Driver\src/stm32f0xx_gpio.c **** 
  83:..\..\STM32F0-Discovery_FW_V1.0.0\Libraries\STM32F0xx_StdPeriph_Driver\src/stm32f0xx_gpio.c **** /** @defgroup GPIO 
  84:..\..\STM32F0-Discovery_FW_V1.0.0\Libraries\STM32F0xx_StdPeriph_Driver\src/stm32f0xx_gpio.c ****   * @brief GPIO driver modules
  85:..\..\STM32F0-Discovery_FW_V1.0.0\Libraries\STM32F0xx_StdPeriph_Driver\src/stm32f0xx_gpio.c ****   * @{
  86:..\..\STM32F0-Discovery_FW_V1.0.0\Libraries\STM32F0xx_StdPeriph_Driver\src/stm32f0xx_gpio.c ****   */
  87:..\..\STM32F0-Discovery_FW_V1.0.0\Libraries\STM32F0xx_StdPeriph_Driver\src/stm32f0xx_gpio.c **** 
  88:..\..\STM32F0-Discovery_FW_V1.0.0\Libraries\STM32F0xx_StdPeriph_Driver\src/stm32f0xx_gpio.c **** /* Private typedef -----------------------------------------------------------*/
  89:..\..\STM32F0-Discovery_FW_V1.0.0\Libraries\STM32F0xx_StdPeriph_Driver\src/stm32f0xx_gpio.c **** /* Private define ------------------------------------------------------------*/
  90:..\..\STM32F0-Discovery_FW_V1.0.0\Libraries\STM32F0xx_StdPeriph_Driver\src/stm32f0xx_gpio.c **** /* Private macro -------------------------------------------------------------*/
ARM GAS  C:\Users\Doles\AppData\Local\Temp\ccq4gsS1.s 			page 4


  91:..\..\STM32F0-Discovery_FW_V1.0.0\Libraries\STM32F0xx_StdPeriph_Driver\src/stm32f0xx_gpio.c **** /* Private variables ---------------------------------------------------------*/
  92:..\..\STM32F0-Discovery_FW_V1.0.0\Libraries\STM32F0xx_StdPeriph_Driver\src/stm32f0xx_gpio.c **** /* Private function prototypes -----------------------------------------------*/
  93:..\..\STM32F0-Discovery_FW_V1.0.0\Libraries\STM32F0xx_StdPeriph_Driver\src/stm32f0xx_gpio.c **** /* Private functions ---------------------------------------------------------*/
  94:..\..\STM32F0-Discovery_FW_V1.0.0\Libraries\STM32F0xx_StdPeriph_Driver\src/stm32f0xx_gpio.c **** 
  95:..\..\STM32F0-Discovery_FW_V1.0.0\Libraries\STM32F0xx_StdPeriph_Driver\src/stm32f0xx_gpio.c **** /** @defgroup GPIO_Private_Functions 
  96:..\..\STM32F0-Discovery_FW_V1.0.0\Libraries\STM32F0xx_StdPeriph_Driver\src/stm32f0xx_gpio.c ****   * @{
  97:..\..\STM32F0-Discovery_FW_V1.0.0\Libraries\STM32F0xx_StdPeriph_Driver\src/stm32f0xx_gpio.c ****   */
  98:..\..\STM32F0-Discovery_FW_V1.0.0\Libraries\STM32F0xx_StdPeriph_Driver\src/stm32f0xx_gpio.c **** 
  99:..\..\STM32F0-Discovery_FW_V1.0.0\Libraries\STM32F0xx_StdPeriph_Driver\src/stm32f0xx_gpio.c **** /** @defgroup GPIO_Group1 Initialization and Configuration
 100:..\..\STM32F0-Discovery_FW_V1.0.0\Libraries\STM32F0xx_StdPeriph_Driver\src/stm32f0xx_gpio.c ****  *  @brief   Initialization and Configuration
 101:..\..\STM32F0-Discovery_FW_V1.0.0\Libraries\STM32F0xx_StdPeriph_Driver\src/stm32f0xx_gpio.c ****  *
 102:..\..\STM32F0-Discovery_FW_V1.0.0\Libraries\STM32F0xx_StdPeriph_Driver\src/stm32f0xx_gpio.c **** @verbatim
 103:..\..\STM32F0-Discovery_FW_V1.0.0\Libraries\STM32F0xx_StdPeriph_Driver\src/stm32f0xx_gpio.c ****  ===============================================================================
 104:..\..\STM32F0-Discovery_FW_V1.0.0\Libraries\STM32F0xx_StdPeriph_Driver\src/stm32f0xx_gpio.c ****                     ##### Initialization and Configuration #####
 105:..\..\STM32F0-Discovery_FW_V1.0.0\Libraries\STM32F0xx_StdPeriph_Driver\src/stm32f0xx_gpio.c ****  ===============================================================================
 106:..\..\STM32F0-Discovery_FW_V1.0.0\Libraries\STM32F0xx_StdPeriph_Driver\src/stm32f0xx_gpio.c **** 
 107:..\..\STM32F0-Discovery_FW_V1.0.0\Libraries\STM32F0xx_StdPeriph_Driver\src/stm32f0xx_gpio.c **** @endverbatim
 108:..\..\STM32F0-Discovery_FW_V1.0.0\Libraries\STM32F0xx_StdPeriph_Driver\src/stm32f0xx_gpio.c ****   * @{
 109:..\..\STM32F0-Discovery_FW_V1.0.0\Libraries\STM32F0xx_StdPeriph_Driver\src/stm32f0xx_gpio.c ****   */
 110:..\..\STM32F0-Discovery_FW_V1.0.0\Libraries\STM32F0xx_StdPeriph_Driver\src/stm32f0xx_gpio.c **** 
 111:..\..\STM32F0-Discovery_FW_V1.0.0\Libraries\STM32F0xx_StdPeriph_Driver\src/stm32f0xx_gpio.c **** /**
 112:..\..\STM32F0-Discovery_FW_V1.0.0\Libraries\STM32F0xx_StdPeriph_Driver\src/stm32f0xx_gpio.c ****   * @brief  Deinitializes the GPIOx peripheral registers to their default reset 
 113:..\..\STM32F0-Discovery_FW_V1.0.0\Libraries\STM32F0xx_StdPeriph_Driver\src/stm32f0xx_gpio.c ****   *         values.
 114:..\..\STM32F0-Discovery_FW_V1.0.0\Libraries\STM32F0xx_StdPeriph_Driver\src/stm32f0xx_gpio.c ****   * @param  GPIOx: where x can be (A, B, C, D or F) to select the GPIO peripheral.
 115:..\..\STM32F0-Discovery_FW_V1.0.0\Libraries\STM32F0xx_StdPeriph_Driver\src/stm32f0xx_gpio.c ****   * @retval None
 116:..\..\STM32F0-Discovery_FW_V1.0.0\Libraries\STM32F0xx_StdPeriph_Driver\src/stm32f0xx_gpio.c ****   */
 117:..\..\STM32F0-Discovery_FW_V1.0.0\Libraries\STM32F0xx_StdPeriph_Driver\src/stm32f0xx_gpio.c **** void GPIO_DeInit(GPIO_TypeDef* GPIOx)
 118:..\..\STM32F0-Discovery_FW_V1.0.0\Libraries\STM32F0xx_StdPeriph_Driver\src/stm32f0xx_gpio.c **** {
  82              		.loc 1 118 0
  83              		.cfi_startproc
  84              	.LVL0:
  85 0000 08B5     		push	{r3, lr}	@
  86              	.LCFI0:
  87              		.cfi_def_cfa_offset 8
  88              		.cfi_offset 3, -8
  89              		.cfi_offset 14, -4
 119:..\..\STM32F0-Discovery_FW_V1.0.0\Libraries\STM32F0xx_StdPeriph_Driver\src/stm32f0xx_gpio.c ****   /* Check the parameters */
 120:..\..\STM32F0-Discovery_FW_V1.0.0\Libraries\STM32F0xx_StdPeriph_Driver\src/stm32f0xx_gpio.c ****   assert_param(IS_GPIO_ALL_PERIPH(GPIOx));
 121:..\..\STM32F0-Discovery_FW_V1.0.0\Libraries\STM32F0xx_StdPeriph_Driver\src/stm32f0xx_gpio.c **** 
 122:..\..\STM32F0-Discovery_FW_V1.0.0\Libraries\STM32F0xx_StdPeriph_Driver\src/stm32f0xx_gpio.c ****   if(GPIOx == GPIOA)
  90              		.loc 1 122 0
  91 0002 9023     		mov	r3, #144	@ tmp111,
  92 0004 DB05     		lsl	r3, r3, #23	@ tmp111, tmp111,
  93 0006 9842     		cmp	r0, r3	@ GPIOx, tmp111
  94 0008 07D1     		bne	.L2	@,
 123:..\..\STM32F0-Discovery_FW_V1.0.0\Libraries\STM32F0xx_StdPeriph_Driver\src/stm32f0xx_gpio.c ****   {
 124:..\..\STM32F0-Discovery_FW_V1.0.0\Libraries\STM32F0xx_StdPeriph_Driver\src/stm32f0xx_gpio.c ****     RCC_AHBPeriphResetCmd(RCC_AHBPeriph_GPIOA, ENABLE);
  95              		.loc 1 124 0
  96 000a 8020     		mov	r0, #128	@,
  97              	.LVL1:
  98 000c 0121     		mov	r1, #1	@,
  99 000e 8002     		lsl	r0, r0, #10	@,,
 100 0010 FFF7FEFF 		bl	RCC_AHBPeriphResetCmd	@
 101              	.LVL2:
 125:..\..\STM32F0-Discovery_FW_V1.0.0\Libraries\STM32F0xx_StdPeriph_Driver\src/stm32f0xx_gpio.c ****     RCC_AHBPeriphResetCmd(RCC_AHBPeriph_GPIOA, DISABLE);
 102              		.loc 1 125 0
 103 0014 8020     		mov	r0, #128	@,
ARM GAS  C:\Users\Doles\AppData\Local\Temp\ccq4gsS1.s 			page 5


 104 0016 8002     		lsl	r0, r0, #10	@,,
 105 0018 2AE0     		b	.L7	@
 106              	.LVL3:
 107              	.L2:
 126:..\..\STM32F0-Discovery_FW_V1.0.0\Libraries\STM32F0xx_StdPeriph_Driver\src/stm32f0xx_gpio.c ****   }
 127:..\..\STM32F0-Discovery_FW_V1.0.0\Libraries\STM32F0xx_StdPeriph_Driver\src/stm32f0xx_gpio.c ****   else if(GPIOx == GPIOB)
 108              		.loc 1 127 0
 109 001a 174B     		ldr	r3, .L9	@ tmp114,
 110 001c 9842     		cmp	r0, r3	@ GPIOx, tmp114
 111 001e 07D1     		bne	.L4	@,
 128:..\..\STM32F0-Discovery_FW_V1.0.0\Libraries\STM32F0xx_StdPeriph_Driver\src/stm32f0xx_gpio.c ****   {
 129:..\..\STM32F0-Discovery_FW_V1.0.0\Libraries\STM32F0xx_StdPeriph_Driver\src/stm32f0xx_gpio.c ****     RCC_AHBPeriphResetCmd(RCC_AHBPeriph_GPIOB, ENABLE);
 112              		.loc 1 129 0
 113 0020 8020     		mov	r0, #128	@,
 114              	.LVL4:
 115 0022 0121     		mov	r1, #1	@,
 116 0024 C002     		lsl	r0, r0, #11	@,,
 117 0026 FFF7FEFF 		bl	RCC_AHBPeriphResetCmd	@
 118              	.LVL5:
 130:..\..\STM32F0-Discovery_FW_V1.0.0\Libraries\STM32F0xx_StdPeriph_Driver\src/stm32f0xx_gpio.c ****     RCC_AHBPeriphResetCmd(RCC_AHBPeriph_GPIOB, DISABLE);
 119              		.loc 1 130 0
 120 002a 8020     		mov	r0, #128	@,
 121 002c C002     		lsl	r0, r0, #11	@,,
 122 002e 1FE0     		b	.L7	@
 123              	.LVL6:
 124              	.L4:
 131:..\..\STM32F0-Discovery_FW_V1.0.0\Libraries\STM32F0xx_StdPeriph_Driver\src/stm32f0xx_gpio.c ****   }
 132:..\..\STM32F0-Discovery_FW_V1.0.0\Libraries\STM32F0xx_StdPeriph_Driver\src/stm32f0xx_gpio.c ****   else if(GPIOx == GPIOC)
 125              		.loc 1 132 0
 126 0030 124B     		ldr	r3, .L9+4	@ tmp117,
 127 0032 9842     		cmp	r0, r3	@ GPIOx, tmp117
 128 0034 07D1     		bne	.L5	@,
 133:..\..\STM32F0-Discovery_FW_V1.0.0\Libraries\STM32F0xx_StdPeriph_Driver\src/stm32f0xx_gpio.c ****   {
 134:..\..\STM32F0-Discovery_FW_V1.0.0\Libraries\STM32F0xx_StdPeriph_Driver\src/stm32f0xx_gpio.c ****     RCC_AHBPeriphResetCmd(RCC_AHBPeriph_GPIOC, ENABLE);
 129              		.loc 1 134 0
 130 0036 8020     		mov	r0, #128	@,
 131              	.LVL7:
 132 0038 0121     		mov	r1, #1	@,
 133 003a 0003     		lsl	r0, r0, #12	@,,
 134 003c FFF7FEFF 		bl	RCC_AHBPeriphResetCmd	@
 135              	.LVL8:
 135:..\..\STM32F0-Discovery_FW_V1.0.0\Libraries\STM32F0xx_StdPeriph_Driver\src/stm32f0xx_gpio.c ****     RCC_AHBPeriphResetCmd(RCC_AHBPeriph_GPIOC, DISABLE);
 136              		.loc 1 135 0
 137 0040 8020     		mov	r0, #128	@,
 138 0042 0003     		lsl	r0, r0, #12	@,,
 139 0044 14E0     		b	.L7	@
 140              	.LVL9:
 141              	.L5:
 136:..\..\STM32F0-Discovery_FW_V1.0.0\Libraries\STM32F0xx_StdPeriph_Driver\src/stm32f0xx_gpio.c ****   }
 137:..\..\STM32F0-Discovery_FW_V1.0.0\Libraries\STM32F0xx_StdPeriph_Driver\src/stm32f0xx_gpio.c ****   else if(GPIOx == GPIOD)
 142              		.loc 1 137 0
 143 0046 0E4B     		ldr	r3, .L9+8	@ tmp120,
 144 0048 9842     		cmp	r0, r3	@ GPIOx, tmp120
 145 004a 07D1     		bne	.L6	@,
 138:..\..\STM32F0-Discovery_FW_V1.0.0\Libraries\STM32F0xx_StdPeriph_Driver\src/stm32f0xx_gpio.c ****   {
 139:..\..\STM32F0-Discovery_FW_V1.0.0\Libraries\STM32F0xx_StdPeriph_Driver\src/stm32f0xx_gpio.c ****     RCC_AHBPeriphResetCmd(RCC_AHBPeriph_GPIOD, ENABLE);
 146              		.loc 1 139 0
ARM GAS  C:\Users\Doles\AppData\Local\Temp\ccq4gsS1.s 			page 6


 147 004c 8020     		mov	r0, #128	@,
 148              	.LVL10:
 149 004e 0121     		mov	r1, #1	@,
 150 0050 4003     		lsl	r0, r0, #13	@,,
 151 0052 FFF7FEFF 		bl	RCC_AHBPeriphResetCmd	@
 152              	.LVL11:
 140:..\..\STM32F0-Discovery_FW_V1.0.0\Libraries\STM32F0xx_StdPeriph_Driver\src/stm32f0xx_gpio.c ****     RCC_AHBPeriphResetCmd(RCC_AHBPeriph_GPIOD, DISABLE);
 153              		.loc 1 140 0
 154 0056 8020     		mov	r0, #128	@,
 155 0058 4003     		lsl	r0, r0, #13	@,,
 156 005a 09E0     		b	.L7	@
 157              	.LVL12:
 158              	.L6:
 141:..\..\STM32F0-Discovery_FW_V1.0.0\Libraries\STM32F0xx_StdPeriph_Driver\src/stm32f0xx_gpio.c ****   }
 142:..\..\STM32F0-Discovery_FW_V1.0.0\Libraries\STM32F0xx_StdPeriph_Driver\src/stm32f0xx_gpio.c ****   else
 143:..\..\STM32F0-Discovery_FW_V1.0.0\Libraries\STM32F0xx_StdPeriph_Driver\src/stm32f0xx_gpio.c ****   {
 144:..\..\STM32F0-Discovery_FW_V1.0.0\Libraries\STM32F0xx_StdPeriph_Driver\src/stm32f0xx_gpio.c ****     if(GPIOx == GPIOF)
 159              		.loc 1 144 0
 160 005c 094B     		ldr	r3, .L9+12	@ tmp123,
 161 005e 9842     		cmp	r0, r3	@ GPIOx, tmp123
 162 0060 09D1     		bne	.L1	@,
 145:..\..\STM32F0-Discovery_FW_V1.0.0\Libraries\STM32F0xx_StdPeriph_Driver\src/stm32f0xx_gpio.c ****     {
 146:..\..\STM32F0-Discovery_FW_V1.0.0\Libraries\STM32F0xx_StdPeriph_Driver\src/stm32f0xx_gpio.c ****       RCC_AHBPeriphResetCmd(RCC_AHBPeriph_GPIOF, ENABLE);
 163              		.loc 1 146 0
 164 0062 8020     		mov	r0, #128	@,
 165              	.LVL13:
 166 0064 0121     		mov	r1, #1	@,
 167 0066 C003     		lsl	r0, r0, #15	@,,
 168 0068 FFF7FEFF 		bl	RCC_AHBPeriphResetCmd	@
 169              	.LVL14:
 147:..\..\STM32F0-Discovery_FW_V1.0.0\Libraries\STM32F0xx_StdPeriph_Driver\src/stm32f0xx_gpio.c ****       RCC_AHBPeriphResetCmd(RCC_AHBPeriph_GPIOF, DISABLE);
 170              		.loc 1 147 0
 171 006c 8020     		mov	r0, #128	@,
 172 006e C003     		lsl	r0, r0, #15	@,,
 173              	.L7:
 174 0070 0021     		mov	r1, #0	@,
 175 0072 FFF7FEFF 		bl	RCC_AHBPeriphResetCmd	@
 176              	.LVL15:
 177              	.L1:
 148:..\..\STM32F0-Discovery_FW_V1.0.0\Libraries\STM32F0xx_StdPeriph_Driver\src/stm32f0xx_gpio.c ****     }
 149:..\..\STM32F0-Discovery_FW_V1.0.0\Libraries\STM32F0xx_StdPeriph_Driver\src/stm32f0xx_gpio.c ****   }
 150:..\..\STM32F0-Discovery_FW_V1.0.0\Libraries\STM32F0xx_StdPeriph_Driver\src/stm32f0xx_gpio.c **** }
 178              		.loc 1 150 0
 179              		@ sp needed	@
 180 0076 08BD     		pop	{r3, pc}
 181              	.L10:
 182              		.align	2
 183              	.L9:
 184 0078 00040048 		.word	1207960576
 185 007c 00080048 		.word	1207961600
 186 0080 000C0048 		.word	1207962624
 187 0084 00140048 		.word	1207964672
 188              		.cfi_endproc
 189              	.LFE32:
 190              		.size	GPIO_DeInit, .-GPIO_DeInit
 191              		.align	1
 192              		.global	GPIO_Init
ARM GAS  C:\Users\Doles\AppData\Local\Temp\ccq4gsS1.s 			page 7


 193              		.code	16
 194              		.thumb_func
 195              		.type	GPIO_Init, %function
 196              	GPIO_Init:
 197              	.LFB33:
 151:..\..\STM32F0-Discovery_FW_V1.0.0\Libraries\STM32F0xx_StdPeriph_Driver\src/stm32f0xx_gpio.c **** 
 152:..\..\STM32F0-Discovery_FW_V1.0.0\Libraries\STM32F0xx_StdPeriph_Driver\src/stm32f0xx_gpio.c **** /**
 153:..\..\STM32F0-Discovery_FW_V1.0.0\Libraries\STM32F0xx_StdPeriph_Driver\src/stm32f0xx_gpio.c ****   * @brief  Initializes the GPIOx peripheral according to the specified 
 154:..\..\STM32F0-Discovery_FW_V1.0.0\Libraries\STM32F0xx_StdPeriph_Driver\src/stm32f0xx_gpio.c ****   *         parameters in the GPIO_InitStruct.
 155:..\..\STM32F0-Discovery_FW_V1.0.0\Libraries\STM32F0xx_StdPeriph_Driver\src/stm32f0xx_gpio.c ****   * @param  GPIOx: where x can be (A, B, C, D or F) to select the GPIO peripheral.
 156:..\..\STM32F0-Discovery_FW_V1.0.0\Libraries\STM32F0xx_StdPeriph_Driver\src/stm32f0xx_gpio.c ****   * @param  GPIO_InitStruct: pointer to a GPIO_InitTypeDef structure that contains
 157:..\..\STM32F0-Discovery_FW_V1.0.0\Libraries\STM32F0xx_StdPeriph_Driver\src/stm32f0xx_gpio.c ****   *         the configuration information for the specified GPIO peripheral.
 158:..\..\STM32F0-Discovery_FW_V1.0.0\Libraries\STM32F0xx_StdPeriph_Driver\src/stm32f0xx_gpio.c ****   * @note   The configured pins can be: GPIO_Pin_0 -> GPIO_Pin_15 for GPIOA, GPIOB and GPIOC,
 159:..\..\STM32F0-Discovery_FW_V1.0.0\Libraries\STM32F0xx_StdPeriph_Driver\src/stm32f0xx_gpio.c ****   *         GPIO_Pin_0 -> GPIO_Pin_2 for GPIOD, GPIO_Pin_0 -> GPIO_Pin_3 for GPIOF.
 160:..\..\STM32F0-Discovery_FW_V1.0.0\Libraries\STM32F0xx_StdPeriph_Driver\src/stm32f0xx_gpio.c ****   * @retval None
 161:..\..\STM32F0-Discovery_FW_V1.0.0\Libraries\STM32F0xx_StdPeriph_Driver\src/stm32f0xx_gpio.c ****   */
 162:..\..\STM32F0-Discovery_FW_V1.0.0\Libraries\STM32F0xx_StdPeriph_Driver\src/stm32f0xx_gpio.c **** void GPIO_Init(GPIO_TypeDef* GPIOx, GPIO_InitTypeDef* GPIO_InitStruct)
 163:..\..\STM32F0-Discovery_FW_V1.0.0\Libraries\STM32F0xx_StdPeriph_Driver\src/stm32f0xx_gpio.c **** {
 198              		.loc 1 163 0
 199              		.cfi_startproc
 200              	.LVL16:
 201 0088 F7B5     		push	{r0, r1, r2, r4, r5, r6, r7, lr}	@
 202              	.LCFI1:
 203              		.cfi_def_cfa_offset 32
 204              		.cfi_offset 0, -32
 205              		.cfi_offset 1, -28
 206              		.cfi_offset 2, -24
 207              		.cfi_offset 4, -20
 208              		.cfi_offset 5, -16
 209              		.cfi_offset 6, -12
 210              		.cfi_offset 7, -8
 211              		.cfi_offset 14, -4
 164:..\..\STM32F0-Discovery_FW_V1.0.0\Libraries\STM32F0xx_StdPeriph_Driver\src/stm32f0xx_gpio.c ****   uint32_t pinpos = 0x00, pos = 0x00 , currentpin = 0x00;
 165:..\..\STM32F0-Discovery_FW_V1.0.0\Libraries\STM32F0xx_StdPeriph_Driver\src/stm32f0xx_gpio.c **** 
 166:..\..\STM32F0-Discovery_FW_V1.0.0\Libraries\STM32F0xx_StdPeriph_Driver\src/stm32f0xx_gpio.c ****   /* Check the parameters */
 167:..\..\STM32F0-Discovery_FW_V1.0.0\Libraries\STM32F0xx_StdPeriph_Driver\src/stm32f0xx_gpio.c ****   assert_param(IS_GPIO_ALL_PERIPH(GPIOx));
 168:..\..\STM32F0-Discovery_FW_V1.0.0\Libraries\STM32F0xx_StdPeriph_Driver\src/stm32f0xx_gpio.c ****   assert_param(IS_GPIO_PIN(GPIO_InitStruct->GPIO_Pin));
 169:..\..\STM32F0-Discovery_FW_V1.0.0\Libraries\STM32F0xx_StdPeriph_Driver\src/stm32f0xx_gpio.c ****   assert_param(IS_GPIO_MODE(GPIO_InitStruct->GPIO_Mode));
 170:..\..\STM32F0-Discovery_FW_V1.0.0\Libraries\STM32F0xx_StdPeriph_Driver\src/stm32f0xx_gpio.c ****   assert_param(IS_GPIO_PUPD(GPIO_InitStruct->GPIO_PuPd));
 171:..\..\STM32F0-Discovery_FW_V1.0.0\Libraries\STM32F0xx_StdPeriph_Driver\src/stm32f0xx_gpio.c **** 
 172:..\..\STM32F0-Discovery_FW_V1.0.0\Libraries\STM32F0xx_StdPeriph_Driver\src/stm32f0xx_gpio.c ****   /*-------------------------- Configure the port pins -----------------------*/
 173:..\..\STM32F0-Discovery_FW_V1.0.0\Libraries\STM32F0xx_StdPeriph_Driver\src/stm32f0xx_gpio.c ****   /*-- GPIO Mode Configuration --*/
 174:..\..\STM32F0-Discovery_FW_V1.0.0\Libraries\STM32F0xx_StdPeriph_Driver\src/stm32f0xx_gpio.c ****   for (pinpos = 0x00; pinpos < 0x10; pinpos++)
 212              		.loc 1 174 0
 213 008a 0022     		mov	r2, #0	@ pinpos,
 175:..\..\STM32F0-Discovery_FW_V1.0.0\Libraries\STM32F0xx_StdPeriph_Driver\src/stm32f0xx_gpio.c ****   {
 176:..\..\STM32F0-Discovery_FW_V1.0.0\Libraries\STM32F0xx_StdPeriph_Driver\src/stm32f0xx_gpio.c ****     pos = ((uint32_t)0x01) << pinpos;
 177:..\..\STM32F0-Discovery_FW_V1.0.0\Libraries\STM32F0xx_StdPeriph_Driver\src/stm32f0xx_gpio.c **** 
 178:..\..\STM32F0-Discovery_FW_V1.0.0\Libraries\STM32F0xx_StdPeriph_Driver\src/stm32f0xx_gpio.c ****     /* Get the port pins position */
 179:..\..\STM32F0-Discovery_FW_V1.0.0\Libraries\STM32F0xx_StdPeriph_Driver\src/stm32f0xx_gpio.c ****     currentpin = (GPIO_InitStruct->GPIO_Pin) & pos;
 214              		.loc 1 179 0
 215 008c 0B68     		ldr	r3, [r1]	@ D.5006, GPIO_InitStruct_10(D)->GPIO_Pin
 216 008e 0193     		str	r3, [sp, #4]	@ D.5006, %sfp
 217              	.LVL17:
 218              	.L14:
 176:..\..\STM32F0-Discovery_FW_V1.0.0\Libraries\STM32F0xx_StdPeriph_Driver\src/stm32f0xx_gpio.c **** 
 219              		.loc 1 176 0
ARM GAS  C:\Users\Doles\AppData\Local\Temp\ccq4gsS1.s 			page 8


 220 0090 0123     		mov	r3, #1	@ tmp157,
 221 0092 9340     		lsl	r3, r3, r2	@ pos, tmp157, pinpos
 222              	.LVL18:
 223              		.loc 1 179 0
 224 0094 019E     		ldr	r6, [sp, #4]	@ currentpin, %sfp
 225 0096 1E40     		and	r6, r3	@ currentpin, pos
 226              	.LVL19:
 180:..\..\STM32F0-Discovery_FW_V1.0.0\Libraries\STM32F0xx_StdPeriph_Driver\src/stm32f0xx_gpio.c **** 
 181:..\..\STM32F0-Discovery_FW_V1.0.0\Libraries\STM32F0xx_StdPeriph_Driver\src/stm32f0xx_gpio.c ****     if (currentpin == pos)
 227              		.loc 1 181 0
 228 0098 9E42     		cmp	r6, r3	@ currentpin, pos
 229 009a 2DD1     		bne	.L12	@,
 182:..\..\STM32F0-Discovery_FW_V1.0.0\Libraries\STM32F0xx_StdPeriph_Driver\src/stm32f0xx_gpio.c ****     {
 183:..\..\STM32F0-Discovery_FW_V1.0.0\Libraries\STM32F0xx_StdPeriph_Driver\src/stm32f0xx_gpio.c ****       if ((GPIO_InitStruct->GPIO_Mode == GPIO_Mode_OUT) || (GPIO_InitStruct->GPIO_Mode == GPIO_Mode
 230              		.loc 1 183 0
 231 009c 0C79     		ldrb	r4, [r1, #4]	@ D.5007,
 232 009e 631E     		sub	r3, r4, #1	@ tmp159, D.5007,
 233              	.LVL20:
 234 00a0 012B     		cmp	r3, #1	@ tmp159,
 235 00a2 16D8     		bhi	.L13	@,
 236 00a4 5700     		lsl	r7, r2, #1	@ D.5005, pinpos,
 237 00a6 BC46     		mov	ip, r7	@ D.5005, D.5005
 184:..\..\STM32F0-Discovery_FW_V1.0.0\Libraries\STM32F0xx_StdPeriph_Driver\src/stm32f0xx_gpio.c ****       {
 185:..\..\STM32F0-Discovery_FW_V1.0.0\Libraries\STM32F0xx_StdPeriph_Driver\src/stm32f0xx_gpio.c ****         /* Check Speed mode parameters */
 186:..\..\STM32F0-Discovery_FW_V1.0.0\Libraries\STM32F0xx_StdPeriph_Driver\src/stm32f0xx_gpio.c ****         assert_param(IS_GPIO_SPEED(GPIO_InitStruct->GPIO_Speed));
 187:..\..\STM32F0-Discovery_FW_V1.0.0\Libraries\STM32F0xx_StdPeriph_Driver\src/stm32f0xx_gpio.c **** 
 188:..\..\STM32F0-Discovery_FW_V1.0.0\Libraries\STM32F0xx_StdPeriph_Driver\src/stm32f0xx_gpio.c ****         /* Speed mode configuration */
 189:..\..\STM32F0-Discovery_FW_V1.0.0\Libraries\STM32F0xx_StdPeriph_Driver\src/stm32f0xx_gpio.c ****         GPIOx->OSPEEDR &= ~(GPIO_OSPEEDER_OSPEEDR0 << (pinpos * 2));
 238              		.loc 1 189 0
 239 00a8 0327     		mov	r7, #3	@ tmp161,
 240 00aa 6546     		mov	r5, ip	@ D.5005, D.5005
 241 00ac AF40     		lsl	r7, r7, r5	@ D.5006, tmp161, D.5005
 242 00ae 8368     		ldr	r3, [r0, #8]	@ D.5006, GPIOx_15(D)->OSPEEDR
 243 00b0 BB43     		bic	r3, r7	@ D.5006, D.5006
 244 00b2 8360     		str	r3, [r0, #8]	@ D.5006, GPIOx_15(D)->OSPEEDR
 190:..\..\STM32F0-Discovery_FW_V1.0.0\Libraries\STM32F0xx_StdPeriph_Driver\src/stm32f0xx_gpio.c ****         GPIOx->OSPEEDR |= ((uint32_t)(GPIO_InitStruct->GPIO_Speed) << (pinpos * 2));
 245              		.loc 1 190 0
 246 00b4 4B79     		ldrb	r3, [r1, #5]	@ D.5006,
 247 00b6 8768     		ldr	r7, [r0, #8]	@ D.5006, GPIOx_15(D)->OSPEEDR
 248 00b8 AB40     		lsl	r3, r3, r5	@ D.5006, D.5006, D.5005
 249 00ba 3B43     		orr	r3, r7	@ D.5006, D.5006
 250 00bc 8360     		str	r3, [r0, #8]	@ D.5006, GPIOx_15(D)->OSPEEDR
 191:..\..\STM32F0-Discovery_FW_V1.0.0\Libraries\STM32F0xx_StdPeriph_Driver\src/stm32f0xx_gpio.c **** 
 192:..\..\STM32F0-Discovery_FW_V1.0.0\Libraries\STM32F0xx_StdPeriph_Driver\src/stm32f0xx_gpio.c ****         /* Check Output mode parameters */
 193:..\..\STM32F0-Discovery_FW_V1.0.0\Libraries\STM32F0xx_StdPeriph_Driver\src/stm32f0xx_gpio.c ****         assert_param(IS_GPIO_OTYPE(GPIO_InitStruct->GPIO_OType));
 194:..\..\STM32F0-Discovery_FW_V1.0.0\Libraries\STM32F0xx_StdPeriph_Driver\src/stm32f0xx_gpio.c **** 
 195:..\..\STM32F0-Discovery_FW_V1.0.0\Libraries\STM32F0xx_StdPeriph_Driver\src/stm32f0xx_gpio.c ****         /* Output mode configuration */
 196:..\..\STM32F0-Discovery_FW_V1.0.0\Libraries\STM32F0xx_StdPeriph_Driver\src/stm32f0xx_gpio.c ****         GPIOx->OTYPER &= ~((GPIO_OTYPER_OT_0) << ((uint16_t)pinpos));
 251              		.loc 1 196 0
 252 00be 8388     		ldrh	r3, [r0, #4]	@ tmp167,
 253 00c0 B343     		bic	r3, r6	@ D.5010, currentpin
 254 00c2 8380     		strh	r3, [r0, #4]	@ D.5010, GPIOx_15(D)->OTYPER
 197:..\..\STM32F0-Discovery_FW_V1.0.0\Libraries\STM32F0xx_StdPeriph_Driver\src/stm32f0xx_gpio.c ****         GPIOx->OTYPER |= (uint16_t)(((uint16_t)GPIO_InitStruct->GPIO_OType) << ((uint16_t)pinpos));
 255              		.loc 1 197 0
 256 00c4 8E79     		ldrb	r6, [r1, #6]	@ D.5005,
 257              	.LVL21:
 258 00c6 8788     		ldrh	r7, [r0, #4]	@ tmp176,
ARM GAS  C:\Users\Doles\AppData\Local\Temp\ccq4gsS1.s 			page 9


 259 00c8 331C     		mov	r3, r6	@ D.5005, D.5005
 260 00ca 9340     		lsl	r3, r3, r2	@ D.5005, D.5005, pinpos
 261 00cc 3B43     		orr	r3, r7	@ tmp180, tmp176
 262 00ce 9BB2     		uxth	r3, r3	@ D.5010, tmp180
 263 00d0 8380     		strh	r3, [r0, #4]	@ D.5010, GPIOx_15(D)->OTYPER
 264              	.L13:
 198:..\..\STM32F0-Discovery_FW_V1.0.0\Libraries\STM32F0xx_StdPeriph_Driver\src/stm32f0xx_gpio.c ****       }
 199:..\..\STM32F0-Discovery_FW_V1.0.0\Libraries\STM32F0xx_StdPeriph_Driver\src/stm32f0xx_gpio.c **** 
 200:..\..\STM32F0-Discovery_FW_V1.0.0\Libraries\STM32F0xx_StdPeriph_Driver\src/stm32f0xx_gpio.c ****       GPIOx->MODER  &= ~(GPIO_MODER_MODER0 << (pinpos * 2));
 265              		.loc 1 200 0
 266 00d2 0323     		mov	r3, #3	@ tmp183,
 267 00d4 5600     		lsl	r6, r2, #1	@ D.5005, pinpos,
 268 00d6 B340     		lsl	r3, r3, r6	@ D.5006, tmp183, D.5005
 269 00d8 DB43     		mvn	r3, r3	@ D.5006, D.5006
 201:..\..\STM32F0-Discovery_FW_V1.0.0\Libraries\STM32F0xx_StdPeriph_Driver\src/stm32f0xx_gpio.c **** 
 202:..\..\STM32F0-Discovery_FW_V1.0.0\Libraries\STM32F0xx_StdPeriph_Driver\src/stm32f0xx_gpio.c ****       GPIOx->MODER |= (((uint32_t)GPIO_InitStruct->GPIO_Mode) << (pinpos * 2));
 270              		.loc 1 202 0
 271 00da B440     		lsl	r4, r4, r6	@ D.5006, D.5007, D.5005
 200:..\..\STM32F0-Discovery_FW_V1.0.0\Libraries\STM32F0xx_StdPeriph_Driver\src/stm32f0xx_gpio.c **** 
 272              		.loc 1 200 0
 273 00dc 0768     		ldr	r7, [r0]	@ D.5006, GPIOx_15(D)->MODER
 274 00de 1F40     		and	r7, r3	@ D.5006, D.5006
 275 00e0 0760     		str	r7, [r0]	@ D.5006, GPIOx_15(D)->MODER
 276              		.loc 1 202 0
 277 00e2 0768     		ldr	r7, [r0]	@ D.5006, GPIOx_15(D)->MODER
 278 00e4 3C43     		orr	r4, r7	@ D.5006, D.5006
 279 00e6 0460     		str	r4, [r0]	@ D.5006, GPIOx_15(D)->MODER
 203:..\..\STM32F0-Discovery_FW_V1.0.0\Libraries\STM32F0xx_StdPeriph_Driver\src/stm32f0xx_gpio.c **** 
 204:..\..\STM32F0-Discovery_FW_V1.0.0\Libraries\STM32F0xx_StdPeriph_Driver\src/stm32f0xx_gpio.c ****       /* Pull-up Pull down resistor configuration */
 205:..\..\STM32F0-Discovery_FW_V1.0.0\Libraries\STM32F0xx_StdPeriph_Driver\src/stm32f0xx_gpio.c ****       GPIOx->PUPDR &= ~(GPIO_PUPDR_PUPDR0 << ((uint16_t)pinpos * 2));
 280              		.loc 1 205 0
 281 00e8 C468     		ldr	r4, [r0, #12]	@ D.5006, GPIOx_15(D)->PUPDR
 282 00ea 2340     		and	r3, r4	@ D.5006, D.5006
 283 00ec C360     		str	r3, [r0, #12]	@ D.5006, GPIOx_15(D)->PUPDR
 206:..\..\STM32F0-Discovery_FW_V1.0.0\Libraries\STM32F0xx_StdPeriph_Driver\src/stm32f0xx_gpio.c ****       GPIOx->PUPDR |= (((uint32_t)GPIO_InitStruct->GPIO_PuPd) << (pinpos * 2));
 284              		.loc 1 206 0
 285 00ee CB79     		ldrb	r3, [r1, #7]	@ D.5006,
 286 00f0 C468     		ldr	r4, [r0, #12]	@ D.5006, GPIOx_15(D)->PUPDR
 287 00f2 B340     		lsl	r3, r3, r6	@ D.5006, D.5006, D.5005
 288 00f4 2343     		orr	r3, r4	@ D.5006, D.5006
 289 00f6 C360     		str	r3, [r0, #12]	@ D.5006, GPIOx_15(D)->PUPDR
 290              	.L12:
 174:..\..\STM32F0-Discovery_FW_V1.0.0\Libraries\STM32F0xx_StdPeriph_Driver\src/stm32f0xx_gpio.c ****   {
 291              		.loc 1 174 0 discriminator 2
 292 00f8 0132     		add	r2, r2, #1	@ pinpos,
 293              	.LVL22:
 294 00fa 102A     		cmp	r2, #16	@ pinpos,
 295 00fc C8D1     		bne	.L14	@,
 207:..\..\STM32F0-Discovery_FW_V1.0.0\Libraries\STM32F0xx_StdPeriph_Driver\src/stm32f0xx_gpio.c ****     }
 208:..\..\STM32F0-Discovery_FW_V1.0.0\Libraries\STM32F0xx_StdPeriph_Driver\src/stm32f0xx_gpio.c ****   }
 209:..\..\STM32F0-Discovery_FW_V1.0.0\Libraries\STM32F0xx_StdPeriph_Driver\src/stm32f0xx_gpio.c **** }
 296              		.loc 1 209 0
 297              		@ sp needed	@
 298 00fe F7BD     		pop	{r0, r1, r2, r4, r5, r6, r7, pc}
 299              		.cfi_endproc
 300              	.LFE33:
 301              		.size	GPIO_Init, .-GPIO_Init
ARM GAS  C:\Users\Doles\AppData\Local\Temp\ccq4gsS1.s 			page 10


 302              		.align	1
 303              		.global	GPIO_StructInit
 304              		.code	16
 305              		.thumb_func
 306              		.type	GPIO_StructInit, %function
 307              	GPIO_StructInit:
 308              	.LFB34:
 210:..\..\STM32F0-Discovery_FW_V1.0.0\Libraries\STM32F0xx_StdPeriph_Driver\src/stm32f0xx_gpio.c **** 
 211:..\..\STM32F0-Discovery_FW_V1.0.0\Libraries\STM32F0xx_StdPeriph_Driver\src/stm32f0xx_gpio.c **** /**
 212:..\..\STM32F0-Discovery_FW_V1.0.0\Libraries\STM32F0xx_StdPeriph_Driver\src/stm32f0xx_gpio.c ****   * @brief  Fills each GPIO_InitStruct member with its default value.
 213:..\..\STM32F0-Discovery_FW_V1.0.0\Libraries\STM32F0xx_StdPeriph_Driver\src/stm32f0xx_gpio.c ****   * @param  GPIO_InitStruct: pointer to a GPIO_InitTypeDef structure which will 
 214:..\..\STM32F0-Discovery_FW_V1.0.0\Libraries\STM32F0xx_StdPeriph_Driver\src/stm32f0xx_gpio.c ****   *         be initialized.
 215:..\..\STM32F0-Discovery_FW_V1.0.0\Libraries\STM32F0xx_StdPeriph_Driver\src/stm32f0xx_gpio.c ****   * @retval None
 216:..\..\STM32F0-Discovery_FW_V1.0.0\Libraries\STM32F0xx_StdPeriph_Driver\src/stm32f0xx_gpio.c ****   */
 217:..\..\STM32F0-Discovery_FW_V1.0.0\Libraries\STM32F0xx_StdPeriph_Driver\src/stm32f0xx_gpio.c **** void GPIO_StructInit(GPIO_InitTypeDef* GPIO_InitStruct)
 218:..\..\STM32F0-Discovery_FW_V1.0.0\Libraries\STM32F0xx_StdPeriph_Driver\src/stm32f0xx_gpio.c **** {
 309              		.loc 1 218 0
 310              		.cfi_startproc
 311              	.LVL23:
 219:..\..\STM32F0-Discovery_FW_V1.0.0\Libraries\STM32F0xx_StdPeriph_Driver\src/stm32f0xx_gpio.c ****   /* Reset GPIO init structure parameters values */
 220:..\..\STM32F0-Discovery_FW_V1.0.0\Libraries\STM32F0xx_StdPeriph_Driver\src/stm32f0xx_gpio.c ****   GPIO_InitStruct->GPIO_Pin  = GPIO_Pin_All;
 312              		.loc 1 220 0
 313 0100 044B     		ldr	r3, .L16	@ tmp111,
 221:..\..\STM32F0-Discovery_FW_V1.0.0\Libraries\STM32F0xx_StdPeriph_Driver\src/stm32f0xx_gpio.c ****   GPIO_InitStruct->GPIO_Mode = GPIO_Mode_IN;
 222:..\..\STM32F0-Discovery_FW_V1.0.0\Libraries\STM32F0xx_StdPeriph_Driver\src/stm32f0xx_gpio.c ****   GPIO_InitStruct->GPIO_Speed = GPIO_Speed_Level_2;
 314              		.loc 1 222 0
 315 0102 0222     		mov	r2, #2	@ tmp114,
 220:..\..\STM32F0-Discovery_FW_V1.0.0\Libraries\STM32F0xx_StdPeriph_Driver\src/stm32f0xx_gpio.c ****   GPIO_InitStruct->GPIO_Mode = GPIO_Mode_IN;
 316              		.loc 1 220 0
 317 0104 0360     		str	r3, [r0]	@ tmp111, GPIO_InitStruct_2(D)->GPIO_Pin
 221:..\..\STM32F0-Discovery_FW_V1.0.0\Libraries\STM32F0xx_StdPeriph_Driver\src/stm32f0xx_gpio.c ****   GPIO_InitStruct->GPIO_Mode = GPIO_Mode_IN;
 318              		.loc 1 221 0
 319 0106 0023     		mov	r3, #0	@ tmp112,
 320              		.loc 1 222 0
 321 0108 4271     		strb	r2, [r0, #5]	@ tmp114, GPIO_InitStruct_2(D)->GPIO_Speed
 221:..\..\STM32F0-Discovery_FW_V1.0.0\Libraries\STM32F0xx_StdPeriph_Driver\src/stm32f0xx_gpio.c ****   GPIO_InitStruct->GPIO_Mode = GPIO_Mode_IN;
 322              		.loc 1 221 0
 323 010a 0371     		strb	r3, [r0, #4]	@ tmp112, GPIO_InitStruct_2(D)->GPIO_Mode
 223:..\..\STM32F0-Discovery_FW_V1.0.0\Libraries\STM32F0xx_StdPeriph_Driver\src/stm32f0xx_gpio.c ****   GPIO_InitStruct->GPIO_OType = GPIO_OType_PP;
 324              		.loc 1 223 0
 325 010c 8371     		strb	r3, [r0, #6]	@ tmp112, GPIO_InitStruct_2(D)->GPIO_OType
 224:..\..\STM32F0-Discovery_FW_V1.0.0\Libraries\STM32F0xx_StdPeriph_Driver\src/stm32f0xx_gpio.c ****   GPIO_InitStruct->GPIO_PuPd = GPIO_PuPd_NOPULL;
 326              		.loc 1 224 0
 327 010e C371     		strb	r3, [r0, #7]	@ tmp112, GPIO_InitStruct_2(D)->GPIO_PuPd
 225:..\..\STM32F0-Discovery_FW_V1.0.0\Libraries\STM32F0xx_StdPeriph_Driver\src/stm32f0xx_gpio.c **** }
 328              		.loc 1 225 0
 329              		@ sp needed	@
 330 0110 7047     		bx	lr
 331              	.L17:
 332 0112 C046     		.align	2
 333              	.L16:
 334 0114 FFFF0000 		.word	65535
 335              		.cfi_endproc
 336              	.LFE34:
 337              		.size	GPIO_StructInit, .-GPIO_StructInit
 338              		.align	1
 339              		.global	GPIO_PinLockConfig
ARM GAS  C:\Users\Doles\AppData\Local\Temp\ccq4gsS1.s 			page 11


 340              		.code	16
 341              		.thumb_func
 342              		.type	GPIO_PinLockConfig, %function
 343              	GPIO_PinLockConfig:
 344              	.LFB35:
 226:..\..\STM32F0-Discovery_FW_V1.0.0\Libraries\STM32F0xx_StdPeriph_Driver\src/stm32f0xx_gpio.c **** 
 227:..\..\STM32F0-Discovery_FW_V1.0.0\Libraries\STM32F0xx_StdPeriph_Driver\src/stm32f0xx_gpio.c **** /**
 228:..\..\STM32F0-Discovery_FW_V1.0.0\Libraries\STM32F0xx_StdPeriph_Driver\src/stm32f0xx_gpio.c ****   * @brief  Locks GPIO Pins configuration registers.
 229:..\..\STM32F0-Discovery_FW_V1.0.0\Libraries\STM32F0xx_StdPeriph_Driver\src/stm32f0xx_gpio.c ****   *         The locked registers are GPIOx_MODER, GPIOx_OTYPER, GPIOx_OSPEEDR,
 230:..\..\STM32F0-Discovery_FW_V1.0.0\Libraries\STM32F0xx_StdPeriph_Driver\src/stm32f0xx_gpio.c ****   *         GPIOx_PUPDR, GPIOx_AFRL and GPIOx_AFRH.
 231:..\..\STM32F0-Discovery_FW_V1.0.0\Libraries\STM32F0xx_StdPeriph_Driver\src/stm32f0xx_gpio.c ****   * @note   The configuration of the locked GPIO pins can no longer be modified
 232:..\..\STM32F0-Discovery_FW_V1.0.0\Libraries\STM32F0xx_StdPeriph_Driver\src/stm32f0xx_gpio.c ****   *         until the next reset.
 233:..\..\STM32F0-Discovery_FW_V1.0.0\Libraries\STM32F0xx_StdPeriph_Driver\src/stm32f0xx_gpio.c ****   * @param  GPIOx: where x can be (A or B) to select the GPIO peripheral.
 234:..\..\STM32F0-Discovery_FW_V1.0.0\Libraries\STM32F0xx_StdPeriph_Driver\src/stm32f0xx_gpio.c ****   * @param  GPIO_Pin: specifies the port bit to be written.
 235:..\..\STM32F0-Discovery_FW_V1.0.0\Libraries\STM32F0xx_StdPeriph_Driver\src/stm32f0xx_gpio.c ****   *   This parameter can be any combination of GPIO_Pin_x where x can be (0..15).
 236:..\..\STM32F0-Discovery_FW_V1.0.0\Libraries\STM32F0xx_StdPeriph_Driver\src/stm32f0xx_gpio.c ****   * @retval None
 237:..\..\STM32F0-Discovery_FW_V1.0.0\Libraries\STM32F0xx_StdPeriph_Driver\src/stm32f0xx_gpio.c ****   */
 238:..\..\STM32F0-Discovery_FW_V1.0.0\Libraries\STM32F0xx_StdPeriph_Driver\src/stm32f0xx_gpio.c **** void GPIO_PinLockConfig(GPIO_TypeDef* GPIOx, uint16_t GPIO_Pin)
 239:..\..\STM32F0-Discovery_FW_V1.0.0\Libraries\STM32F0xx_StdPeriph_Driver\src/stm32f0xx_gpio.c **** {
 345              		.loc 1 239 0
 346              		.cfi_startproc
 347              	.LVL24:
 240:..\..\STM32F0-Discovery_FW_V1.0.0\Libraries\STM32F0xx_StdPeriph_Driver\src/stm32f0xx_gpio.c ****   __IO uint32_t tmp = 0x00010000;
 348              		.loc 1 240 0
 349 0118 8023     		mov	r3, #128	@ tmp119,
 239:..\..\STM32F0-Discovery_FW_V1.0.0\Libraries\STM32F0xx_StdPeriph_Driver\src/stm32f0xx_gpio.c ****   __IO uint32_t tmp = 0x00010000;
 350              		.loc 1 239 0
 351 011a 82B0     		sub	sp, sp, #8	@,,
 352              	.LCFI2:
 353              		.cfi_def_cfa_offset 8
 354              		.loc 1 240 0
 355 011c 5B02     		lsl	r3, r3, #9	@ tmp119, tmp119,
 356 011e 0193     		str	r3, [sp, #4]	@ tmp119, tmp
 241:..\..\STM32F0-Discovery_FW_V1.0.0\Libraries\STM32F0xx_StdPeriph_Driver\src/stm32f0xx_gpio.c **** 
 242:..\..\STM32F0-Discovery_FW_V1.0.0\Libraries\STM32F0xx_StdPeriph_Driver\src/stm32f0xx_gpio.c ****   /* Check the parameters */
 243:..\..\STM32F0-Discovery_FW_V1.0.0\Libraries\STM32F0xx_StdPeriph_Driver\src/stm32f0xx_gpio.c ****   assert_param(IS_GPIO_LIST_PERIPH(GPIOx));
 244:..\..\STM32F0-Discovery_FW_V1.0.0\Libraries\STM32F0xx_StdPeriph_Driver\src/stm32f0xx_gpio.c ****   assert_param(IS_GPIO_PIN(GPIO_Pin));
 245:..\..\STM32F0-Discovery_FW_V1.0.0\Libraries\STM32F0xx_StdPeriph_Driver\src/stm32f0xx_gpio.c **** 
 246:..\..\STM32F0-Discovery_FW_V1.0.0\Libraries\STM32F0xx_StdPeriph_Driver\src/stm32f0xx_gpio.c ****   tmp |= GPIO_Pin;
 357              		.loc 1 246 0
 358 0120 019B     		ldr	r3, [sp, #4]	@ D.5018, tmp
 359 0122 0B43     		orr	r3, r1	@ D.5018, GPIO_Pin
 360 0124 0193     		str	r3, [sp, #4]	@ D.5018, tmp
 247:..\..\STM32F0-Discovery_FW_V1.0.0\Libraries\STM32F0xx_StdPeriph_Driver\src/stm32f0xx_gpio.c ****   /* Set LCKK bit */
 248:..\..\STM32F0-Discovery_FW_V1.0.0\Libraries\STM32F0xx_StdPeriph_Driver\src/stm32f0xx_gpio.c ****   GPIOx->LCKR = tmp;
 361              		.loc 1 248 0
 362 0126 019B     		ldr	r3, [sp, #4]	@ D.5018, tmp
 363 0128 C361     		str	r3, [r0, #28]	@ D.5018, GPIOx_9(D)->LCKR
 249:..\..\STM32F0-Discovery_FW_V1.0.0\Libraries\STM32F0xx_StdPeriph_Driver\src/stm32f0xx_gpio.c ****   /* Reset LCKK bit */
 250:..\..\STM32F0-Discovery_FW_V1.0.0\Libraries\STM32F0xx_StdPeriph_Driver\src/stm32f0xx_gpio.c ****   GPIOx->LCKR =  GPIO_Pin;
 364              		.loc 1 250 0
 365 012a C161     		str	r1, [r0, #28]	@ GPIO_Pin, GPIOx_9(D)->LCKR
 251:..\..\STM32F0-Discovery_FW_V1.0.0\Libraries\STM32F0xx_StdPeriph_Driver\src/stm32f0xx_gpio.c ****   /* Set LCKK bit */
 252:..\..\STM32F0-Discovery_FW_V1.0.0\Libraries\STM32F0xx_StdPeriph_Driver\src/stm32f0xx_gpio.c ****   GPIOx->LCKR = tmp;
 366              		.loc 1 252 0
 367 012c 019B     		ldr	r3, [sp, #4]	@ D.5018, tmp
 368 012e C361     		str	r3, [r0, #28]	@ D.5018, GPIOx_9(D)->LCKR
ARM GAS  C:\Users\Doles\AppData\Local\Temp\ccq4gsS1.s 			page 12


 253:..\..\STM32F0-Discovery_FW_V1.0.0\Libraries\STM32F0xx_StdPeriph_Driver\src/stm32f0xx_gpio.c ****   /* Read LCKK bit */
 254:..\..\STM32F0-Discovery_FW_V1.0.0\Libraries\STM32F0xx_StdPeriph_Driver\src/stm32f0xx_gpio.c ****   tmp = GPIOx->LCKR;
 369              		.loc 1 254 0
 370 0130 C369     		ldr	r3, [r0, #28]	@ D.5018, GPIOx_9(D)->LCKR
 371 0132 0193     		str	r3, [sp, #4]	@ D.5018, tmp
 255:..\..\STM32F0-Discovery_FW_V1.0.0\Libraries\STM32F0xx_StdPeriph_Driver\src/stm32f0xx_gpio.c ****   /* Read LCKK bit */
 256:..\..\STM32F0-Discovery_FW_V1.0.0\Libraries\STM32F0xx_StdPeriph_Driver\src/stm32f0xx_gpio.c ****   tmp = GPIOx->LCKR;
 372              		.loc 1 256 0
 373 0134 C369     		ldr	r3, [r0, #28]	@ D.5018, GPIOx_9(D)->LCKR
 374 0136 0193     		str	r3, [sp, #4]	@ D.5018, tmp
 257:..\..\STM32F0-Discovery_FW_V1.0.0\Libraries\STM32F0xx_StdPeriph_Driver\src/stm32f0xx_gpio.c **** }
 375              		.loc 1 257 0
 376 0138 02B0     		add	sp, sp, #8	@,,
 377              		@ sp needed	@
 378 013a 7047     		bx	lr
 379              		.cfi_endproc
 380              	.LFE35:
 381              		.size	GPIO_PinLockConfig, .-GPIO_PinLockConfig
 382              		.align	1
 383              		.global	GPIO_ReadInputDataBit
 384              		.code	16
 385              		.thumb_func
 386              		.type	GPIO_ReadInputDataBit, %function
 387              	GPIO_ReadInputDataBit:
 388              	.LFB36:
 258:..\..\STM32F0-Discovery_FW_V1.0.0\Libraries\STM32F0xx_StdPeriph_Driver\src/stm32f0xx_gpio.c **** 
 259:..\..\STM32F0-Discovery_FW_V1.0.0\Libraries\STM32F0xx_StdPeriph_Driver\src/stm32f0xx_gpio.c **** /**
 260:..\..\STM32F0-Discovery_FW_V1.0.0\Libraries\STM32F0xx_StdPeriph_Driver\src/stm32f0xx_gpio.c ****   * @}
 261:..\..\STM32F0-Discovery_FW_V1.0.0\Libraries\STM32F0xx_StdPeriph_Driver\src/stm32f0xx_gpio.c ****   */
 262:..\..\STM32F0-Discovery_FW_V1.0.0\Libraries\STM32F0xx_StdPeriph_Driver\src/stm32f0xx_gpio.c **** 
 263:..\..\STM32F0-Discovery_FW_V1.0.0\Libraries\STM32F0xx_StdPeriph_Driver\src/stm32f0xx_gpio.c **** /** @defgroup GPIO_Group2 GPIO Read and Write
 264:..\..\STM32F0-Discovery_FW_V1.0.0\Libraries\STM32F0xx_StdPeriph_Driver\src/stm32f0xx_gpio.c ****  *  @brief   GPIO Read and Write
 265:..\..\STM32F0-Discovery_FW_V1.0.0\Libraries\STM32F0xx_StdPeriph_Driver\src/stm32f0xx_gpio.c ****  *
 266:..\..\STM32F0-Discovery_FW_V1.0.0\Libraries\STM32F0xx_StdPeriph_Driver\src/stm32f0xx_gpio.c **** @verbatim   
 267:..\..\STM32F0-Discovery_FW_V1.0.0\Libraries\STM32F0xx_StdPeriph_Driver\src/stm32f0xx_gpio.c ****  ===============================================================================
 268:..\..\STM32F0-Discovery_FW_V1.0.0\Libraries\STM32F0xx_StdPeriph_Driver\src/stm32f0xx_gpio.c ****                       ##### GPIO Read and Write #####
 269:..\..\STM32F0-Discovery_FW_V1.0.0\Libraries\STM32F0xx_StdPeriph_Driver\src/stm32f0xx_gpio.c ****  ===============================================================================  
 270:..\..\STM32F0-Discovery_FW_V1.0.0\Libraries\STM32F0xx_StdPeriph_Driver\src/stm32f0xx_gpio.c **** 
 271:..\..\STM32F0-Discovery_FW_V1.0.0\Libraries\STM32F0xx_StdPeriph_Driver\src/stm32f0xx_gpio.c **** @endverbatim
 272:..\..\STM32F0-Discovery_FW_V1.0.0\Libraries\STM32F0xx_StdPeriph_Driver\src/stm32f0xx_gpio.c ****   * @{
 273:..\..\STM32F0-Discovery_FW_V1.0.0\Libraries\STM32F0xx_StdPeriph_Driver\src/stm32f0xx_gpio.c ****   */
 274:..\..\STM32F0-Discovery_FW_V1.0.0\Libraries\STM32F0xx_StdPeriph_Driver\src/stm32f0xx_gpio.c **** 
 275:..\..\STM32F0-Discovery_FW_V1.0.0\Libraries\STM32F0xx_StdPeriph_Driver\src/stm32f0xx_gpio.c **** /**
 276:..\..\STM32F0-Discovery_FW_V1.0.0\Libraries\STM32F0xx_StdPeriph_Driver\src/stm32f0xx_gpio.c ****   * @brief  Reads the specified input port pin.
 277:..\..\STM32F0-Discovery_FW_V1.0.0\Libraries\STM32F0xx_StdPeriph_Driver\src/stm32f0xx_gpio.c ****   * @param  GPIOx: where x can be (A, B, C, D or F) to select the GPIO peripheral.
 278:..\..\STM32F0-Discovery_FW_V1.0.0\Libraries\STM32F0xx_StdPeriph_Driver\src/stm32f0xx_gpio.c ****   * @param  GPIO_Pin: specifies the port bit to read.
 279:..\..\STM32F0-Discovery_FW_V1.0.0\Libraries\STM32F0xx_StdPeriph_Driver\src/stm32f0xx_gpio.c ****   * @note   This parameter can be GPIO_Pin_x where x can be:(0..15) for GPIOA, 
 280:..\..\STM32F0-Discovery_FW_V1.0.0\Libraries\STM32F0xx_StdPeriph_Driver\src/stm32f0xx_gpio.c ****   *         GPIOB or GPIOC,(0..2) for GPIOD and(0..3) for GPIOF.
 281:..\..\STM32F0-Discovery_FW_V1.0.0\Libraries\STM32F0xx_StdPeriph_Driver\src/stm32f0xx_gpio.c ****   * @retval The input port pin value.
 282:..\..\STM32F0-Discovery_FW_V1.0.0\Libraries\STM32F0xx_StdPeriph_Driver\src/stm32f0xx_gpio.c ****   */
 283:..\..\STM32F0-Discovery_FW_V1.0.0\Libraries\STM32F0xx_StdPeriph_Driver\src/stm32f0xx_gpio.c **** uint8_t GPIO_ReadInputDataBit(GPIO_TypeDef* GPIOx, uint16_t GPIO_Pin)
 284:..\..\STM32F0-Discovery_FW_V1.0.0\Libraries\STM32F0xx_StdPeriph_Driver\src/stm32f0xx_gpio.c **** {
 389              		.loc 1 284 0
 390              		.cfi_startproc
 391              	.LVL25:
 285:..\..\STM32F0-Discovery_FW_V1.0.0\Libraries\STM32F0xx_StdPeriph_Driver\src/stm32f0xx_gpio.c ****   uint8_t bitstatus = 0x00;
 286:..\..\STM32F0-Discovery_FW_V1.0.0\Libraries\STM32F0xx_StdPeriph_Driver\src/stm32f0xx_gpio.c **** 
ARM GAS  C:\Users\Doles\AppData\Local\Temp\ccq4gsS1.s 			page 13


 287:..\..\STM32F0-Discovery_FW_V1.0.0\Libraries\STM32F0xx_StdPeriph_Driver\src/stm32f0xx_gpio.c ****   /* Check the parameters */
 288:..\..\STM32F0-Discovery_FW_V1.0.0\Libraries\STM32F0xx_StdPeriph_Driver\src/stm32f0xx_gpio.c ****   assert_param(IS_GPIO_ALL_PERIPH(GPIOx));
 289:..\..\STM32F0-Discovery_FW_V1.0.0\Libraries\STM32F0xx_StdPeriph_Driver\src/stm32f0xx_gpio.c ****   assert_param(IS_GET_GPIO_PIN(GPIO_Pin));
 290:..\..\STM32F0-Discovery_FW_V1.0.0\Libraries\STM32F0xx_StdPeriph_Driver\src/stm32f0xx_gpio.c **** 
 291:..\..\STM32F0-Discovery_FW_V1.0.0\Libraries\STM32F0xx_StdPeriph_Driver\src/stm32f0xx_gpio.c ****   if ((GPIOx->IDR & GPIO_Pin) != (uint32_t)Bit_RESET)
 392              		.loc 1 291 0
 393 013c 008A     		ldrh	r0, [r0, #16]	@ tmp119,
 394              	.LVL26:
 292:..\..\STM32F0-Discovery_FW_V1.0.0\Libraries\STM32F0xx_StdPeriph_Driver\src/stm32f0xx_gpio.c ****   {
 293:..\..\STM32F0-Discovery_FW_V1.0.0\Libraries\STM32F0xx_StdPeriph_Driver\src/stm32f0xx_gpio.c ****     bitstatus = (uint8_t)Bit_SET;
 294:..\..\STM32F0-Discovery_FW_V1.0.0\Libraries\STM32F0xx_StdPeriph_Driver\src/stm32f0xx_gpio.c ****   }
 295:..\..\STM32F0-Discovery_FW_V1.0.0\Libraries\STM32F0xx_StdPeriph_Driver\src/stm32f0xx_gpio.c ****   else
 296:..\..\STM32F0-Discovery_FW_V1.0.0\Libraries\STM32F0xx_StdPeriph_Driver\src/stm32f0xx_gpio.c ****   {
 297:..\..\STM32F0-Discovery_FW_V1.0.0\Libraries\STM32F0xx_StdPeriph_Driver\src/stm32f0xx_gpio.c ****     bitstatus = (uint8_t)Bit_RESET;
 298:..\..\STM32F0-Discovery_FW_V1.0.0\Libraries\STM32F0xx_StdPeriph_Driver\src/stm32f0xx_gpio.c ****   }
 299:..\..\STM32F0-Discovery_FW_V1.0.0\Libraries\STM32F0xx_StdPeriph_Driver\src/stm32f0xx_gpio.c ****   return bitstatus;
 300:..\..\STM32F0-Discovery_FW_V1.0.0\Libraries\STM32F0xx_StdPeriph_Driver\src/stm32f0xx_gpio.c **** }
 395              		.loc 1 300 0
 396              		@ sp needed	@
 291:..\..\STM32F0-Discovery_FW_V1.0.0\Libraries\STM32F0xx_StdPeriph_Driver\src/stm32f0xx_gpio.c ****   {
 397              		.loc 1 291 0
 398 013e 0840     		and	r0, r1	@ tmp122, GPIO_Pin
 399              	.LVL27:
 400 0140 411E     		sub	r1, r0, #1	@ tmp124, tmp122
 401 0142 8841     		sbc	r0, r0, r1	@ tmp123, tmp122, tmp124
 402              	.LVL28:
 299:..\..\STM32F0-Discovery_FW_V1.0.0\Libraries\STM32F0xx_StdPeriph_Driver\src/stm32f0xx_gpio.c **** }
 403              		.loc 1 299 0
 404 0144 C0B2     		uxtb	r0, r0	@ D.5022, tmp123
 405              		.loc 1 300 0
 406 0146 7047     		bx	lr
 407              		.cfi_endproc
 408              	.LFE36:
 409              		.size	GPIO_ReadInputDataBit, .-GPIO_ReadInputDataBit
 410              		.align	1
 411              		.global	GPIO_ReadInputData
 412              		.code	16
 413              		.thumb_func
 414              		.type	GPIO_ReadInputData, %function
 415              	GPIO_ReadInputData:
 416              	.LFB37:
 301:..\..\STM32F0-Discovery_FW_V1.0.0\Libraries\STM32F0xx_StdPeriph_Driver\src/stm32f0xx_gpio.c **** 
 302:..\..\STM32F0-Discovery_FW_V1.0.0\Libraries\STM32F0xx_StdPeriph_Driver\src/stm32f0xx_gpio.c **** /**
 303:..\..\STM32F0-Discovery_FW_V1.0.0\Libraries\STM32F0xx_StdPeriph_Driver\src/stm32f0xx_gpio.c ****   * @brief  Reads the specified input port pin.
 304:..\..\STM32F0-Discovery_FW_V1.0.0\Libraries\STM32F0xx_StdPeriph_Driver\src/stm32f0xx_gpio.c ****   * @param  GPIOx: where x can be (A, B, C, D or F) to select the GPIO peripheral.
 305:..\..\STM32F0-Discovery_FW_V1.0.0\Libraries\STM32F0xx_StdPeriph_Driver\src/stm32f0xx_gpio.c ****   * @retval The input port pin value.
 306:..\..\STM32F0-Discovery_FW_V1.0.0\Libraries\STM32F0xx_StdPeriph_Driver\src/stm32f0xx_gpio.c ****   */
 307:..\..\STM32F0-Discovery_FW_V1.0.0\Libraries\STM32F0xx_StdPeriph_Driver\src/stm32f0xx_gpio.c **** uint16_t GPIO_ReadInputData(GPIO_TypeDef* GPIOx)
 308:..\..\STM32F0-Discovery_FW_V1.0.0\Libraries\STM32F0xx_StdPeriph_Driver\src/stm32f0xx_gpio.c **** {
 417              		.loc 1 308 0
 418              		.cfi_startproc
 419              	.LVL29:
 309:..\..\STM32F0-Discovery_FW_V1.0.0\Libraries\STM32F0xx_StdPeriph_Driver\src/stm32f0xx_gpio.c ****   /* Check the parameters */
 310:..\..\STM32F0-Discovery_FW_V1.0.0\Libraries\STM32F0xx_StdPeriph_Driver\src/stm32f0xx_gpio.c ****   assert_param(IS_GPIO_ALL_PERIPH(GPIOx));
 311:..\..\STM32F0-Discovery_FW_V1.0.0\Libraries\STM32F0xx_StdPeriph_Driver\src/stm32f0xx_gpio.c **** 
 312:..\..\STM32F0-Discovery_FW_V1.0.0\Libraries\STM32F0xx_StdPeriph_Driver\src/stm32f0xx_gpio.c ****   return ((uint16_t)GPIOx->IDR);
 420              		.loc 1 312 0
ARM GAS  C:\Users\Doles\AppData\Local\Temp\ccq4gsS1.s 			page 14


 421 0148 008A     		ldrh	r0, [r0, #16]	@ tmp115,
 422              	.LVL30:
 313:..\..\STM32F0-Discovery_FW_V1.0.0\Libraries\STM32F0xx_StdPeriph_Driver\src/stm32f0xx_gpio.c **** }
 423              		.loc 1 313 0
 424              		@ sp needed	@
 312:..\..\STM32F0-Discovery_FW_V1.0.0\Libraries\STM32F0xx_StdPeriph_Driver\src/stm32f0xx_gpio.c **** }
 425              		.loc 1 312 0
 426 014a 80B2     		uxth	r0, r0	@ D.5026, tmp115
 427              		.loc 1 313 0
 428 014c 7047     		bx	lr
 429              		.cfi_endproc
 430              	.LFE37:
 431              		.size	GPIO_ReadInputData, .-GPIO_ReadInputData
 432              		.align	1
 433              		.global	GPIO_ReadOutputDataBit
 434              		.code	16
 435              		.thumb_func
 436              		.type	GPIO_ReadOutputDataBit, %function
 437              	GPIO_ReadOutputDataBit:
 438              	.LFB38:
 314:..\..\STM32F0-Discovery_FW_V1.0.0\Libraries\STM32F0xx_StdPeriph_Driver\src/stm32f0xx_gpio.c **** 
 315:..\..\STM32F0-Discovery_FW_V1.0.0\Libraries\STM32F0xx_StdPeriph_Driver\src/stm32f0xx_gpio.c **** /**
 316:..\..\STM32F0-Discovery_FW_V1.0.0\Libraries\STM32F0xx_StdPeriph_Driver\src/stm32f0xx_gpio.c ****   * @brief  Reads the specified output data port bit.
 317:..\..\STM32F0-Discovery_FW_V1.0.0\Libraries\STM32F0xx_StdPeriph_Driver\src/stm32f0xx_gpio.c ****   * @param  GPIOx: where x can be (A, B, C, D or F) to select the GPIO peripheral.
 318:..\..\STM32F0-Discovery_FW_V1.0.0\Libraries\STM32F0xx_StdPeriph_Driver\src/stm32f0xx_gpio.c ****   * @param  GPIO_Pin: Specifies the port bit to read.
 319:..\..\STM32F0-Discovery_FW_V1.0.0\Libraries\STM32F0xx_StdPeriph_Driver\src/stm32f0xx_gpio.c ****   * @note   This parameter can be GPIO_Pin_x where x can be:(0..15) for GPIOA, 
 320:..\..\STM32F0-Discovery_FW_V1.0.0\Libraries\STM32F0xx_StdPeriph_Driver\src/stm32f0xx_gpio.c ****   *         GPIOB or GPIOC,(0..2) for GPIOD and(0..3) for GPIOF.
 321:..\..\STM32F0-Discovery_FW_V1.0.0\Libraries\STM32F0xx_StdPeriph_Driver\src/stm32f0xx_gpio.c ****   * @retval The output port pin value.
 322:..\..\STM32F0-Discovery_FW_V1.0.0\Libraries\STM32F0xx_StdPeriph_Driver\src/stm32f0xx_gpio.c ****   */
 323:..\..\STM32F0-Discovery_FW_V1.0.0\Libraries\STM32F0xx_StdPeriph_Driver\src/stm32f0xx_gpio.c **** uint8_t GPIO_ReadOutputDataBit(GPIO_TypeDef* GPIOx, uint16_t GPIO_Pin)
 324:..\..\STM32F0-Discovery_FW_V1.0.0\Libraries\STM32F0xx_StdPeriph_Driver\src/stm32f0xx_gpio.c **** {
 439              		.loc 1 324 0
 440              		.cfi_startproc
 441              	.LVL31:
 325:..\..\STM32F0-Discovery_FW_V1.0.0\Libraries\STM32F0xx_StdPeriph_Driver\src/stm32f0xx_gpio.c ****   uint8_t bitstatus = 0x00;
 326:..\..\STM32F0-Discovery_FW_V1.0.0\Libraries\STM32F0xx_StdPeriph_Driver\src/stm32f0xx_gpio.c **** 
 327:..\..\STM32F0-Discovery_FW_V1.0.0\Libraries\STM32F0xx_StdPeriph_Driver\src/stm32f0xx_gpio.c ****   /* Check the parameters */
 328:..\..\STM32F0-Discovery_FW_V1.0.0\Libraries\STM32F0xx_StdPeriph_Driver\src/stm32f0xx_gpio.c ****   assert_param(IS_GPIO_ALL_PERIPH(GPIOx));
 329:..\..\STM32F0-Discovery_FW_V1.0.0\Libraries\STM32F0xx_StdPeriph_Driver\src/stm32f0xx_gpio.c ****   assert_param(IS_GET_GPIO_PIN(GPIO_Pin));
 330:..\..\STM32F0-Discovery_FW_V1.0.0\Libraries\STM32F0xx_StdPeriph_Driver\src/stm32f0xx_gpio.c **** 
 331:..\..\STM32F0-Discovery_FW_V1.0.0\Libraries\STM32F0xx_StdPeriph_Driver\src/stm32f0xx_gpio.c ****   if ((GPIOx->ODR & GPIO_Pin) != (uint32_t)Bit_RESET)
 442              		.loc 1 331 0
 443 014e 808A     		ldrh	r0, [r0, #20]	@ tmp119,
 444              	.LVL32:
 332:..\..\STM32F0-Discovery_FW_V1.0.0\Libraries\STM32F0xx_StdPeriph_Driver\src/stm32f0xx_gpio.c ****   {
 333:..\..\STM32F0-Discovery_FW_V1.0.0\Libraries\STM32F0xx_StdPeriph_Driver\src/stm32f0xx_gpio.c ****     bitstatus = (uint8_t)Bit_SET;
 334:..\..\STM32F0-Discovery_FW_V1.0.0\Libraries\STM32F0xx_StdPeriph_Driver\src/stm32f0xx_gpio.c ****   }
 335:..\..\STM32F0-Discovery_FW_V1.0.0\Libraries\STM32F0xx_StdPeriph_Driver\src/stm32f0xx_gpio.c ****   else
 336:..\..\STM32F0-Discovery_FW_V1.0.0\Libraries\STM32F0xx_StdPeriph_Driver\src/stm32f0xx_gpio.c ****   {
 337:..\..\STM32F0-Discovery_FW_V1.0.0\Libraries\STM32F0xx_StdPeriph_Driver\src/stm32f0xx_gpio.c ****     bitstatus = (uint8_t)Bit_RESET;
 338:..\..\STM32F0-Discovery_FW_V1.0.0\Libraries\STM32F0xx_StdPeriph_Driver\src/stm32f0xx_gpio.c ****   }
 339:..\..\STM32F0-Discovery_FW_V1.0.0\Libraries\STM32F0xx_StdPeriph_Driver\src/stm32f0xx_gpio.c ****   return bitstatus;
 340:..\..\STM32F0-Discovery_FW_V1.0.0\Libraries\STM32F0xx_StdPeriph_Driver\src/stm32f0xx_gpio.c **** }
 445              		.loc 1 340 0
 446              		@ sp needed	@
 331:..\..\STM32F0-Discovery_FW_V1.0.0\Libraries\STM32F0xx_StdPeriph_Driver\src/stm32f0xx_gpio.c ****   {
 447              		.loc 1 331 0
ARM GAS  C:\Users\Doles\AppData\Local\Temp\ccq4gsS1.s 			page 15


 448 0150 0840     		and	r0, r1	@ tmp122, GPIO_Pin
 449              	.LVL33:
 450 0152 411E     		sub	r1, r0, #1	@ tmp124, tmp122
 451 0154 8841     		sbc	r0, r0, r1	@ tmp123, tmp122, tmp124
 452              	.LVL34:
 339:..\..\STM32F0-Discovery_FW_V1.0.0\Libraries\STM32F0xx_StdPeriph_Driver\src/stm32f0xx_gpio.c **** }
 453              		.loc 1 339 0
 454 0156 C0B2     		uxtb	r0, r0	@ D.5030, tmp123
 455              		.loc 1 340 0
 456 0158 7047     		bx	lr
 457              		.cfi_endproc
 458              	.LFE38:
 459              		.size	GPIO_ReadOutputDataBit, .-GPIO_ReadOutputDataBit
 460              		.align	1
 461              		.global	GPIO_ReadOutputData
 462              		.code	16
 463              		.thumb_func
 464              		.type	GPIO_ReadOutputData, %function
 465              	GPIO_ReadOutputData:
 466              	.LFB39:
 341:..\..\STM32F0-Discovery_FW_V1.0.0\Libraries\STM32F0xx_StdPeriph_Driver\src/stm32f0xx_gpio.c **** 
 342:..\..\STM32F0-Discovery_FW_V1.0.0\Libraries\STM32F0xx_StdPeriph_Driver\src/stm32f0xx_gpio.c **** /**
 343:..\..\STM32F0-Discovery_FW_V1.0.0\Libraries\STM32F0xx_StdPeriph_Driver\src/stm32f0xx_gpio.c ****   * @brief  Reads the specified GPIO output data port.
 344:..\..\STM32F0-Discovery_FW_V1.0.0\Libraries\STM32F0xx_StdPeriph_Driver\src/stm32f0xx_gpio.c ****   * @param  GPIOx: where x can be (A, B, C, D or F) to select the GPIO peripheral.
 345:..\..\STM32F0-Discovery_FW_V1.0.0\Libraries\STM32F0xx_StdPeriph_Driver\src/stm32f0xx_gpio.c ****   * @retval GPIO output data port value.
 346:..\..\STM32F0-Discovery_FW_V1.0.0\Libraries\STM32F0xx_StdPeriph_Driver\src/stm32f0xx_gpio.c ****   */
 347:..\..\STM32F0-Discovery_FW_V1.0.0\Libraries\STM32F0xx_StdPeriph_Driver\src/stm32f0xx_gpio.c **** uint16_t GPIO_ReadOutputData(GPIO_TypeDef* GPIOx)
 348:..\..\STM32F0-Discovery_FW_V1.0.0\Libraries\STM32F0xx_StdPeriph_Driver\src/stm32f0xx_gpio.c **** {
 467              		.loc 1 348 0
 468              		.cfi_startproc
 469              	.LVL35:
 349:..\..\STM32F0-Discovery_FW_V1.0.0\Libraries\STM32F0xx_StdPeriph_Driver\src/stm32f0xx_gpio.c ****   /* Check the parameters */
 350:..\..\STM32F0-Discovery_FW_V1.0.0\Libraries\STM32F0xx_StdPeriph_Driver\src/stm32f0xx_gpio.c ****   assert_param(IS_GPIO_ALL_PERIPH(GPIOx));
 351:..\..\STM32F0-Discovery_FW_V1.0.0\Libraries\STM32F0xx_StdPeriph_Driver\src/stm32f0xx_gpio.c **** 
 352:..\..\STM32F0-Discovery_FW_V1.0.0\Libraries\STM32F0xx_StdPeriph_Driver\src/stm32f0xx_gpio.c ****   return ((uint16_t)GPIOx->ODR);
 470              		.loc 1 352 0
 471 015a 808A     		ldrh	r0, [r0, #20]	@ tmp115,
 472              	.LVL36:
 353:..\..\STM32F0-Discovery_FW_V1.0.0\Libraries\STM32F0xx_StdPeriph_Driver\src/stm32f0xx_gpio.c **** }
 473              		.loc 1 353 0
 474              		@ sp needed	@
 352:..\..\STM32F0-Discovery_FW_V1.0.0\Libraries\STM32F0xx_StdPeriph_Driver\src/stm32f0xx_gpio.c **** }
 475              		.loc 1 352 0
 476 015c 80B2     		uxth	r0, r0	@ D.5034, tmp115
 477              		.loc 1 353 0
 478 015e 7047     		bx	lr
 479              		.cfi_endproc
 480              	.LFE39:
 481              		.size	GPIO_ReadOutputData, .-GPIO_ReadOutputData
 482              		.align	1
 483              		.global	GPIO_SetBits
 484              		.code	16
 485              		.thumb_func
 486              		.type	GPIO_SetBits, %function
 487              	GPIO_SetBits:
 488              	.LFB40:
 354:..\..\STM32F0-Discovery_FW_V1.0.0\Libraries\STM32F0xx_StdPeriph_Driver\src/stm32f0xx_gpio.c **** 
ARM GAS  C:\Users\Doles\AppData\Local\Temp\ccq4gsS1.s 			page 16


 355:..\..\STM32F0-Discovery_FW_V1.0.0\Libraries\STM32F0xx_StdPeriph_Driver\src/stm32f0xx_gpio.c **** /**
 356:..\..\STM32F0-Discovery_FW_V1.0.0\Libraries\STM32F0xx_StdPeriph_Driver\src/stm32f0xx_gpio.c ****   * @brief  Sets the selected data port bits.
 357:..\..\STM32F0-Discovery_FW_V1.0.0\Libraries\STM32F0xx_StdPeriph_Driver\src/stm32f0xx_gpio.c ****   * @param  GPIOx: where x can be (A, B, C, D or F) to select the GPIO peripheral.
 358:..\..\STM32F0-Discovery_FW_V1.0.0\Libraries\STM32F0xx_StdPeriph_Driver\src/stm32f0xx_gpio.c ****   * @param  GPIO_Pin: specifies the port bits to be written.
 359:..\..\STM32F0-Discovery_FW_V1.0.0\Libraries\STM32F0xx_StdPeriph_Driver\src/stm32f0xx_gpio.c ****   * @note   This parameter can be GPIO_Pin_x where x can be:(0..15) for GPIOA, 
 360:..\..\STM32F0-Discovery_FW_V1.0.0\Libraries\STM32F0xx_StdPeriph_Driver\src/stm32f0xx_gpio.c ****   *         GPIOB or GPIOC,(0..2) for GPIOD and(0..3) for GPIOF.
 361:..\..\STM32F0-Discovery_FW_V1.0.0\Libraries\STM32F0xx_StdPeriph_Driver\src/stm32f0xx_gpio.c ****   * @retval None
 362:..\..\STM32F0-Discovery_FW_V1.0.0\Libraries\STM32F0xx_StdPeriph_Driver\src/stm32f0xx_gpio.c ****   */
 363:..\..\STM32F0-Discovery_FW_V1.0.0\Libraries\STM32F0xx_StdPeriph_Driver\src/stm32f0xx_gpio.c **** void GPIO_SetBits(GPIO_TypeDef* GPIOx, uint16_t GPIO_Pin)
 364:..\..\STM32F0-Discovery_FW_V1.0.0\Libraries\STM32F0xx_StdPeriph_Driver\src/stm32f0xx_gpio.c **** {
 489              		.loc 1 364 0
 490              		.cfi_startproc
 491              	.LVL37:
 365:..\..\STM32F0-Discovery_FW_V1.0.0\Libraries\STM32F0xx_StdPeriph_Driver\src/stm32f0xx_gpio.c ****   /* Check the parameters */
 366:..\..\STM32F0-Discovery_FW_V1.0.0\Libraries\STM32F0xx_StdPeriph_Driver\src/stm32f0xx_gpio.c ****   assert_param(IS_GPIO_ALL_PERIPH(GPIOx));
 367:..\..\STM32F0-Discovery_FW_V1.0.0\Libraries\STM32F0xx_StdPeriph_Driver\src/stm32f0xx_gpio.c ****   assert_param(IS_GPIO_PIN(GPIO_Pin));
 368:..\..\STM32F0-Discovery_FW_V1.0.0\Libraries\STM32F0xx_StdPeriph_Driver\src/stm32f0xx_gpio.c **** 
 369:..\..\STM32F0-Discovery_FW_V1.0.0\Libraries\STM32F0xx_StdPeriph_Driver\src/stm32f0xx_gpio.c ****   GPIOx->BSRR = GPIO_Pin;
 492              		.loc 1 369 0
 493 0160 8161     		str	r1, [r0, #24]	@ GPIO_Pin, GPIOx_4(D)->BSRR
 370:..\..\STM32F0-Discovery_FW_V1.0.0\Libraries\STM32F0xx_StdPeriph_Driver\src/stm32f0xx_gpio.c **** }
 494              		.loc 1 370 0
 495              		@ sp needed	@
 496 0162 7047     		bx	lr
 497              		.cfi_endproc
 498              	.LFE40:
 499              		.size	GPIO_SetBits, .-GPIO_SetBits
 500              		.align	1
 501              		.global	GPIO_ResetBits
 502              		.code	16
 503              		.thumb_func
 504              		.type	GPIO_ResetBits, %function
 505              	GPIO_ResetBits:
 506              	.LFB41:
 371:..\..\STM32F0-Discovery_FW_V1.0.0\Libraries\STM32F0xx_StdPeriph_Driver\src/stm32f0xx_gpio.c **** 
 372:..\..\STM32F0-Discovery_FW_V1.0.0\Libraries\STM32F0xx_StdPeriph_Driver\src/stm32f0xx_gpio.c **** /**
 373:..\..\STM32F0-Discovery_FW_V1.0.0\Libraries\STM32F0xx_StdPeriph_Driver\src/stm32f0xx_gpio.c ****   * @brief  Clears the selected data port bits.
 374:..\..\STM32F0-Discovery_FW_V1.0.0\Libraries\STM32F0xx_StdPeriph_Driver\src/stm32f0xx_gpio.c ****   * @param  GPIOx: where x can be (A, B, C, D or F) to select the GPIO peripheral.
 375:..\..\STM32F0-Discovery_FW_V1.0.0\Libraries\STM32F0xx_StdPeriph_Driver\src/stm32f0xx_gpio.c ****   * @param  GPIO_Pin: specifies the port bits to be written.
 376:..\..\STM32F0-Discovery_FW_V1.0.0\Libraries\STM32F0xx_StdPeriph_Driver\src/stm32f0xx_gpio.c ****   * @note   This parameter can be GPIO_Pin_x where x can be: (0..15) for GPIOA, 
 377:..\..\STM32F0-Discovery_FW_V1.0.0\Libraries\STM32F0xx_StdPeriph_Driver\src/stm32f0xx_gpio.c ****   *         GPIOB or GPIOC,(0..2) for GPIOD and(0..3) for GPIOF.
 378:..\..\STM32F0-Discovery_FW_V1.0.0\Libraries\STM32F0xx_StdPeriph_Driver\src/stm32f0xx_gpio.c ****   * @retval None
 379:..\..\STM32F0-Discovery_FW_V1.0.0\Libraries\STM32F0xx_StdPeriph_Driver\src/stm32f0xx_gpio.c ****   */
 380:..\..\STM32F0-Discovery_FW_V1.0.0\Libraries\STM32F0xx_StdPeriph_Driver\src/stm32f0xx_gpio.c **** void GPIO_ResetBits(GPIO_TypeDef* GPIOx, uint16_t GPIO_Pin)
 381:..\..\STM32F0-Discovery_FW_V1.0.0\Libraries\STM32F0xx_StdPeriph_Driver\src/stm32f0xx_gpio.c **** {
 507              		.loc 1 381 0
 508              		.cfi_startproc
 509              	.LVL38:
 382:..\..\STM32F0-Discovery_FW_V1.0.0\Libraries\STM32F0xx_StdPeriph_Driver\src/stm32f0xx_gpio.c ****   /* Check the parameters */
 383:..\..\STM32F0-Discovery_FW_V1.0.0\Libraries\STM32F0xx_StdPeriph_Driver\src/stm32f0xx_gpio.c ****   assert_param(IS_GPIO_ALL_PERIPH(GPIOx));
 384:..\..\STM32F0-Discovery_FW_V1.0.0\Libraries\STM32F0xx_StdPeriph_Driver\src/stm32f0xx_gpio.c ****   assert_param(IS_GPIO_PIN(GPIO_Pin));
 385:..\..\STM32F0-Discovery_FW_V1.0.0\Libraries\STM32F0xx_StdPeriph_Driver\src/stm32f0xx_gpio.c **** 
 386:..\..\STM32F0-Discovery_FW_V1.0.0\Libraries\STM32F0xx_StdPeriph_Driver\src/stm32f0xx_gpio.c ****   GPIOx->BRR = GPIO_Pin;
 510              		.loc 1 386 0
 511 0164 0185     		strh	r1, [r0, #40]	@ GPIO_Pin, GPIOx_2(D)->BRR
 387:..\..\STM32F0-Discovery_FW_V1.0.0\Libraries\STM32F0xx_StdPeriph_Driver\src/stm32f0xx_gpio.c **** }
 512              		.loc 1 387 0
ARM GAS  C:\Users\Doles\AppData\Local\Temp\ccq4gsS1.s 			page 17


 513              		@ sp needed	@
 514 0166 7047     		bx	lr
 515              		.cfi_endproc
 516              	.LFE41:
 517              		.size	GPIO_ResetBits, .-GPIO_ResetBits
 518              		.align	1
 519              		.global	GPIO_WriteBit
 520              		.code	16
 521              		.thumb_func
 522              		.type	GPIO_WriteBit, %function
 523              	GPIO_WriteBit:
 524              	.LFB42:
 388:..\..\STM32F0-Discovery_FW_V1.0.0\Libraries\STM32F0xx_StdPeriph_Driver\src/stm32f0xx_gpio.c **** 
 389:..\..\STM32F0-Discovery_FW_V1.0.0\Libraries\STM32F0xx_StdPeriph_Driver\src/stm32f0xx_gpio.c **** /**
 390:..\..\STM32F0-Discovery_FW_V1.0.0\Libraries\STM32F0xx_StdPeriph_Driver\src/stm32f0xx_gpio.c ****   * @brief  Sets or clears the selected data port bit.
 391:..\..\STM32F0-Discovery_FW_V1.0.0\Libraries\STM32F0xx_StdPeriph_Driver\src/stm32f0xx_gpio.c ****   * @param  GPIOx: where x can be (A, B, C, D or F) to select the GPIO peripheral.
 392:..\..\STM32F0-Discovery_FW_V1.0.0\Libraries\STM32F0xx_StdPeriph_Driver\src/stm32f0xx_gpio.c ****   * @param  GPIO_Pin: specifies the port bit to be written.
 393:..\..\STM32F0-Discovery_FW_V1.0.0\Libraries\STM32F0xx_StdPeriph_Driver\src/stm32f0xx_gpio.c ****   * @param  BitVal: specifies the value to be written to the selected bit.
 394:..\..\STM32F0-Discovery_FW_V1.0.0\Libraries\STM32F0xx_StdPeriph_Driver\src/stm32f0xx_gpio.c ****   *   This parameter can be one of the BitAction enumeration values:
 395:..\..\STM32F0-Discovery_FW_V1.0.0\Libraries\STM32F0xx_StdPeriph_Driver\src/stm32f0xx_gpio.c ****   *     @arg Bit_RESET: to clear the port pin
 396:..\..\STM32F0-Discovery_FW_V1.0.0\Libraries\STM32F0xx_StdPeriph_Driver\src/stm32f0xx_gpio.c ****   *     @arg Bit_SET: to set the port pin
 397:..\..\STM32F0-Discovery_FW_V1.0.0\Libraries\STM32F0xx_StdPeriph_Driver\src/stm32f0xx_gpio.c ****   * @note   The GPIO_Pin parameter can be GPIO_Pin_x where x can be: (0..15) for GPIOA, 
 398:..\..\STM32F0-Discovery_FW_V1.0.0\Libraries\STM32F0xx_StdPeriph_Driver\src/stm32f0xx_gpio.c ****   *         GPIOB or GPIOC,(0..2) for GPIOD and(0..3) for GPIOF.  
 399:..\..\STM32F0-Discovery_FW_V1.0.0\Libraries\STM32F0xx_StdPeriph_Driver\src/stm32f0xx_gpio.c ****   * @retval None
 400:..\..\STM32F0-Discovery_FW_V1.0.0\Libraries\STM32F0xx_StdPeriph_Driver\src/stm32f0xx_gpio.c ****   */
 401:..\..\STM32F0-Discovery_FW_V1.0.0\Libraries\STM32F0xx_StdPeriph_Driver\src/stm32f0xx_gpio.c **** void GPIO_WriteBit(GPIO_TypeDef* GPIOx, uint16_t GPIO_Pin, BitAction BitVal)
 402:..\..\STM32F0-Discovery_FW_V1.0.0\Libraries\STM32F0xx_StdPeriph_Driver\src/stm32f0xx_gpio.c **** {
 525              		.loc 1 402 0
 526              		.cfi_startproc
 527              	.LVL39:
 403:..\..\STM32F0-Discovery_FW_V1.0.0\Libraries\STM32F0xx_StdPeriph_Driver\src/stm32f0xx_gpio.c ****   /* Check the parameters */
 404:..\..\STM32F0-Discovery_FW_V1.0.0\Libraries\STM32F0xx_StdPeriph_Driver\src/stm32f0xx_gpio.c ****   assert_param(IS_GPIO_ALL_PERIPH(GPIOx));
 405:..\..\STM32F0-Discovery_FW_V1.0.0\Libraries\STM32F0xx_StdPeriph_Driver\src/stm32f0xx_gpio.c ****   assert_param(IS_GET_GPIO_PIN(GPIO_Pin));
 406:..\..\STM32F0-Discovery_FW_V1.0.0\Libraries\STM32F0xx_StdPeriph_Driver\src/stm32f0xx_gpio.c ****   assert_param(IS_GPIO_BIT_ACTION(BitVal));
 407:..\..\STM32F0-Discovery_FW_V1.0.0\Libraries\STM32F0xx_StdPeriph_Driver\src/stm32f0xx_gpio.c **** 
 408:..\..\STM32F0-Discovery_FW_V1.0.0\Libraries\STM32F0xx_StdPeriph_Driver\src/stm32f0xx_gpio.c ****   if (BitVal != Bit_RESET)
 528              		.loc 1 408 0
 529 0168 002A     		cmp	r2, #0	@ BitVal,
 530 016a 01D0     		beq	.L26	@,
 409:..\..\STM32F0-Discovery_FW_V1.0.0\Libraries\STM32F0xx_StdPeriph_Driver\src/stm32f0xx_gpio.c ****   {
 410:..\..\STM32F0-Discovery_FW_V1.0.0\Libraries\STM32F0xx_StdPeriph_Driver\src/stm32f0xx_gpio.c ****     GPIOx->BSRR = GPIO_Pin;
 531              		.loc 1 410 0
 532 016c 8161     		str	r1, [r0, #24]	@ GPIO_Pin, GPIOx_6(D)->BSRR
 533 016e 00E0     		b	.L25	@
 534              	.L26:
 411:..\..\STM32F0-Discovery_FW_V1.0.0\Libraries\STM32F0xx_StdPeriph_Driver\src/stm32f0xx_gpio.c ****   }
 412:..\..\STM32F0-Discovery_FW_V1.0.0\Libraries\STM32F0xx_StdPeriph_Driver\src/stm32f0xx_gpio.c ****   else
 413:..\..\STM32F0-Discovery_FW_V1.0.0\Libraries\STM32F0xx_StdPeriph_Driver\src/stm32f0xx_gpio.c ****   {
 414:..\..\STM32F0-Discovery_FW_V1.0.0\Libraries\STM32F0xx_StdPeriph_Driver\src/stm32f0xx_gpio.c ****     GPIOx->BRR = GPIO_Pin ;
 535              		.loc 1 414 0
 536 0170 0185     		strh	r1, [r0, #40]	@ GPIO_Pin, GPIOx_6(D)->BRR
 537              	.L25:
 415:..\..\STM32F0-Discovery_FW_V1.0.0\Libraries\STM32F0xx_StdPeriph_Driver\src/stm32f0xx_gpio.c ****   }
 416:..\..\STM32F0-Discovery_FW_V1.0.0\Libraries\STM32F0xx_StdPeriph_Driver\src/stm32f0xx_gpio.c **** }
 538              		.loc 1 416 0
 539              		@ sp needed	@
 540 0172 7047     		bx	lr
ARM GAS  C:\Users\Doles\AppData\Local\Temp\ccq4gsS1.s 			page 18


 541              		.cfi_endproc
 542              	.LFE42:
 543              		.size	GPIO_WriteBit, .-GPIO_WriteBit
 544              		.align	1
 545              		.global	GPIO_Write
 546              		.code	16
 547              		.thumb_func
 548              		.type	GPIO_Write, %function
 549              	GPIO_Write:
 550              	.LFB43:
 417:..\..\STM32F0-Discovery_FW_V1.0.0\Libraries\STM32F0xx_StdPeriph_Driver\src/stm32f0xx_gpio.c **** 
 418:..\..\STM32F0-Discovery_FW_V1.0.0\Libraries\STM32F0xx_StdPeriph_Driver\src/stm32f0xx_gpio.c **** /**
 419:..\..\STM32F0-Discovery_FW_V1.0.0\Libraries\STM32F0xx_StdPeriph_Driver\src/stm32f0xx_gpio.c ****   * @brief  Writes data to the specified GPIO data port.
 420:..\..\STM32F0-Discovery_FW_V1.0.0\Libraries\STM32F0xx_StdPeriph_Driver\src/stm32f0xx_gpio.c ****   * @param  GPIOx: where x can be (A, B, C, D or F) to select the GPIO peripheral.
 421:..\..\STM32F0-Discovery_FW_V1.0.0\Libraries\STM32F0xx_StdPeriph_Driver\src/stm32f0xx_gpio.c ****   * @param  PortVal: specifies the value to be written to the port output data 
 422:..\..\STM32F0-Discovery_FW_V1.0.0\Libraries\STM32F0xx_StdPeriph_Driver\src/stm32f0xx_gpio.c ****   *                  register.
 423:..\..\STM32F0-Discovery_FW_V1.0.0\Libraries\STM32F0xx_StdPeriph_Driver\src/stm32f0xx_gpio.c ****   * @retval None
 424:..\..\STM32F0-Discovery_FW_V1.0.0\Libraries\STM32F0xx_StdPeriph_Driver\src/stm32f0xx_gpio.c ****   */
 425:..\..\STM32F0-Discovery_FW_V1.0.0\Libraries\STM32F0xx_StdPeriph_Driver\src/stm32f0xx_gpio.c **** void GPIO_Write(GPIO_TypeDef* GPIOx, uint16_t PortVal)
 426:..\..\STM32F0-Discovery_FW_V1.0.0\Libraries\STM32F0xx_StdPeriph_Driver\src/stm32f0xx_gpio.c **** {
 551              		.loc 1 426 0
 552              		.cfi_startproc
 553              	.LVL40:
 427:..\..\STM32F0-Discovery_FW_V1.0.0\Libraries\STM32F0xx_StdPeriph_Driver\src/stm32f0xx_gpio.c ****   /* Check the parameters */
 428:..\..\STM32F0-Discovery_FW_V1.0.0\Libraries\STM32F0xx_StdPeriph_Driver\src/stm32f0xx_gpio.c ****   assert_param(IS_GPIO_ALL_PERIPH(GPIOx));
 429:..\..\STM32F0-Discovery_FW_V1.0.0\Libraries\STM32F0xx_StdPeriph_Driver\src/stm32f0xx_gpio.c **** 
 430:..\..\STM32F0-Discovery_FW_V1.0.0\Libraries\STM32F0xx_StdPeriph_Driver\src/stm32f0xx_gpio.c ****   GPIOx->ODR = PortVal;
 554              		.loc 1 430 0
 555 0174 8182     		strh	r1, [r0, #20]	@ PortVal, GPIOx_2(D)->ODR
 431:..\..\STM32F0-Discovery_FW_V1.0.0\Libraries\STM32F0xx_StdPeriph_Driver\src/stm32f0xx_gpio.c **** }
 556              		.loc 1 431 0
 557              		@ sp needed	@
 558 0176 7047     		bx	lr
 559              		.cfi_endproc
 560              	.LFE43:
 561              		.size	GPIO_Write, .-GPIO_Write
 562              		.align	1
 563              		.global	GPIO_PinAFConfig
 564              		.code	16
 565              		.thumb_func
 566              		.type	GPIO_PinAFConfig, %function
 567              	GPIO_PinAFConfig:
 568              	.LFB44:
 432:..\..\STM32F0-Discovery_FW_V1.0.0\Libraries\STM32F0xx_StdPeriph_Driver\src/stm32f0xx_gpio.c **** 
 433:..\..\STM32F0-Discovery_FW_V1.0.0\Libraries\STM32F0xx_StdPeriph_Driver\src/stm32f0xx_gpio.c **** /**
 434:..\..\STM32F0-Discovery_FW_V1.0.0\Libraries\STM32F0xx_StdPeriph_Driver\src/stm32f0xx_gpio.c ****   * @}
 435:..\..\STM32F0-Discovery_FW_V1.0.0\Libraries\STM32F0xx_StdPeriph_Driver\src/stm32f0xx_gpio.c ****   */
 436:..\..\STM32F0-Discovery_FW_V1.0.0\Libraries\STM32F0xx_StdPeriph_Driver\src/stm32f0xx_gpio.c **** 
 437:..\..\STM32F0-Discovery_FW_V1.0.0\Libraries\STM32F0xx_StdPeriph_Driver\src/stm32f0xx_gpio.c **** /** @defgroup GPIO_Group3 GPIO Alternate functions configuration functions
 438:..\..\STM32F0-Discovery_FW_V1.0.0\Libraries\STM32F0xx_StdPeriph_Driver\src/stm32f0xx_gpio.c ****  *  @brief   GPIO Alternate functions configuration functions
 439:..\..\STM32F0-Discovery_FW_V1.0.0\Libraries\STM32F0xx_StdPeriph_Driver\src/stm32f0xx_gpio.c ****  *
 440:..\..\STM32F0-Discovery_FW_V1.0.0\Libraries\STM32F0xx_StdPeriph_Driver\src/stm32f0xx_gpio.c **** @verbatim   
 441:..\..\STM32F0-Discovery_FW_V1.0.0\Libraries\STM32F0xx_StdPeriph_Driver\src/stm32f0xx_gpio.c ****  ===============================================================================
 442:..\..\STM32F0-Discovery_FW_V1.0.0\Libraries\STM32F0xx_StdPeriph_Driver\src/stm32f0xx_gpio.c ****           ##### GPIO Alternate functions configuration functions #####
 443:..\..\STM32F0-Discovery_FW_V1.0.0\Libraries\STM32F0xx_StdPeriph_Driver\src/stm32f0xx_gpio.c ****  ===============================================================================  
 444:..\..\STM32F0-Discovery_FW_V1.0.0\Libraries\STM32F0xx_StdPeriph_Driver\src/stm32f0xx_gpio.c **** 
 445:..\..\STM32F0-Discovery_FW_V1.0.0\Libraries\STM32F0xx_StdPeriph_Driver\src/stm32f0xx_gpio.c **** @endverbatim
ARM GAS  C:\Users\Doles\AppData\Local\Temp\ccq4gsS1.s 			page 19


 446:..\..\STM32F0-Discovery_FW_V1.0.0\Libraries\STM32F0xx_StdPeriph_Driver\src/stm32f0xx_gpio.c ****   * @{
 447:..\..\STM32F0-Discovery_FW_V1.0.0\Libraries\STM32F0xx_StdPeriph_Driver\src/stm32f0xx_gpio.c ****   */
 448:..\..\STM32F0-Discovery_FW_V1.0.0\Libraries\STM32F0xx_StdPeriph_Driver\src/stm32f0xx_gpio.c **** 
 449:..\..\STM32F0-Discovery_FW_V1.0.0\Libraries\STM32F0xx_StdPeriph_Driver\src/stm32f0xx_gpio.c **** /**
 450:..\..\STM32F0-Discovery_FW_V1.0.0\Libraries\STM32F0xx_StdPeriph_Driver\src/stm32f0xx_gpio.c ****   * @brief  Writes data to the specified GPIO data port.
 451:..\..\STM32F0-Discovery_FW_V1.0.0\Libraries\STM32F0xx_StdPeriph_Driver\src/stm32f0xx_gpio.c ****   * @param  GPIOx: where x can be (A or B) to select the GPIO peripheral.
 452:..\..\STM32F0-Discovery_FW_V1.0.0\Libraries\STM32F0xx_StdPeriph_Driver\src/stm32f0xx_gpio.c ****   * @param  GPIO_PinSource: specifies the pin for the Alternate function.
 453:..\..\STM32F0-Discovery_FW_V1.0.0\Libraries\STM32F0xx_StdPeriph_Driver\src/stm32f0xx_gpio.c ****   *   This parameter can be GPIO_PinSourcex where x can be (0..15).
 454:..\..\STM32F0-Discovery_FW_V1.0.0\Libraries\STM32F0xx_StdPeriph_Driver\src/stm32f0xx_gpio.c ****   * @param  GPIO_AF: selects the pin to used as Alternate function.
 455:..\..\STM32F0-Discovery_FW_V1.0.0\Libraries\STM32F0xx_StdPeriph_Driver\src/stm32f0xx_gpio.c ****   *   This parameter can be one of the following value:
 456:..\..\STM32F0-Discovery_FW_V1.0.0\Libraries\STM32F0xx_StdPeriph_Driver\src/stm32f0xx_gpio.c ****  *     @arg GPIO_AF_0:WKUP, EVENTOUT, TIM15, SPI1, TIM17,MCO, SWDAT, SWCLK, TIM14,
 457:..\..\STM32F0-Discovery_FW_V1.0.0\Libraries\STM32F0xx_StdPeriph_Driver\src/stm32f0xx_gpio.c ****  *                    BOOT,USART1, CEC, IR_OUT, SPI2 
 458:..\..\STM32F0-Discovery_FW_V1.0.0\Libraries\STM32F0xx_StdPeriph_Driver\src/stm32f0xx_gpio.c ****  *     @arg GPIO_AF_1:USART2, CEC, Tim3, USART1, USART2,EVENTOUT, I2C1, I2C2, TIM15 
 459:..\..\STM32F0-Discovery_FW_V1.0.0\Libraries\STM32F0xx_StdPeriph_Driver\src/stm32f0xx_gpio.c ****  *     @arg GPIO_AF_2:TIM2, TIM1, EVENTOUT, TIM16, TIM17.
 460:..\..\STM32F0-Discovery_FW_V1.0.0\Libraries\STM32F0xx_StdPeriph_Driver\src/stm32f0xx_gpio.c ****  *     @arg GPIO_AF_3:TS, I2C1, TIM15, EVENTOUT 
 461:..\..\STM32F0-Discovery_FW_V1.0.0\Libraries\STM32F0xx_StdPeriph_Driver\src/stm32f0xx_gpio.c ****  *     @arg GPIO_AF_4:TIM14.
 462:..\..\STM32F0-Discovery_FW_V1.0.0\Libraries\STM32F0xx_StdPeriph_Driver\src/stm32f0xx_gpio.c ****  *     @arg GPIO_AF_5:TIM16, TIM17.
 463:..\..\STM32F0-Discovery_FW_V1.0.0\Libraries\STM32F0xx_StdPeriph_Driver\src/stm32f0xx_gpio.c ****  *     @arg GPIO_AF_6:EVENTOUT.
 464:..\..\STM32F0-Discovery_FW_V1.0.0\Libraries\STM32F0xx_StdPeriph_Driver\src/stm32f0xx_gpio.c ****  *     @arg GPIO_AF_7:COMP1 OUT, COMP2 OUT 
 465:..\..\STM32F0-Discovery_FW_V1.0.0\Libraries\STM32F0xx_StdPeriph_Driver\src/stm32f0xx_gpio.c ****  * @note  The pin should already been configured in Alternate Function mode(AF)
 466:..\..\STM32F0-Discovery_FW_V1.0.0\Libraries\STM32F0xx_StdPeriph_Driver\src/stm32f0xx_gpio.c ****  *        using GPIO_InitStruct->GPIO_Mode = GPIO_Mode_AF
 467:..\..\STM32F0-Discovery_FW_V1.0.0\Libraries\STM32F0xx_StdPeriph_Driver\src/stm32f0xx_gpio.c ****  * @note  Refer to the Alternate function mapping table in the device datasheet 
 468:..\..\STM32F0-Discovery_FW_V1.0.0\Libraries\STM32F0xx_StdPeriph_Driver\src/stm32f0xx_gpio.c ****  *        for the detailed mapping of the system and peripherals'alternate 
 469:..\..\STM32F0-Discovery_FW_V1.0.0\Libraries\STM32F0xx_StdPeriph_Driver\src/stm32f0xx_gpio.c ****  *        function I/O pins.
 470:..\..\STM32F0-Discovery_FW_V1.0.0\Libraries\STM32F0xx_StdPeriph_Driver\src/stm32f0xx_gpio.c ****  * @retval None
 471:..\..\STM32F0-Discovery_FW_V1.0.0\Libraries\STM32F0xx_StdPeriph_Driver\src/stm32f0xx_gpio.c ****  */
 472:..\..\STM32F0-Discovery_FW_V1.0.0\Libraries\STM32F0xx_StdPeriph_Driver\src/stm32f0xx_gpio.c **** void GPIO_PinAFConfig(GPIO_TypeDef* GPIOx, uint16_t GPIO_PinSource, uint8_t GPIO_AF)
 473:..\..\STM32F0-Discovery_FW_V1.0.0\Libraries\STM32F0xx_StdPeriph_Driver\src/stm32f0xx_gpio.c **** {
 569              		.loc 1 473 0
 570              		.cfi_startproc
 571              	.LVL41:
 474:..\..\STM32F0-Discovery_FW_V1.0.0\Libraries\STM32F0xx_StdPeriph_Driver\src/stm32f0xx_gpio.c ****   uint32_t temp = 0x00;
 475:..\..\STM32F0-Discovery_FW_V1.0.0\Libraries\STM32F0xx_StdPeriph_Driver\src/stm32f0xx_gpio.c ****   uint32_t temp_2 = 0x00;
 476:..\..\STM32F0-Discovery_FW_V1.0.0\Libraries\STM32F0xx_StdPeriph_Driver\src/stm32f0xx_gpio.c **** 
 477:..\..\STM32F0-Discovery_FW_V1.0.0\Libraries\STM32F0xx_StdPeriph_Driver\src/stm32f0xx_gpio.c ****   /* Check the parameters */
 478:..\..\STM32F0-Discovery_FW_V1.0.0\Libraries\STM32F0xx_StdPeriph_Driver\src/stm32f0xx_gpio.c ****   assert_param(IS_GPIO_LIST_PERIPH(GPIOx));
 479:..\..\STM32F0-Discovery_FW_V1.0.0\Libraries\STM32F0xx_StdPeriph_Driver\src/stm32f0xx_gpio.c ****   assert_param(IS_GPIO_PIN_SOURCE(GPIO_PinSource));
 480:..\..\STM32F0-Discovery_FW_V1.0.0\Libraries\STM32F0xx_StdPeriph_Driver\src/stm32f0xx_gpio.c ****   assert_param(IS_GPIO_AF(GPIO_AF));
 481:..\..\STM32F0-Discovery_FW_V1.0.0\Libraries\STM32F0xx_StdPeriph_Driver\src/stm32f0xx_gpio.c **** 
 482:..\..\STM32F0-Discovery_FW_V1.0.0\Libraries\STM32F0xx_StdPeriph_Driver\src/stm32f0xx_gpio.c ****   temp = ((uint32_t)(GPIO_AF) << ((uint32_t)((uint32_t)GPIO_PinSource & (uint32_t)0x07) * 4));
 572              		.loc 1 482 0
 573 0178 0723     		mov	r3, #7	@ tmp130,
 473:..\..\STM32F0-Discovery_FW_V1.0.0\Libraries\STM32F0xx_StdPeriph_Driver\src/stm32f0xx_gpio.c ****   uint32_t temp = 0x00;
 574              		.loc 1 473 0
 575 017a 10B5     		push	{r4, lr}	@
 576              	.LCFI3:
 577              		.cfi_def_cfa_offset 8
 578              		.cfi_offset 4, -8
 579              		.cfi_offset 14, -4
 483:..\..\STM32F0-Discovery_FW_V1.0.0\Libraries\STM32F0xx_StdPeriph_Driver\src/stm32f0xx_gpio.c ****   GPIOx->AFR[GPIO_PinSource >> 0x03] &= ~((uint32_t)0xF << ((uint32_t)((uint32_t)GPIO_PinSource & (
 580              		.loc 1 483 0
 581 017c 0F24     		mov	r4, #15	@ tmp136,
 482:..\..\STM32F0-Discovery_FW_V1.0.0\Libraries\STM32F0xx_StdPeriph_Driver\src/stm32f0xx_gpio.c ****   GPIOx->AFR[GPIO_PinSource >> 0x03] &= ~((uint32_t)0xF << ((uint32_t)((uint32_t)GPIO_PinSource & (
 582              		.loc 1 482 0
 583 017e 0B40     		and	r3, r1	@ D.5048, GPIO_PinSource
 584 0180 9B00     		lsl	r3, r3, #2	@ D.5049, D.5048,
 585              	.LVL42:
ARM GAS  C:\Users\Doles\AppData\Local\Temp\ccq4gsS1.s 			page 20


 586 0182 9A40     		lsl	r2, r2, r3	@ temp, temp, D.5049
 587              	.LVL43:
 588              		.loc 1 483 0
 589 0184 9C40     		lsl	r4, r4, r3	@ D.5048, tmp136, D.5049
 482:..\..\STM32F0-Discovery_FW_V1.0.0\Libraries\STM32F0xx_StdPeriph_Driver\src/stm32f0xx_gpio.c ****   GPIOx->AFR[GPIO_PinSource >> 0x03] &= ~((uint32_t)0xF << ((uint32_t)((uint32_t)GPIO_PinSource & (
 590              		.loc 1 482 0
 591 0186 131C     		mov	r3, r2	@ temp, temp
 592              	.LVL44:
 593 0188 C908     		lsr	r1, r1, #3	@ D.5051, GPIO_PinSource,
 594              	.LVL45:
 595 018a 8900     		lsl	r1, r1, #2	@ D.5051, D.5051,
 596 018c 4018     		add	r0, r0, r1	@ D.5052, GPIOx, D.5051
 597              	.LVL46:
 598              		.loc 1 483 0
 599 018e 016A     		ldr	r1, [r0, #32]	@ D.5048, MEM[(struct GPIO_TypeDef *)_23 + 32B]
 484:..\..\STM32F0-Discovery_FW_V1.0.0\Libraries\STM32F0xx_StdPeriph_Driver\src/stm32f0xx_gpio.c ****   temp_2 = GPIOx->AFR[GPIO_PinSource >> 0x03] | temp;
 485:..\..\STM32F0-Discovery_FW_V1.0.0\Libraries\STM32F0xx_StdPeriph_Driver\src/stm32f0xx_gpio.c ****   GPIOx->AFR[GPIO_PinSource >> 0x03] = temp_2;
 486:..\..\STM32F0-Discovery_FW_V1.0.0\Libraries\STM32F0xx_StdPeriph_Driver\src/stm32f0xx_gpio.c **** }
 600              		.loc 1 486 0
 601              		@ sp needed	@
 483:..\..\STM32F0-Discovery_FW_V1.0.0\Libraries\STM32F0xx_StdPeriph_Driver\src/stm32f0xx_gpio.c ****   temp_2 = GPIOx->AFR[GPIO_PinSource >> 0x03] | temp;
 602              		.loc 1 483 0
 603 0190 A143     		bic	r1, r4	@ D.5048, D.5048
 604 0192 0162     		str	r1, [r0, #32]	@ D.5048, MEM[(struct GPIO_TypeDef *)_23 + 32B]
 484:..\..\STM32F0-Discovery_FW_V1.0.0\Libraries\STM32F0xx_StdPeriph_Driver\src/stm32f0xx_gpio.c ****   temp_2 = GPIOx->AFR[GPIO_PinSource >> 0x03] | temp;
 605              		.loc 1 484 0
 606 0194 016A     		ldr	r1, [r0, #32]	@ D.5048, MEM[(struct GPIO_TypeDef *)_23 + 32B]
 607 0196 0B43     		orr	r3, r1	@ temp_2, D.5048
 608              	.LVL47:
 485:..\..\STM32F0-Discovery_FW_V1.0.0\Libraries\STM32F0xx_StdPeriph_Driver\src/stm32f0xx_gpio.c **** }
 609              		.loc 1 485 0
 610 0198 0362     		str	r3, [r0, #32]	@ temp_2, MEM[(struct GPIO_TypeDef *)_23 + 32B]
 611              		.loc 1 486 0
 612 019a 10BD     		pop	{r4, pc}
 613              		.cfi_endproc
 614              	.LFE44:
 615              		.size	GPIO_PinAFConfig, .-GPIO_PinAFConfig
 616              	.Letext0:
 617              		.file 2 "c:\\program files (x86)\\gnu tools arm embedded\\4.9 2014q4\\arm-none-eabi\\include\\mach
 618              		.file 3 "c:\\program files (x86)\\gnu tools arm embedded\\4.9 2014q4\\arm-none-eabi\\include\\stdi
 619              		.file 4 "..\\..\\STM32F0-Discovery_FW_V1.0.0\\Libraries\\CMSIS\\ST\\STM32F0xx\\Include/stm32f0xx.h
 620              		.file 5 "..\\..\\STM32F0-Discovery_FW_V1.0.0\\Libraries\\STM32F0xx_StdPeriph_Driver\\inc/stm32f0xx
 621              		.file 6 "..\\..\\STM32F0-Discovery_FW_V1.0.0\\Libraries\\STM32F0xx_StdPeriph_Driver\\inc/stm32f0xx